
byggern_node_1.elf:     file format elf32-avr

Sections:
Idx Name          Size      VMA       LMA       File off  Algn
  0 .data         0000029c  00800100  000035ba  0000364e  2**0
                  CONTENTS, ALLOC, LOAD, DATA
  1 .text         000035ba  00000000  00000000  00000094  2**1
                  CONTENTS, ALLOC, LOAD, READONLY, CODE
  2 .bss          0000008c  0080039c  0080039c  000038ea  2**0
                  ALLOC
  3 .comment      0000005c  00000000  00000000  000038ea  2**0
                  CONTENTS, READONLY
  4 .debug_aranges 00000358  00000000  00000000  00003946  2**0
                  CONTENTS, READONLY, DEBUGGING
  5 .debug_info   00001e99  00000000  00000000  00003c9e  2**0
                  CONTENTS, READONLY, DEBUGGING
  6 .debug_abbrev 00000c66  00000000  00000000  00005b37  2**0
                  CONTENTS, READONLY, DEBUGGING
  7 .debug_line   00001070  00000000  00000000  0000679d  2**0
                  CONTENTS, READONLY, DEBUGGING
  8 .debug_frame  00000abc  00000000  00000000  00007810  2**2
                  CONTENTS, READONLY, DEBUGGING
  9 .debug_str    00000abf  00000000  00000000  000082cc  2**0
                  CONTENTS, READONLY, DEBUGGING
 10 .debug_loc    0000156b  00000000  00000000  00008d8b  2**0
                  CONTENTS, READONLY, DEBUGGING
 11 .debug_ranges 000002b8  00000000  00000000  0000a2f6  2**0
                  CONTENTS, READONLY, DEBUGGING

Disassembly of section .text:

00000000 <__vectors>:
       0:	0c 94 b4 01 	jmp	0x368	; 0x368 <__ctors_end>
       4:	0c 94 d1 01 	jmp	0x3a2	; 0x3a2 <__bad_interrupt>
       8:	0c 94 95 03 	jmp	0x72a	; 0x72a <__vector_2>
       c:	0c 94 d1 01 	jmp	0x3a2	; 0x3a2 <__bad_interrupt>
      10:	0c 94 d1 01 	jmp	0x3a2	; 0x3a2 <__bad_interrupt>
      14:	0c 94 d1 01 	jmp	0x3a2	; 0x3a2 <__bad_interrupt>
      18:	0c 94 d1 01 	jmp	0x3a2	; 0x3a2 <__bad_interrupt>
      1c:	0c 94 d1 01 	jmp	0x3a2	; 0x3a2 <__bad_interrupt>
      20:	0c 94 d1 01 	jmp	0x3a2	; 0x3a2 <__bad_interrupt>
      24:	0c 94 d1 01 	jmp	0x3a2	; 0x3a2 <__bad_interrupt>
      28:	0c 94 d1 01 	jmp	0x3a2	; 0x3a2 <__bad_interrupt>
      2c:	0c 94 d1 01 	jmp	0x3a2	; 0x3a2 <__bad_interrupt>
      30:	0c 94 d1 01 	jmp	0x3a2	; 0x3a2 <__bad_interrupt>
      34:	0c 94 d1 01 	jmp	0x3a2	; 0x3a2 <__bad_interrupt>
      38:	0c 94 d1 01 	jmp	0x3a2	; 0x3a2 <__bad_interrupt>
      3c:	0c 94 d1 01 	jmp	0x3a2	; 0x3a2 <__bad_interrupt>
      40:	0c 94 d1 01 	jmp	0x3a2	; 0x3a2 <__bad_interrupt>
      44:	0c 94 d1 01 	jmp	0x3a2	; 0x3a2 <__bad_interrupt>
      48:	0c 94 d1 01 	jmp	0x3a2	; 0x3a2 <__bad_interrupt>
      4c:	0c 94 d1 01 	jmp	0x3a2	; 0x3a2 <__bad_interrupt>
      50:	0c 94 d1 01 	jmp	0x3a2	; 0x3a2 <__bad_interrupt>
      54:	0c 94 d1 01 	jmp	0x3a2	; 0x3a2 <__bad_interrupt>
      58:	0c 94 d1 01 	jmp	0x3a2	; 0x3a2 <__bad_interrupt>
      5c:	0c 94 d1 01 	jmp	0x3a2	; 0x3a2 <__bad_interrupt>
      60:	0c 94 d1 01 	jmp	0x3a2	; 0x3a2 <__bad_interrupt>
      64:	0c 94 d1 01 	jmp	0x3a2	; 0x3a2 <__bad_interrupt>
      68:	0c 94 d1 01 	jmp	0x3a2	; 0x3a2 <__bad_interrupt>
      6c:	0c 94 d1 01 	jmp	0x3a2	; 0x3a2 <__bad_interrupt>

00000070 <__trampolines_end>:
	...
      78:	00 06       	cpc	r0, r16
      7a:	5f 5f       	subi	r21, 0xFF	; 255
      7c:	06 00       	.word	0x0006	; ????
      7e:	00 00       	nop
      80:	00 07       	cpc	r16, r16
      82:	07 00       	.word	0x0007	; ????
      84:	07 07       	cpc	r16, r23
      86:	00 00       	nop
      88:	14 7f       	andi	r17, 0xF4	; 244
      8a:	7f 14       	cp	r7, r15
      8c:	7f 7f       	andi	r23, 0xFF	; 255
      8e:	14 00       	.word	0x0014	; ????
      90:	24 2e       	mov	r2, r20
      92:	6b 6b       	ori	r22, 0xBB	; 187
      94:	3a 12       	cpse	r3, r26
      96:	00 00       	nop
      98:	46 66       	ori	r20, 0x66	; 102
      9a:	30 18       	sub	r3, r0
      9c:	0c 66       	ori	r16, 0x6C	; 108
      9e:	62 00       	.word	0x0062	; ????
      a0:	30 7a       	andi	r19, 0xA0	; 160
      a2:	4f 5d       	subi	r20, 0xDF	; 223
      a4:	37 7a       	andi	r19, 0xA7	; 167
      a6:	48 00       	.word	0x0048	; ????
      a8:	04 07       	cpc	r16, r20
      aa:	03 00       	.word	0x0003	; ????
      ac:	00 00       	nop
      ae:	00 00       	nop
      b0:	00 1c       	adc	r0, r0
      b2:	3e 63       	ori	r19, 0x3E	; 62
      b4:	41 00       	.word	0x0041	; ????
      b6:	00 00       	nop
      b8:	00 41       	sbci	r16, 0x10	; 16
      ba:	63 3e       	cpi	r22, 0xE3	; 227
      bc:	1c 00       	.word	0x001c	; ????
      be:	00 00       	nop
      c0:	08 2a       	or	r0, r24
      c2:	3e 1c       	adc	r3, r14
      c4:	1c 3e       	cpi	r17, 0xEC	; 236
      c6:	2a 08       	sbc	r2, r10
      c8:	08 08       	sbc	r0, r8
      ca:	3e 3e       	cpi	r19, 0xEE	; 238
      cc:	08 08       	sbc	r0, r8
      ce:	00 00       	nop
      d0:	00 a0       	ldd	r0, Z+32	; 0x20
      d2:	e0 60       	ori	r30, 0x00	; 0
      d4:	00 00       	nop
      d6:	00 00       	nop
      d8:	08 08       	sbc	r0, r8
      da:	08 08       	sbc	r0, r8
      dc:	08 08       	sbc	r0, r8
      de:	00 00       	nop
      e0:	00 00       	nop
      e2:	60 60       	ori	r22, 0x00	; 0
      e4:	00 00       	nop
      e6:	00 00       	nop
      e8:	60 30       	cpi	r22, 0x00	; 0
      ea:	18 0c       	add	r1, r8
      ec:	06 03       	mulsu	r16, r22
      ee:	01 00       	.word	0x0001	; ????
      f0:	3e 7f       	andi	r19, 0xFE	; 254
      f2:	59 4d       	sbci	r21, 0xD9	; 217
      f4:	7f 3e       	cpi	r23, 0xEF	; 239
      f6:	00 00       	nop
      f8:	42 42       	sbci	r20, 0x22	; 34
      fa:	7f 7f       	andi	r23, 0xFF	; 255
      fc:	40 40       	sbci	r20, 0x00	; 0
      fe:	00 00       	nop
     100:	62 73       	andi	r22, 0x32	; 50
     102:	59 49       	sbci	r21, 0x99	; 153
     104:	6f 66       	ori	r22, 0x6F	; 111
     106:	00 00       	nop
     108:	22 63       	ori	r18, 0x32	; 50
     10a:	49 49       	sbci	r20, 0x99	; 153
     10c:	7f 36       	cpi	r23, 0x6F	; 111
     10e:	00 00       	nop
     110:	18 1c       	adc	r1, r8
     112:	16 13       	cpse	r17, r22
     114:	7f 7f       	andi	r23, 0xFF	; 255
     116:	10 00       	.word	0x0010	; ????
     118:	27 67       	ori	r18, 0x77	; 119
     11a:	45 45       	sbci	r20, 0x55	; 85
     11c:	7d 39       	cpi	r23, 0x9D	; 157
     11e:	00 00       	nop
     120:	3c 7e       	andi	r19, 0xEC	; 236
     122:	4b 49       	sbci	r20, 0x9B	; 155
     124:	79 30       	cpi	r23, 0x09	; 9
     126:	00 00       	nop
     128:	03 63       	ori	r16, 0x33	; 51
     12a:	71 19       	sub	r23, r1
     12c:	0f 07       	cpc	r16, r31
     12e:	00 00       	nop
     130:	36 7f       	andi	r19, 0xF6	; 246
     132:	49 49       	sbci	r20, 0x99	; 153
     134:	7f 36       	cpi	r23, 0x6F	; 111
     136:	00 00       	nop
     138:	06 4f       	sbci	r16, 0xF6	; 246
     13a:	49 69       	ori	r20, 0x99	; 153
     13c:	3f 1e       	adc	r3, r31
     13e:	00 00       	nop
     140:	00 00       	nop
     142:	6c 6c       	ori	r22, 0xCC	; 204
     144:	00 00       	nop
     146:	00 00       	nop
     148:	00 a0       	ldd	r0, Z+32	; 0x20
     14a:	ec 6c       	ori	r30, 0xCC	; 204
     14c:	00 00       	nop
     14e:	00 00       	nop
     150:	08 1c       	adc	r0, r8
     152:	36 63       	ori	r19, 0x36	; 54
     154:	41 00       	.word	0x0041	; ????
     156:	00 00       	nop
     158:	14 14       	cp	r1, r4
     15a:	14 14       	cp	r1, r4
     15c:	14 14       	cp	r1, r4
     15e:	00 00       	nop
     160:	00 41       	sbci	r16, 0x10	; 16
     162:	63 36       	cpi	r22, 0x63	; 99
     164:	1c 08       	sbc	r1, r12
     166:	00 00       	nop
     168:	02 03       	mulsu	r16, r18
     16a:	51 59       	subi	r21, 0x91	; 145
     16c:	0f 06       	cpc	r0, r31
     16e:	00 00       	nop
     170:	3e 7f       	andi	r19, 0xFE	; 254
     172:	41 5d       	subi	r20, 0xD1	; 209
     174:	5d 1f       	adc	r21, r29
     176:	1e 00       	.word	0x001e	; ????
     178:	7c 7e       	andi	r23, 0xEC	; 236
     17a:	13 13       	cpse	r17, r19
     17c:	7e 7c       	andi	r23, 0xCE	; 206
     17e:	00 00       	nop
     180:	41 7f       	andi	r20, 0xF1	; 241
     182:	7f 49       	sbci	r23, 0x9F	; 159
     184:	49 7f       	andi	r20, 0xF9	; 249
     186:	36 00       	.word	0x0036	; ????
     188:	1c 3e       	cpi	r17, 0xEC	; 236
     18a:	63 41       	sbci	r22, 0x13	; 19
     18c:	41 63       	ori	r20, 0x31	; 49
     18e:	22 00       	.word	0x0022	; ????
     190:	41 7f       	andi	r20, 0xF1	; 241
     192:	7f 41       	sbci	r23, 0x1F	; 31
     194:	63 7f       	andi	r22, 0xF3	; 243
     196:	1c 00       	.word	0x001c	; ????
     198:	41 7f       	andi	r20, 0xF1	; 241
     19a:	7f 49       	sbci	r23, 0x9F	; 159
     19c:	5d 41       	sbci	r21, 0x1D	; 29
     19e:	63 00       	.word	0x0063	; ????
     1a0:	41 7f       	andi	r20, 0xF1	; 241
     1a2:	7f 49       	sbci	r23, 0x9F	; 159
     1a4:	1d 01       	movw	r2, r26
     1a6:	03 00       	.word	0x0003	; ????
     1a8:	1c 3e       	cpi	r17, 0xEC	; 236
     1aa:	63 41       	sbci	r22, 0x13	; 19
     1ac:	51 73       	andi	r21, 0x31	; 49
     1ae:	72 00       	.word	0x0072	; ????
     1b0:	7f 7f       	andi	r23, 0xFF	; 255
     1b2:	08 08       	sbc	r0, r8
     1b4:	7f 7f       	andi	r23, 0xFF	; 255
     1b6:	00 00       	nop
     1b8:	00 41       	sbci	r16, 0x10	; 16
     1ba:	7f 7f       	andi	r23, 0xFF	; 255
     1bc:	41 00       	.word	0x0041	; ????
     1be:	00 00       	nop
     1c0:	30 70       	andi	r19, 0x00	; 0
     1c2:	40 41       	sbci	r20, 0x10	; 16
     1c4:	7f 3f       	cpi	r23, 0xFF	; 255
     1c6:	01 00       	.word	0x0001	; ????
     1c8:	41 7f       	andi	r20, 0xF1	; 241
     1ca:	7f 08       	sbc	r7, r15
     1cc:	1c 77       	andi	r17, 0x7C	; 124
     1ce:	63 00       	.word	0x0063	; ????
     1d0:	41 7f       	andi	r20, 0xF1	; 241
     1d2:	7f 41       	sbci	r23, 0x1F	; 31
     1d4:	40 60       	ori	r20, 0x00	; 0
     1d6:	70 00       	.word	0x0070	; ????
     1d8:	7f 7f       	andi	r23, 0xFF	; 255
     1da:	06 0c       	add	r0, r6
     1dc:	06 7f       	andi	r16, 0xF6	; 246
     1de:	7f 00       	.word	0x007f	; ????
     1e0:	7f 7f       	andi	r23, 0xFF	; 255
     1e2:	06 0c       	add	r0, r6
     1e4:	18 7f       	andi	r17, 0xF8	; 248
     1e6:	7f 00       	.word	0x007f	; ????
     1e8:	1c 3e       	cpi	r17, 0xEC	; 236
     1ea:	63 41       	sbci	r22, 0x13	; 19
     1ec:	63 3e       	cpi	r22, 0xE3	; 227
     1ee:	1c 00       	.word	0x001c	; ????
     1f0:	41 7f       	andi	r20, 0xF1	; 241
     1f2:	7f 49       	sbci	r23, 0x9F	; 159
     1f4:	09 0f       	add	r16, r25
     1f6:	06 00       	.word	0x0006	; ????
     1f8:	1e 3f       	cpi	r17, 0xFE	; 254
     1fa:	21 71       	andi	r18, 0x11	; 17
     1fc:	7f 5e       	subi	r23, 0xEF	; 239
     1fe:	00 00       	nop
     200:	41 7f       	andi	r20, 0xF1	; 241
     202:	7f 19       	sub	r23, r15
     204:	39 6f       	ori	r19, 0xF9	; 249
     206:	46 00       	.word	0x0046	; ????
     208:	26 67       	ori	r18, 0x76	; 118
     20a:	4d 59       	subi	r20, 0x9D	; 157
     20c:	7b 32       	cpi	r23, 0x2B	; 43
     20e:	00 00       	nop
     210:	03 41       	sbci	r16, 0x13	; 19
     212:	7f 7f       	andi	r23, 0xFF	; 255
     214:	41 03       	mulsu	r20, r17
     216:	00 00       	nop
     218:	7f 7f       	andi	r23, 0xFF	; 255
     21a:	40 40       	sbci	r20, 0x00	; 0
     21c:	7f 7f       	andi	r23, 0xFF	; 255
     21e:	00 00       	nop
     220:	1f 3f       	cpi	r17, 0xFF	; 255
     222:	60 60       	ori	r22, 0x00	; 0
     224:	3f 1f       	adc	r19, r31
     226:	00 00       	nop
     228:	7f 7f       	andi	r23, 0xFF	; 255
     22a:	30 18       	sub	r3, r0
     22c:	30 7f       	andi	r19, 0xF0	; 240
     22e:	7f 00       	.word	0x007f	; ????
     230:	63 77       	andi	r22, 0x73	; 115
     232:	1c 08       	sbc	r1, r12
     234:	1c 77       	andi	r17, 0x7C	; 124
     236:	63 00       	.word	0x0063	; ????
     238:	07 4f       	sbci	r16, 0xF7	; 247
     23a:	78 78       	andi	r23, 0x88	; 136
     23c:	4f 07       	cpc	r20, r31
     23e:	00 00       	nop
     240:	67 73       	andi	r22, 0x37	; 55
     242:	59 4d       	sbci	r21, 0xD9	; 217
     244:	47 63       	ori	r20, 0x37	; 55
     246:	71 00       	.word	0x0071	; ????
     248:	00 7f       	andi	r16, 0xF0	; 240
     24a:	7f 41       	sbci	r23, 0x1F	; 31
     24c:	41 00       	.word	0x0041	; ????
     24e:	00 00       	nop
     250:	01 03       	mulsu	r16, r17
     252:	06 0c       	add	r0, r6
     254:	18 30       	cpi	r17, 0x08	; 8
     256:	60 00       	.word	0x0060	; ????
     258:	00 41       	sbci	r16, 0x10	; 16
     25a:	41 7f       	andi	r20, 0xF1	; 241
     25c:	7f 00       	.word	0x007f	; ????
     25e:	00 00       	nop
     260:	08 0c       	add	r0, r8
     262:	06 03       	mulsu	r16, r22
     264:	06 0c       	add	r0, r6
     266:	08 00       	.word	0x0008	; ????
     268:	80 80       	ld	r8, Z
     26a:	80 80       	ld	r8, Z
     26c:	80 80       	ld	r8, Z
     26e:	80 80       	ld	r8, Z
     270:	00 00       	nop
     272:	03 07       	cpc	r16, r19
     274:	04 00       	.word	0x0004	; ????
     276:	00 00       	nop
     278:	20 74       	andi	r18, 0x40	; 64
     27a:	54 54       	subi	r21, 0x44	; 68
     27c:	3c 78       	andi	r19, 0x8C	; 140
     27e:	40 00       	.word	0x0040	; ????
     280:	41 3f       	cpi	r20, 0xF1	; 241
     282:	7f 44       	sbci	r23, 0x4F	; 79
     284:	44 7c       	andi	r20, 0xC4	; 196
     286:	38 00       	.word	0x0038	; ????
     288:	38 7c       	andi	r19, 0xC8	; 200
     28a:	44 44       	sbci	r20, 0x44	; 68
     28c:	6c 28       	or	r6, r12
     28e:	00 00       	nop
     290:	30 78       	andi	r19, 0x80	; 128
     292:	48 49       	sbci	r20, 0x98	; 152
     294:	3f 7f       	andi	r19, 0xFF	; 255
     296:	40 00       	.word	0x0040	; ????
     298:	38 7c       	andi	r19, 0xC8	; 200
     29a:	54 54       	subi	r21, 0x44	; 68
     29c:	5c 18       	sub	r5, r12
     29e:	00 00       	nop
     2a0:	48 7e       	andi	r20, 0xE8	; 232
     2a2:	7f 49       	sbci	r23, 0x9F	; 159
     2a4:	03 02       	muls	r16, r19
     2a6:	00 00       	nop
     2a8:	98 bc       	out	0x28, r9	; 40
     2aa:	a4 a4       	ldd	r10, Z+44	; 0x2c
     2ac:	f8 7c       	andi	r31, 0xC8	; 200
     2ae:	04 00       	.word	0x0004	; ????
     2b0:	41 7f       	andi	r20, 0xF1	; 241
     2b2:	7f 08       	sbc	r7, r15
     2b4:	04 7c       	andi	r16, 0xC4	; 196
     2b6:	78 00       	.word	0x0078	; ????
     2b8:	00 44       	sbci	r16, 0x40	; 64
     2ba:	7d 7d       	andi	r23, 0xDD	; 221
     2bc:	40 00       	.word	0x0040	; ????
     2be:	00 00       	nop
     2c0:	40 c4       	rjmp	.+2176   	; 0xb42 <joystick_get_y_percentage+0x42>
     2c2:	84 fd       	sbrc	r24, 4
     2c4:	7d 00       	.word	0x007d	; ????
     2c6:	00 00       	nop
     2c8:	41 7f       	andi	r20, 0xF1	; 241
     2ca:	7f 10       	cpse	r7, r15
     2cc:	38 6c       	ori	r19, 0xC8	; 200
     2ce:	44 00       	.word	0x0044	; ????
     2d0:	00 41       	sbci	r16, 0x10	; 16
     2d2:	7f 7f       	andi	r23, 0xFF	; 255
     2d4:	40 00       	.word	0x0040	; ????
     2d6:	00 00       	nop
     2d8:	7c 7c       	andi	r23, 0xCC	; 204
     2da:	0c 18       	sub	r0, r12
     2dc:	0c 7c       	andi	r16, 0xCC	; 204
     2de:	78 00       	.word	0x0078	; ????
     2e0:	7c 7c       	andi	r23, 0xCC	; 204
     2e2:	04 04       	cpc	r0, r4
     2e4:	7c 78       	andi	r23, 0x8C	; 140
     2e6:	00 00       	nop
     2e8:	38 7c       	andi	r19, 0xC8	; 200
     2ea:	44 44       	sbci	r20, 0x44	; 68
     2ec:	7c 38       	cpi	r23, 0x8C	; 140
     2ee:	00 00       	nop
     2f0:	84 fc       	sbrc	r8, 4
     2f2:	f8 a4       	ldd	r15, Y+40	; 0x28
     2f4:	24 3c       	cpi	r18, 0xC4	; 196
     2f6:	18 00       	.word	0x0018	; ????
     2f8:	18 3c       	cpi	r17, 0xC8	; 200
     2fa:	24 a4       	ldd	r2, Z+44	; 0x2c
     2fc:	f8 fc       	.word	0xfcf8	; ????
     2fe:	84 00       	.word	0x0084	; ????
     300:	44 7c       	andi	r20, 0xC4	; 196
     302:	78 44       	sbci	r23, 0x48	; 72
     304:	1c 18       	sub	r1, r12
     306:	00 00       	nop
     308:	48 5c       	subi	r20, 0xC8	; 200
     30a:	54 54       	subi	r21, 0x44	; 68
     30c:	74 24       	eor	r7, r4
     30e:	00 00       	nop
     310:	00 04       	cpc	r0, r0
     312:	3e 7f       	andi	r19, 0xFE	; 254
     314:	44 24       	eor	r4, r4
     316:	00 00       	nop
     318:	3c 7c       	andi	r19, 0xCC	; 204
     31a:	40 40       	sbci	r20, 0x00	; 0
     31c:	3c 7c       	andi	r19, 0xCC	; 204
     31e:	40 00       	.word	0x0040	; ????
     320:	1c 3c       	cpi	r17, 0xCC	; 204
     322:	60 60       	ori	r22, 0x00	; 0
     324:	3c 1c       	adc	r3, r12
     326:	00 00       	nop
     328:	3c 7c       	andi	r19, 0xCC	; 204
     32a:	60 30       	cpi	r22, 0x00	; 0
     32c:	60 7c       	andi	r22, 0xC0	; 192
     32e:	3c 00       	.word	0x003c	; ????
     330:	44 6c       	ori	r20, 0xC4	; 196
     332:	38 10       	cpse	r3, r8
     334:	38 6c       	ori	r19, 0xC8	; 200
     336:	44 00       	.word	0x0044	; ????
     338:	9c bc       	out	0x2c, r9	; 44
     33a:	a0 a0       	ldd	r10, Z+32	; 0x20
     33c:	fc 7c       	andi	r31, 0xCC	; 204
     33e:	00 00       	nop
     340:	4c 64       	ori	r20, 0x4C	; 76
     342:	74 5c       	subi	r23, 0xC4	; 196
     344:	4c 64       	ori	r20, 0x4C	; 76
     346:	00 00       	nop
     348:	08 08       	sbc	r0, r8
     34a:	3e 77       	andi	r19, 0x7E	; 126
     34c:	41 41       	sbci	r20, 0x11	; 17
     34e:	00 00       	nop
     350:	00 00       	nop
     352:	00 77       	andi	r16, 0x70	; 112
     354:	77 00       	.word	0x0077	; ????
     356:	00 00       	nop
     358:	41 41       	sbci	r20, 0x11	; 17
     35a:	77 3e       	cpi	r23, 0xE7	; 231
     35c:	08 08       	sbc	r0, r8
     35e:	00 00       	nop
     360:	02 03       	mulsu	r16, r18
     362:	01 03       	mulsu	r16, r17
     364:	02 03       	mulsu	r16, r18
     366:	01 00       	.word	0x0001	; ????

00000368 <__ctors_end>:
     368:	11 24       	eor	r1, r1
     36a:	1f be       	out	0x3f, r1	; 63
     36c:	cf ef       	ldi	r28, 0xFF	; 255
     36e:	d4 e0       	ldi	r29, 0x04	; 4
     370:	de bf       	out	0x3e, r29	; 62
     372:	cd bf       	out	0x3d, r28	; 61

00000374 <__do_copy_data>:
     374:	13 e0       	ldi	r17, 0x03	; 3
     376:	a0 e0       	ldi	r26, 0x00	; 0
     378:	b1 e0       	ldi	r27, 0x01	; 1
     37a:	ea eb       	ldi	r30, 0xBA	; 186
     37c:	f5 e3       	ldi	r31, 0x35	; 53
     37e:	02 c0       	rjmp	.+4      	; 0x384 <__do_copy_data+0x10>
     380:	05 90       	lpm	r0, Z+
     382:	0d 92       	st	X+, r0
     384:	ac 39       	cpi	r26, 0x9C	; 156
     386:	b1 07       	cpc	r27, r17
     388:	d9 f7       	brne	.-10     	; 0x380 <__do_copy_data+0xc>

0000038a <__do_clear_bss>:
     38a:	24 e0       	ldi	r18, 0x04	; 4
     38c:	ac e9       	ldi	r26, 0x9C	; 156
     38e:	b3 e0       	ldi	r27, 0x03	; 3
     390:	01 c0       	rjmp	.+2      	; 0x394 <.do_clear_bss_start>

00000392 <.do_clear_bss_loop>:
     392:	1d 92       	st	X+, r1

00000394 <.do_clear_bss_start>:
     394:	a8 32       	cpi	r26, 0x28	; 40
     396:	b2 07       	cpc	r27, r18
     398:	e1 f7       	brne	.-8      	; 0x392 <.do_clear_bss_loop>
     39a:	0e 94 f1 05 	call	0xbe2	; 0xbe2 <main>
     39e:	0c 94 db 1a 	jmp	0x35b6	; 0x35b6 <_exit>

000003a2 <__bad_interrupt>:
     3a2:	0c 94 00 00 	jmp	0	; 0x0 <__vectors>

000003a6 <setup_ADC>:
#include "setup.h"
#include "ADC.h"


void setup_ADC()
{
     3a6:	cf 93       	push	r28
     3a8:	df 93       	push	r29
     3aa:	cd b7       	in	r28, 0x3d	; 61
     3ac:	de b7       	in	r29, 0x3e	; 62
	// Sett PD2 som input (INT0)
	clear_bit(DDRD,PD2);
     3ae:	81 e3       	ldi	r24, 0x31	; 49
     3b0:	90 e0       	ldi	r25, 0x00	; 0
     3b2:	21 e3       	ldi	r18, 0x31	; 49
     3b4:	30 e0       	ldi	r19, 0x00	; 0
     3b6:	f9 01       	movw	r30, r18
     3b8:	20 81       	ld	r18, Z
     3ba:	2b 7f       	andi	r18, 0xFB	; 251
     3bc:	fc 01       	movw	r30, r24
     3be:	20 83       	st	Z, r18
	// Interrupt på fallende flanke INT0
	//set_bit(MCUCR,ISC01);
	//clear_bit(MCUCR,ISC00);

	//sei(); // enable global interrupt	
}
     3c0:	df 91       	pop	r29
     3c2:	cf 91       	pop	r28
     3c4:	08 95       	ret

000003c6 <read_ADC>:
	int x = 0x04 | channel;
	address[0] = x; // ch1 = 3, ch2 = 4....
}

uint8_t read_ADC(uint8_t channel)
{
     3c6:	cf 93       	push	r28
     3c8:	df 93       	push	r29
     3ca:	00 d0       	rcall	.+0      	; 0x3cc <read_ADC+0x6>
     3cc:	00 d0       	rcall	.+0      	; 0x3ce <read_ADC+0x8>
     3ce:	1f 92       	push	r1
     3d0:	cd b7       	in	r28, 0x3d	; 61
     3d2:	de b7       	in	r29, 0x3e	; 62
     3d4:	8d 83       	std	Y+5, r24	; 0x05
	volatile char *address = (char *) 0x1400; // ADC address space 0x1400 ->
     3d6:	80 e0       	ldi	r24, 0x00	; 0
     3d8:	94 e1       	ldi	r25, 0x14	; 20
     3da:	9a 83       	std	Y+2, r25	; 0x02
     3dc:	89 83       	std	Y+1, r24	; 0x01
	
	if(channel > 3) return 0; // invalid channel
     3de:	8d 81       	ldd	r24, Y+5	; 0x05
     3e0:	84 30       	cpi	r24, 0x04	; 4
     3e2:	10 f0       	brcs	.+4      	; 0x3e8 <read_ADC+0x22>
     3e4:	80 e0       	ldi	r24, 0x00	; 0
     3e6:	1e c0       	rjmp	.+60     	; 0x424 <read_ADC+0x5e>
	int x = 0x04 | channel;
     3e8:	8d 81       	ldd	r24, Y+5	; 0x05
     3ea:	84 60       	ori	r24, 0x04	; 4
     3ec:	88 2f       	mov	r24, r24
     3ee:	90 e0       	ldi	r25, 0x00	; 0
     3f0:	9c 83       	std	Y+4, r25	; 0x04
     3f2:	8b 83       	std	Y+3, r24	; 0x03
	address[0] = x; // ch1 = 3, ch2 = 4....
     3f4:	2b 81       	ldd	r18, Y+3	; 0x03
     3f6:	89 81       	ldd	r24, Y+1	; 0x01
     3f8:	9a 81       	ldd	r25, Y+2	; 0x02
     3fa:	fc 01       	movw	r30, r24
     3fc:	20 83       	st	Z, r18
	loop_until_bit_is_clear(PIND,PIND2); // Busy wait...
     3fe:	00 00       	nop
     400:	80 e3       	ldi	r24, 0x30	; 48
     402:	90 e0       	ldi	r25, 0x00	; 0
     404:	fc 01       	movw	r30, r24
     406:	80 81       	ld	r24, Z
     408:	88 2f       	mov	r24, r24
     40a:	90 e0       	ldi	r25, 0x00	; 0
     40c:	84 70       	andi	r24, 0x04	; 4
     40e:	99 27       	eor	r25, r25
     410:	00 97       	sbiw	r24, 0x00	; 0
     412:	b1 f7       	brne	.-20     	; 0x400 <read_ADC+0x3a>
	return address[x];
     414:	8b 81       	ldd	r24, Y+3	; 0x03
     416:	9c 81       	ldd	r25, Y+4	; 0x04
     418:	29 81       	ldd	r18, Y+1	; 0x01
     41a:	3a 81       	ldd	r19, Y+2	; 0x02
     41c:	82 0f       	add	r24, r18
     41e:	93 1f       	adc	r25, r19
     420:	fc 01       	movw	r30, r24
     422:	80 81       	ld	r24, Z
	
}
     424:	0f 90       	pop	r0
     426:	0f 90       	pop	r0
     428:	0f 90       	pop	r0
     42a:	0f 90       	pop	r0
     42c:	0f 90       	pop	r0
     42e:	df 91       	pop	r29
     430:	cf 91       	pop	r28
     432:	08 95       	ret

00000434 <can_init>:
uint8_t message_received = FALSE;
uint8_t transmit_complete = FALSE;
uint8_t number_of_tries;
uint8_t allowed_tries = 5;

uint8_t can_init(){
     434:	cf 93       	push	r28
     436:	df 93       	push	r29
     438:	cd b7       	in	r28, 0x3d	; 61
     43a:	de b7       	in	r29, 0x3e	; 62
	mcp_2515_init();
     43c:	0e 94 8f 09 	call	0x131e	; 0x131e <mcp_2515_init>
	

	// Mask/filter off, no rollover in receive buffer
	mcp_2515_bit_modify(MCP_RXB0CTRL, 0x64, 0x60);
     440:	40 e6       	ldi	r20, 0x60	; 96
     442:	64 e6       	ldi	r22, 0x64	; 100
     444:	80 e6       	ldi	r24, 0x60	; 96
     446:	0e 94 9d 0a 	call	0x153a	; 0x153a <mcp_2515_bit_modify>
	
	// Interrupt enable when receive buffer 0 is full
	mcp_2515_bit_modify(MCP_CANINTE,0xFF,MCP_RX0IF);
     44a:	41 e0       	ldi	r20, 0x01	; 1
     44c:	6f ef       	ldi	r22, 0xFF	; 255
     44e:	8b e2       	ldi	r24, 0x2B	; 43
     450:	0e 94 9d 0a 	call	0x153a	; 0x153a <mcp_2515_bit_modify>
	
	// Enable interrupt on INT1
	set_bit(GICR,INT1);
     454:	8b e5       	ldi	r24, 0x5B	; 91
     456:	90 e0       	ldi	r25, 0x00	; 0
     458:	2b e5       	ldi	r18, 0x5B	; 91
     45a:	30 e0       	ldi	r19, 0x00	; 0
     45c:	f9 01       	movw	r30, r18
     45e:	20 81       	ld	r18, Z
     460:	20 68       	ori	r18, 0x80	; 128
     462:	fc 01       	movw	r30, r24
     464:	20 83       	st	Z, r18
	// Interrupt on falling edge INT1
	set_bit(MCUCR,ISC11);
     466:	85 e5       	ldi	r24, 0x55	; 85
     468:	90 e0       	ldi	r25, 0x00	; 0
     46a:	25 e5       	ldi	r18, 0x55	; 85
     46c:	30 e0       	ldi	r19, 0x00	; 0
     46e:	f9 01       	movw	r30, r18
     470:	20 81       	ld	r18, Z
     472:	28 60       	ori	r18, 0x08	; 8
     474:	fc 01       	movw	r30, r24
     476:	20 83       	st	Z, r18
	clear_bit(MCUCR,ISC10);
     478:	85 e5       	ldi	r24, 0x55	; 85
     47a:	90 e0       	ldi	r25, 0x00	; 0
     47c:	25 e5       	ldi	r18, 0x55	; 85
     47e:	30 e0       	ldi	r19, 0x00	; 0
     480:	f9 01       	movw	r30, r18
     482:	20 81       	ld	r18, Z
     484:	2b 7f       	andi	r18, 0xFB	; 251
     486:	fc 01       	movw	r30, r24
     488:	20 83       	st	Z, r18
	
	// Enable global interrupts
	sei();
     48a:	78 94       	sei
	return 0;
     48c:	80 e0       	ldi	r24, 0x00	; 0

}
     48e:	df 91       	pop	r29
     490:	cf 91       	pop	r28
     492:	08 95       	ret

00000494 <CAN_enable_normal_mode>:
uint8_t CAN_enable_loopback() {
	return mcp_2515_enable_loopback();
}

// Enable normal operation for transmission between node 1 and node 2
uint8_t CAN_enable_normal_mode() {
     494:	cf 93       	push	r28
     496:	df 93       	push	r29
     498:	cd b7       	in	r28, 0x3d	; 61
     49a:	de b7       	in	r29, 0x3e	; 62
	return mcp_2515_enable_normal_operation();
     49c:	0e 94 3e 0a 	call	0x147c	; 0x147c <mcp_2515_enable_normal_operation>
}
     4a0:	df 91       	pop	r29
     4a2:	cf 91       	pop	r28
     4a4:	08 95       	ret

000004a6 <can_send_message>:
/************************************************************************/
/* BUILD AND SEND CAN MESSAGE                                                                     */
/************************************************************************/
uint8_t can_send_message(can_message *can_message){
     4a6:	cf 93       	push	r28
     4a8:	df 93       	push	r29
     4aa:	cd b7       	in	r28, 0x3d	; 61
     4ac:	de b7       	in	r29, 0x3e	; 62
     4ae:	27 97       	sbiw	r28, 0x07	; 7
     4b0:	0f b6       	in	r0, 0x3f	; 63
     4b2:	f8 94       	cli
     4b4:	de bf       	out	0x3e, r29	; 62
     4b6:	0f be       	out	0x3f, r0	; 63
     4b8:	cd bf       	out	0x3d, r28	; 61
     4ba:	9f 83       	std	Y+7, r25	; 0x07
     4bc:	8e 83       	std	Y+6, r24	; 0x06
	// Check if previous message was sent
	if (can_transmit_complete()) {
     4be:	0e 94 68 03 	call	0x6d0	; 0x6d0 <can_transmit_complete>
     4c2:	88 23       	and	r24, r24
     4c4:	09 f4       	brne	.+2      	; 0x4c8 <can_send_message+0x22>
     4c6:	43 c0       	rjmp	.+134    	; 0x54e <__stack+0x4f>
		unsigned int id= can_message->ID;
     4c8:	8e 81       	ldd	r24, Y+6	; 0x06
     4ca:	9f 81       	ldd	r25, Y+7	; 0x07
     4cc:	fc 01       	movw	r30, r24
     4ce:	80 81       	ld	r24, Z
     4d0:	91 81       	ldd	r25, Z+1	; 0x01
     4d2:	9b 83       	std	Y+3, r25	; 0x03
     4d4:	8a 83       	std	Y+2, r24	; 0x02

		
		uint8_t low_ID = id & 0xFF;
     4d6:	8a 81       	ldd	r24, Y+2	; 0x02
     4d8:	8c 83       	std	Y+4, r24	; 0x04
		low_ID = (low_ID << 5); 
     4da:	8c 81       	ldd	r24, Y+4	; 0x04
     4dc:	82 95       	swap	r24
     4de:	88 0f       	add	r24, r24
     4e0:	80 7e       	andi	r24, 0xE0	; 224
     4e2:	8c 83       	std	Y+4, r24	; 0x04
		// Standard frame, mask out lowest five bits of low_ID
		uint8_t high_ID = (id >> 8);
     4e4:	8a 81       	ldd	r24, Y+2	; 0x02
     4e6:	9b 81       	ldd	r25, Y+3	; 0x03
     4e8:	89 2f       	mov	r24, r25
     4ea:	99 27       	eor	r25, r25
     4ec:	8d 83       	std	Y+5, r24	; 0x05
		
		//writes the ID to the ID High and ID LOW
		mcp_2515_write(MCP_TXB0SIDH, high_ID);
     4ee:	6d 81       	ldd	r22, Y+5	; 0x05
     4f0:	81 e3       	ldi	r24, 0x31	; 49
     4f2:	0e 94 73 0a 	call	0x14e6	; 0x14e6 <mcp_2515_write>
		mcp_2515_write(MCP_TXB0SIDL, low_ID);
     4f6:	6c 81       	ldd	r22, Y+4	; 0x04
     4f8:	82 e3       	ldi	r24, 0x32	; 50
     4fa:	0e 94 73 0a 	call	0x14e6	; 0x14e6 <mcp_2515_write>
		
		mcp_2515_write(MCP_TXB0DLC, can_message->length);
     4fe:	8e 81       	ldd	r24, Y+6	; 0x06
     500:	9f 81       	ldd	r25, Y+7	; 0x07
     502:	fc 01       	movw	r30, r24
     504:	82 81       	ldd	r24, Z+2	; 0x02
     506:	68 2f       	mov	r22, r24
     508:	85 e3       	ldi	r24, 0x35	; 53
     50a:	0e 94 73 0a 	call	0x14e6	; 0x14e6 <mcp_2515_write>
		
		for(uint8_t i=0; i<can_message->length;i++){
     50e:	19 82       	std	Y+1, r1	; 0x01
     510:	12 c0       	rjmp	.+36     	; 0x536 <__stack+0x37>
			mcp_2515_write(MCP_TXB0D+i, can_message->data[i]);
     512:	89 81       	ldd	r24, Y+1	; 0x01
     514:	88 2f       	mov	r24, r24
     516:	90 e0       	ldi	r25, 0x00	; 0
     518:	2e 81       	ldd	r18, Y+6	; 0x06
     51a:	3f 81       	ldd	r19, Y+7	; 0x07
     51c:	82 0f       	add	r24, r18
     51e:	93 1f       	adc	r25, r19
     520:	03 96       	adiw	r24, 0x03	; 3
     522:	fc 01       	movw	r30, r24
     524:	90 81       	ld	r25, Z
     526:	89 81       	ldd	r24, Y+1	; 0x01
     528:	8a 5c       	subi	r24, 0xCA	; 202
     52a:	69 2f       	mov	r22, r25
     52c:	0e 94 73 0a 	call	0x14e6	; 0x14e6 <mcp_2515_write>
		mcp_2515_write(MCP_TXB0SIDH, high_ID);
		mcp_2515_write(MCP_TXB0SIDL, low_ID);
		
		mcp_2515_write(MCP_TXB0DLC, can_message->length);
		
		for(uint8_t i=0; i<can_message->length;i++){
     530:	89 81       	ldd	r24, Y+1	; 0x01
     532:	8f 5f       	subi	r24, 0xFF	; 255
     534:	89 83       	std	Y+1, r24	; 0x01
     536:	8e 81       	ldd	r24, Y+6	; 0x06
     538:	9f 81       	ldd	r25, Y+7	; 0x07
     53a:	fc 01       	movw	r30, r24
     53c:	92 81       	ldd	r25, Z+2	; 0x02
     53e:	89 81       	ldd	r24, Y+1	; 0x01
     540:	89 17       	cp	r24, r25
     542:	38 f3       	brcs	.-50     	; 0x512 <__stack+0x13>
			mcp_2515_write(MCP_TXB0D+i, can_message->data[i]);
		}
		
		mcp_2515_request_to_send(MCP_RTS_TX0);
     544:	81 e8       	ldi	r24, 0x81	; 129
     546:	0e 94 8c 0a 	call	0x1518	; 0x1518 <mcp_2515_request_to_send>
		return 1;
     54a:	81 e0       	ldi	r24, 0x01	; 1
     54c:	07 c0       	rjmp	.+14     	; 0x55c <__stack+0x5d>
	}
	
	else {
		if (can_error() > 0) {
     54e:	0e 94 30 03 	call	0x660	; 0x660 <can_error>
     552:	88 23       	and	r24, r24
     554:	11 f0       	breq	.+4      	; 0x55a <__stack+0x5b>
			return -1;
     556:	8f ef       	ldi	r24, 0xFF	; 255
     558:	01 c0       	rjmp	.+2      	; 0x55c <__stack+0x5d>
		}
	}

	return 0;
     55a:	80 e0       	ldi	r24, 0x00	; 0
}
     55c:	27 96       	adiw	r28, 0x07	; 7
     55e:	0f b6       	in	r0, 0x3f	; 63
     560:	f8 94       	cli
     562:	de bf       	out	0x3e, r29	; 62
     564:	0f be       	out	0x3f, r0	; 63
     566:	cd bf       	out	0x3d, r28	; 61
     568:	df 91       	pop	r29
     56a:	cf 91       	pop	r28
     56c:	08 95       	ret

0000056e <can_receive_message>:
/*************************************/
/* RECEIVE AND CONSTRUCT CAN MESSAGE */
/*************************************/

can_message* can_receive_message(can_message *the_message) {
     56e:	0f 93       	push	r16
     570:	1f 93       	push	r17
     572:	cf 93       	push	r28
     574:	df 93       	push	r29
     576:	00 d0       	rcall	.+0      	; 0x578 <can_receive_message+0xa>
     578:	00 d0       	rcall	.+0      	; 0x57a <can_receive_message+0xc>
     57a:	00 d0       	rcall	.+0      	; 0x57c <can_receive_message+0xe>
     57c:	cd b7       	in	r28, 0x3d	; 61
     57e:	de b7       	in	r29, 0x3e	; 62
     580:	9e 83       	std	Y+6, r25	; 0x06
     582:	8d 83       	std	Y+5, r24	; 0x05
	unsigned int id;
	// Check if received flag was set
	if(message_received > 0) {
     584:	80 91 9c 03 	lds	r24, 0x039C
     588:	88 23       	and	r24, r24
     58a:	09 f4       	brne	.+2      	; 0x58e <can_receive_message+0x20>
     58c:	4f c0       	rjmp	.+158    	; 0x62c <can_receive_message+0xbe>
		id = mcp_2515_read(MCP_RXB0SIDH) << 8 | mcp_2515_read(MCP_RXB0SIDL);
     58e:	81 e6       	ldi	r24, 0x61	; 97
     590:	0e 94 5a 0a 	call	0x14b4	; 0x14b4 <mcp_2515_read>
     594:	88 2f       	mov	r24, r24
     596:	90 e0       	ldi	r25, 0x00	; 0
     598:	18 2f       	mov	r17, r24
     59a:	00 27       	eor	r16, r16
     59c:	82 e6       	ldi	r24, 0x62	; 98
     59e:	0e 94 5a 0a 	call	0x14b4	; 0x14b4 <mcp_2515_read>
     5a2:	88 2f       	mov	r24, r24
     5a4:	90 e0       	ldi	r25, 0x00	; 0
     5a6:	80 2b       	or	r24, r16
     5a8:	91 2b       	or	r25, r17
     5aa:	9c 83       	std	Y+4, r25	; 0x04
     5ac:	8b 83       	std	Y+3, r24	; 0x03
		// Mask out lowest 5 bits (only used for extended frames)
		the_message->ID = (id >> 5);
     5ae:	8b 81       	ldd	r24, Y+3	; 0x03
     5b0:	9c 81       	ldd	r25, Y+4	; 0x04
     5b2:	9c 01       	movw	r18, r24
     5b4:	36 95       	lsr	r19
     5b6:	27 95       	ror	r18
     5b8:	32 95       	swap	r19
     5ba:	22 95       	swap	r18
     5bc:	2f 70       	andi	r18, 0x0F	; 15
     5be:	23 27       	eor	r18, r19
     5c0:	3f 70       	andi	r19, 0x0F	; 15
     5c2:	23 27       	eor	r18, r19
     5c4:	8d 81       	ldd	r24, Y+5	; 0x05
     5c6:	9e 81       	ldd	r25, Y+6	; 0x06
     5c8:	fc 01       	movw	r30, r24
     5ca:	31 83       	std	Z+1, r19	; 0x01
     5cc:	20 83       	st	Z, r18
		the_message->length = mcp_2515_read(MCP_RXB0DLC);
     5ce:	85 e6       	ldi	r24, 0x65	; 101
     5d0:	0e 94 5a 0a 	call	0x14b4	; 0x14b4 <mcp_2515_read>
     5d4:	28 2f       	mov	r18, r24
     5d6:	8d 81       	ldd	r24, Y+5	; 0x05
     5d8:	9e 81       	ldd	r25, Y+6	; 0x06
     5da:	fc 01       	movw	r30, r24
     5dc:	22 83       	std	Z+2, r18	; 0x02
		for(int i = 0; i < the_message->length; i++) {
     5de:	1a 82       	std	Y+2, r1	; 0x02
     5e0:	19 82       	std	Y+1, r1	; 0x01
     5e2:	13 c0       	rjmp	.+38     	; 0x60a <can_receive_message+0x9c>
			the_message->data[i] = mcp_2515_read(MCP_RXB0D+i);
     5e4:	89 81       	ldd	r24, Y+1	; 0x01
     5e6:	8a 59       	subi	r24, 0x9A	; 154
     5e8:	0e 94 5a 0a 	call	0x14b4	; 0x14b4 <mcp_2515_read>
     5ec:	48 2f       	mov	r20, r24
     5ee:	2d 81       	ldd	r18, Y+5	; 0x05
     5f0:	3e 81       	ldd	r19, Y+6	; 0x06
     5f2:	89 81       	ldd	r24, Y+1	; 0x01
     5f4:	9a 81       	ldd	r25, Y+2	; 0x02
     5f6:	82 0f       	add	r24, r18
     5f8:	93 1f       	adc	r25, r19
     5fa:	03 96       	adiw	r24, 0x03	; 3
     5fc:	fc 01       	movw	r30, r24
     5fe:	40 83       	st	Z, r20
	if(message_received > 0) {
		id = mcp_2515_read(MCP_RXB0SIDH) << 8 | mcp_2515_read(MCP_RXB0SIDL);
		// Mask out lowest 5 bits (only used for extended frames)
		the_message->ID = (id >> 5);
		the_message->length = mcp_2515_read(MCP_RXB0DLC);
		for(int i = 0; i < the_message->length; i++) {
     600:	89 81       	ldd	r24, Y+1	; 0x01
     602:	9a 81       	ldd	r25, Y+2	; 0x02
     604:	01 96       	adiw	r24, 0x01	; 1
     606:	9a 83       	std	Y+2, r25	; 0x02
     608:	89 83       	std	Y+1, r24	; 0x01
     60a:	8d 81       	ldd	r24, Y+5	; 0x05
     60c:	9e 81       	ldd	r25, Y+6	; 0x06
     60e:	fc 01       	movw	r30, r24
     610:	82 81       	ldd	r24, Z+2	; 0x02
     612:	28 2f       	mov	r18, r24
     614:	30 e0       	ldi	r19, 0x00	; 0
     616:	89 81       	ldd	r24, Y+1	; 0x01
     618:	9a 81       	ldd	r25, Y+2	; 0x02
     61a:	82 17       	cp	r24, r18
     61c:	93 07       	cpc	r25, r19
     61e:	14 f3       	brlt	.-60     	; 0x5e4 <can_receive_message+0x76>
			the_message->data[i] = mcp_2515_read(MCP_RXB0D+i);
		}
		
		message_received --;
     620:	80 91 9c 03 	lds	r24, 0x039C
     624:	81 50       	subi	r24, 0x01	; 1
     626:	80 93 9c 03 	sts	0x039C, r24
     62a:	04 c0       	rjmp	.+8      	; 0x634 <can_receive_message+0xc6>
	}
	else {
		// No message in the buffer
		the_message->length = 0;
     62c:	8d 81       	ldd	r24, Y+5	; 0x05
     62e:	9e 81       	ldd	r25, Y+6	; 0x06
     630:	fc 01       	movw	r30, r24
     632:	12 82       	std	Z+2, r1	; 0x02
	}
	return the_message;
     634:	8d 81       	ldd	r24, Y+5	; 0x05
     636:	9e 81       	ldd	r25, Y+6	; 0x06
	
}
     638:	26 96       	adiw	r28, 0x06	; 6
     63a:	0f b6       	in	r0, 0x3f	; 63
     63c:	f8 94       	cli
     63e:	de bf       	out	0x3e, r29	; 62
     640:	0f be       	out	0x3f, r0	; 63
     642:	cd bf       	out	0x3d, r28	; 61
     644:	df 91       	pop	r29
     646:	cf 91       	pop	r28
     648:	1f 91       	pop	r17
     64a:	0f 91       	pop	r16
     64c:	08 95       	ret

0000064e <can_data_received>:

// Check if there is a pending message in the receive buffer
uint8_t can_data_received(){
     64e:	cf 93       	push	r28
     650:	df 93       	push	r29
     652:	cd b7       	in	r28, 0x3d	; 61
     654:	de b7       	in	r29, 0x3e	; 62
	return message_received;
     656:	80 91 9c 03 	lds	r24, 0x039C
}
     65a:	df 91       	pop	r29
     65c:	cf 91       	pop	r28
     65e:	08 95       	ret

00000660 <can_error>:
// Check error flags in the transmit buffer control register TXB0CTRL
uint8_t can_error(){
     660:	cf 93       	push	r28
     662:	df 93       	push	r29
     664:	1f 92       	push	r1
     666:	cd b7       	in	r28, 0x3d	; 61
     668:	de b7       	in	r29, 0x3e	; 62
	uint8_t error_flags = mcp_2515_read(MCP_TXB0CTRL);
     66a:	80 e3       	ldi	r24, 0x30	; 48
     66c:	0e 94 5a 0a 	call	0x14b4	; 0x14b4 <mcp_2515_read>
     670:	89 83       	std	Y+1, r24	; 0x01
	if(test_bit(error_flags,5))
     672:	89 81       	ldd	r24, Y+1	; 0x01
     674:	88 2f       	mov	r24, r24
     676:	90 e0       	ldi	r25, 0x00	; 0
     678:	80 72       	andi	r24, 0x20	; 32
     67a:	99 27       	eor	r25, r25
     67c:	00 97       	sbiw	r24, 0x00	; 0
     67e:	31 f0       	breq	.+12     	; 0x68c <can_error+0x2c>
	{
		printf("Message lost arbitration\n");
     680:	83 e1       	ldi	r24, 0x13	; 19
     682:	91 e0       	ldi	r25, 0x01	; 1
     684:	0e 94 69 17 	call	0x2ed2	; 0x2ed2 <puts>
		return 1;
     688:	81 e0       	ldi	r24, 0x01	; 1
     68a:	1e c0       	rjmp	.+60     	; 0x6c8 <can_error+0x68>
	}
	if(test_bit(error_flags,4))
     68c:	89 81       	ldd	r24, Y+1	; 0x01
     68e:	88 2f       	mov	r24, r24
     690:	90 e0       	ldi	r25, 0x00	; 0
     692:	80 71       	andi	r24, 0x10	; 16
     694:	99 27       	eor	r25, r25
     696:	00 97       	sbiw	r24, 0x00	; 0
     698:	21 f0       	breq	.+8      	; 0x6a2 <can_error+0x42>
	{
		printf("Transmission error detected\n");
     69a:	8c e2       	ldi	r24, 0x2C	; 44
     69c:	91 e0       	ldi	r25, 0x01	; 1
     69e:	0e 94 69 17 	call	0x2ed2	; 0x2ed2 <puts>
	}
	if(test_bit(error_flags,6))
     6a2:	89 81       	ldd	r24, Y+1	; 0x01
     6a4:	88 2f       	mov	r24, r24
     6a6:	90 e0       	ldi	r25, 0x00	; 0
     6a8:	80 74       	andi	r24, 0x40	; 64
     6aa:	99 27       	eor	r25, r25
     6ac:	00 97       	sbiw	r24, 0x00	; 0
     6ae:	59 f0       	breq	.+22     	; 0x6c6 <can_error+0x66>
	{
		printf("Receive buffer overflow flag set\n");
     6b0:	88 e4       	ldi	r24, 0x48	; 72
     6b2:	91 e0       	ldi	r25, 0x01	; 1
     6b4:	0e 94 69 17 	call	0x2ed2	; 0x2ed2 <puts>
		// reset receivebuffer overflow flag
		mcp_2515_bit_modify(MCP_EFLG,0x40,0x40);
     6b8:	40 e4       	ldi	r20, 0x40	; 64
     6ba:	60 e4       	ldi	r22, 0x40	; 64
     6bc:	8d e2       	ldi	r24, 0x2D	; 45
     6be:	0e 94 9d 0a 	call	0x153a	; 0x153a <mcp_2515_bit_modify>
		return 3;
     6c2:	83 e0       	ldi	r24, 0x03	; 3
     6c4:	01 c0       	rjmp	.+2      	; 0x6c8 <can_error+0x68>
	}
	return FALSE;
     6c6:	80 e0       	ldi	r24, 0x00	; 0
}
     6c8:	0f 90       	pop	r0
     6ca:	df 91       	pop	r29
     6cc:	cf 91       	pop	r28
     6ce:	08 95       	ret

000006d0 <can_transmit_complete>:


uint8_t can_transmit_complete(){
     6d0:	cf 93       	push	r28
     6d2:	df 93       	push	r29
     6d4:	cd b7       	in	r28, 0x3d	; 61
     6d6:	de b7       	in	r29, 0x3e	; 62
	if (test_bit(mcp_2515_read(MCP_TXB0CTRL),3)) {
     6d8:	80 e3       	ldi	r24, 0x30	; 48
     6da:	0e 94 5a 0a 	call	0x14b4	; 0x14b4 <mcp_2515_read>
     6de:	88 2f       	mov	r24, r24
     6e0:	90 e0       	ldi	r25, 0x00	; 0
     6e2:	88 70       	andi	r24, 0x08	; 8
     6e4:	99 27       	eor	r25, r25
     6e6:	00 97       	sbiw	r24, 0x00	; 0
     6e8:	e1 f0       	breq	.+56     	; 0x722 <can_transmit_complete+0x52>
		printf("CAN transmit not complete\n");
     6ea:	89 e6       	ldi	r24, 0x69	; 105
     6ec:	91 e0       	ldi	r25, 0x01	; 1
     6ee:	0e 94 69 17 	call	0x2ed2	; 0x2ed2 <puts>
		number_of_tries++;
     6f2:	80 91 a0 03 	lds	r24, 0x03A0
     6f6:	8f 5f       	subi	r24, 0xFF	; 255
     6f8:	80 93 a0 03 	sts	0x03A0, r24
		if(number_of_tries == allowed_tries) {
     6fc:	90 91 a0 03 	lds	r25, 0x03A0
     700:	80 91 0a 01 	lds	r24, 0x010A
     704:	98 17       	cp	r25, r24
     706:	59 f4       	brne	.+22     	; 0x71e <can_transmit_complete+0x4e>
			// Abort transmission
			mcp_2515_bit_modify(MCP_TXB0CTRL,8,0);
     708:	40 e0       	ldi	r20, 0x00	; 0
     70a:	68 e0       	ldi	r22, 0x08	; 8
     70c:	80 e3       	ldi	r24, 0x30	; 48
     70e:	0e 94 9d 0a 	call	0x153a	; 0x153a <mcp_2515_bit_modify>
			printf("Reset transmission request\n");
     712:	83 e8       	ldi	r24, 0x83	; 131
     714:	91 e0       	ldi	r25, 0x01	; 1
     716:	0e 94 69 17 	call	0x2ed2	; 0x2ed2 <puts>
			number_of_tries = 0;
     71a:	10 92 a0 03 	sts	0x03A0, r1
		}
		return FALSE;
     71e:	80 e0       	ldi	r24, 0x00	; 0
     720:	01 c0       	rjmp	.+2      	; 0x724 <can_transmit_complete+0x54>
	}
	
	else return TRUE;
     722:	81 e0       	ldi	r24, 0x01	; 1
}
     724:	df 91       	pop	r29
     726:	cf 91       	pop	r28
     728:	08 95       	ret

0000072a <__vector_2>:


ISR(INT1_vect) {
     72a:	1f 92       	push	r1
     72c:	0f 92       	push	r0
     72e:	00 90 5f 00 	lds	r0, 0x005F
     732:	0f 92       	push	r0
     734:	11 24       	eor	r1, r1
     736:	2f 93       	push	r18
     738:	3f 93       	push	r19
     73a:	4f 93       	push	r20
     73c:	5f 93       	push	r21
     73e:	6f 93       	push	r22
     740:	7f 93       	push	r23
     742:	8f 93       	push	r24
     744:	9f 93       	push	r25
     746:	af 93       	push	r26
     748:	bf 93       	push	r27
     74a:	ef 93       	push	r30
     74c:	ff 93       	push	r31
     74e:	cf 93       	push	r28
     750:	df 93       	push	r29
     752:	1f 92       	push	r1
     754:	cd b7       	in	r28, 0x3d	; 61
     756:	de b7       	in	r29, 0x3e	; 62
	volatile uint8_t interrupt_code = mcp_2515_read(MCP_CANINTF);
     758:	8c e2       	ldi	r24, 0x2C	; 44
     75a:	0e 94 5a 0a 	call	0x14b4	; 0x14b4 <mcp_2515_read>
     75e:	89 83       	std	Y+1, r24	; 0x01
	
	if((interrupt_code & RXB0_AND_TXB0_INTERRUPT) == RXB0_AND_TXB0_INTERRUPT) {
     760:	89 81       	ldd	r24, Y+1	; 0x01
     762:	88 2f       	mov	r24, r24
     764:	90 e0       	ldi	r25, 0x00	; 0
     766:	85 70       	andi	r24, 0x05	; 5
     768:	99 27       	eor	r25, r25
     76a:	85 30       	cpi	r24, 0x05	; 5
     76c:	91 05       	cpc	r25, r1
     76e:	51 f4       	brne	.+20     	; 0x784 <__vector_2+0x5a>
		mcp_2515_bit_modify(MCP_CANINTF, MCP_TX0IF,0);
     770:	40 e0       	ldi	r20, 0x00	; 0
     772:	64 e0       	ldi	r22, 0x04	; 4
     774:	8c e2       	ldi	r24, 0x2C	; 44
     776:	0e 94 9d 0a 	call	0x153a	; 0x153a <mcp_2515_bit_modify>
		mcp_2515_bit_modify(MCP_CANINTF, MCP_RX0IF,0);
     77a:	40 e0       	ldi	r20, 0x00	; 0
     77c:	61 e0       	ldi	r22, 0x01	; 1
     77e:	8c e2       	ldi	r24, 0x2C	; 44
     780:	0e 94 9d 0a 	call	0x153a	; 0x153a <mcp_2515_bit_modify>
	}
	
	if ((MERR_INTERRUPT & interrupt_code) == MERR_INTERRUPT) {
     784:	89 81       	ldd	r24, Y+1	; 0x01
     786:	88 23       	and	r24, r24
     788:	2c f4       	brge	.+10     	; 0x794 <__vector_2+0x6a>
		// Clear message error flag
		mcp_2515_bit_modify(MCP_CANINTF, MCP_MERRF,0);
     78a:	40 e0       	ldi	r20, 0x00	; 0
     78c:	60 e8       	ldi	r22, 0x80	; 128
     78e:	8c e2       	ldi	r24, 0x2C	; 44
     790:	0e 94 9d 0a 	call	0x153a	; 0x153a <mcp_2515_bit_modify>
	}
	mcp_2515_bit_modify(MCP_CANINTF, MCP_RX0IF,0);
     794:	40 e0       	ldi	r20, 0x00	; 0
     796:	61 e0       	ldi	r22, 0x01	; 1
     798:	8c e2       	ldi	r24, 0x2C	; 44
     79a:	0e 94 9d 0a 	call	0x153a	; 0x153a <mcp_2515_bit_modify>
	message_received ++;
     79e:	80 91 9c 03 	lds	r24, 0x039C
     7a2:	8f 5f       	subi	r24, 0xFF	; 255
     7a4:	80 93 9c 03 	sts	0x039C, r24
	
}
     7a8:	0f 90       	pop	r0
     7aa:	df 91       	pop	r29
     7ac:	cf 91       	pop	r28
     7ae:	ff 91       	pop	r31
     7b0:	ef 91       	pop	r30
     7b2:	bf 91       	pop	r27
     7b4:	af 91       	pop	r26
     7b6:	9f 91       	pop	r25
     7b8:	8f 91       	pop	r24
     7ba:	7f 91       	pop	r23
     7bc:	6f 91       	pop	r22
     7be:	5f 91       	pop	r21
     7c0:	4f 91       	pop	r20
     7c2:	3f 91       	pop	r19
     7c4:	2f 91       	pop	r18
     7c6:	0f 90       	pop	r0
     7c8:	00 92 5f 00 	sts	0x005F, r0
     7cc:	0f 90       	pop	r0
     7ce:	1f 90       	pop	r1
     7d0:	18 95       	reti

000007d2 <joystick_init>:
#include "ADC.h"
#include "joystick.h"
float offset_x;
float offset_y;
void joystick_init()
{
     7d2:	cf 93       	push	r28
     7d4:	df 93       	push	r29
     7d6:	cd b7       	in	r28, 0x3d	; 61
     7d8:	de b7       	in	r29, 0x3e	; 62
	// Set PB0-1 as input
	clear_bit(DDRB,PB0);
     7da:	87 e3       	ldi	r24, 0x37	; 55
     7dc:	90 e0       	ldi	r25, 0x00	; 0
     7de:	27 e3       	ldi	r18, 0x37	; 55
     7e0:	30 e0       	ldi	r19, 0x00	; 0
     7e2:	f9 01       	movw	r30, r18
     7e4:	20 81       	ld	r18, Z
     7e6:	2e 7f       	andi	r18, 0xFE	; 254
     7e8:	fc 01       	movw	r30, r24
     7ea:	20 83       	st	Z, r18
	clear_bit(DDRB,PB1);
     7ec:	87 e3       	ldi	r24, 0x37	; 55
     7ee:	90 e0       	ldi	r25, 0x00	; 0
     7f0:	27 e3       	ldi	r18, 0x37	; 55
     7f2:	30 e0       	ldi	r19, 0x00	; 0
     7f4:	f9 01       	movw	r30, r18
     7f6:	20 81       	ld	r18, Z
     7f8:	2d 7f       	andi	r18, 0xFD	; 253
     7fa:	fc 01       	movw	r30, r24
     7fc:	20 83       	st	Z, r18
	// Pull-up on PB2
	set_bit(PORTB,PB2);
     7fe:	88 e3       	ldi	r24, 0x38	; 56
     800:	90 e0       	ldi	r25, 0x00	; 0
     802:	28 e3       	ldi	r18, 0x38	; 56
     804:	30 e0       	ldi	r19, 0x00	; 0
     806:	f9 01       	movw	r30, r18
     808:	20 81       	ld	r18, Z
     80a:	24 60       	ori	r18, 0x04	; 4
     80c:	fc 01       	movw	r30, r24
     80e:	20 83       	st	Z, r18
	//Set PB2 as input
	clear_bit(DDRB,PB2);
     810:	87 e3       	ldi	r24, 0x37	; 55
     812:	90 e0       	ldi	r25, 0x00	; 0
     814:	27 e3       	ldi	r18, 0x37	; 55
     816:	30 e0       	ldi	r19, 0x00	; 0
     818:	f9 01       	movw	r30, r18
     81a:	20 81       	ld	r18, Z
     81c:	2b 7f       	andi	r18, 0xFB	; 251
     81e:	fc 01       	movw	r30, r24
     820:	20 83       	st	Z, r18
	offset_x = offset_y = 0.0;
     822:	10 92 a5 03 	sts	0x03A5, r1
     826:	10 92 a6 03 	sts	0x03A6, r1
     82a:	10 92 a7 03 	sts	0x03A7, r1
     82e:	10 92 a8 03 	sts	0x03A8, r1
     832:	80 91 a5 03 	lds	r24, 0x03A5
     836:	90 91 a6 03 	lds	r25, 0x03A6
     83a:	a0 91 a7 03 	lds	r26, 0x03A7
     83e:	b0 91 a8 03 	lds	r27, 0x03A8
     842:	80 93 a1 03 	sts	0x03A1, r24
     846:	90 93 a2 03 	sts	0x03A2, r25
     84a:	a0 93 a3 03 	sts	0x03A3, r26
     84e:	b0 93 a4 03 	sts	0x03A4, r27
}
     852:	df 91       	pop	r29
     854:	cf 91       	pop	r28
     856:	08 95       	ret

00000858 <read_joystick>:

void read_joystick(joyValues *joy)
{
     858:	cf 93       	push	r28
     85a:	df 93       	push	r29
     85c:	00 d0       	rcall	.+0      	; 0x85e <read_joystick+0x6>
     85e:	cd b7       	in	r28, 0x3d	; 61
     860:	de b7       	in	r29, 0x3e	; 62
     862:	9a 83       	std	Y+2, r25	; 0x02
     864:	89 83       	std	Y+1, r24	; 0x01
	//joyValues joystick;
	joy->x_percentage = joystick_get_x_percentage();
     866:	0e 94 5e 05 	call	0xabc	; 0xabc <joystick_get_x_percentage>
     86a:	dc 01       	movw	r26, r24
     86c:	cb 01       	movw	r24, r22
     86e:	29 81       	ldd	r18, Y+1	; 0x01
     870:	3a 81       	ldd	r19, Y+2	; 0x02
     872:	f9 01       	movw	r30, r18
     874:	80 83       	st	Z, r24
     876:	91 83       	std	Z+1, r25	; 0x01
     878:	a2 83       	std	Z+2, r26	; 0x02
     87a:	b3 83       	std	Z+3, r27	; 0x03
	joy->y_percentage = joystick_get_y_percentage();
     87c:	0e 94 80 05 	call	0xb00	; 0xb00 <joystick_get_y_percentage>
     880:	dc 01       	movw	r26, r24
     882:	cb 01       	movw	r24, r22
     884:	29 81       	ldd	r18, Y+1	; 0x01
     886:	3a 81       	ldd	r19, Y+2	; 0x02
     888:	f9 01       	movw	r30, r18
     88a:	84 83       	std	Z+4, r24	; 0x04
     88c:	95 83       	std	Z+5, r25	; 0x05
     88e:	a6 83       	std	Z+6, r26	; 0x06
     890:	b7 83       	std	Z+7, r27	; 0x07
	// If PB0 || PB1 =1, button is pressed
	if (test_bit(PINB,PB0)) joy->left_button = 1;
     892:	86 e3       	ldi	r24, 0x36	; 54
     894:	90 e0       	ldi	r25, 0x00	; 0
     896:	fc 01       	movw	r30, r24
     898:	80 81       	ld	r24, Z
     89a:	88 2f       	mov	r24, r24
     89c:	90 e0       	ldi	r25, 0x00	; 0
     89e:	81 70       	andi	r24, 0x01	; 1
     8a0:	99 27       	eor	r25, r25
     8a2:	00 97       	sbiw	r24, 0x00	; 0
     8a4:	41 f0       	breq	.+16     	; 0x8b6 <read_joystick+0x5e>
     8a6:	89 81       	ldd	r24, Y+1	; 0x01
     8a8:	9a 81       	ldd	r25, Y+2	; 0x02
     8aa:	21 e0       	ldi	r18, 0x01	; 1
     8ac:	30 e0       	ldi	r19, 0x00	; 0
     8ae:	fc 01       	movw	r30, r24
     8b0:	31 87       	std	Z+9, r19	; 0x09
     8b2:	20 87       	std	Z+8, r18	; 0x08
     8b4:	05 c0       	rjmp	.+10     	; 0x8c0 <read_joystick+0x68>
	else joy->left_button = 0;
     8b6:	89 81       	ldd	r24, Y+1	; 0x01
     8b8:	9a 81       	ldd	r25, Y+2	; 0x02
     8ba:	fc 01       	movw	r30, r24
     8bc:	11 86       	std	Z+9, r1	; 0x09
     8be:	10 86       	std	Z+8, r1	; 0x08
	if (test_bit(PINB,PB1)) joy->right_button = 1;
     8c0:	86 e3       	ldi	r24, 0x36	; 54
     8c2:	90 e0       	ldi	r25, 0x00	; 0
     8c4:	fc 01       	movw	r30, r24
     8c6:	80 81       	ld	r24, Z
     8c8:	88 2f       	mov	r24, r24
     8ca:	90 e0       	ldi	r25, 0x00	; 0
     8cc:	82 70       	andi	r24, 0x02	; 2
     8ce:	99 27       	eor	r25, r25
     8d0:	00 97       	sbiw	r24, 0x00	; 0
     8d2:	41 f0       	breq	.+16     	; 0x8e4 <read_joystick+0x8c>
     8d4:	89 81       	ldd	r24, Y+1	; 0x01
     8d6:	9a 81       	ldd	r25, Y+2	; 0x02
     8d8:	21 e0       	ldi	r18, 0x01	; 1
     8da:	30 e0       	ldi	r19, 0x00	; 0
     8dc:	fc 01       	movw	r30, r24
     8de:	33 87       	std	Z+11, r19	; 0x0b
     8e0:	22 87       	std	Z+10, r18	; 0x0a
     8e2:	05 c0       	rjmp	.+10     	; 0x8ee <read_joystick+0x96>
	else joy->right_button = 0;
     8e4:	89 81       	ldd	r24, Y+1	; 0x01
     8e6:	9a 81       	ldd	r25, Y+2	; 0x02
     8e8:	fc 01       	movw	r30, r24
     8ea:	13 86       	std	Z+11, r1	; 0x0b
     8ec:	12 86       	std	Z+10, r1	; 0x0a
	
	// If PB2=0, button is pressed
	if (test_bit(PINB,PB2)) joy->joystick_button = 0;
     8ee:	86 e3       	ldi	r24, 0x36	; 54
     8f0:	90 e0       	ldi	r25, 0x00	; 0
     8f2:	fc 01       	movw	r30, r24
     8f4:	80 81       	ld	r24, Z
     8f6:	88 2f       	mov	r24, r24
     8f8:	90 e0       	ldi	r25, 0x00	; 0
     8fa:	84 70       	andi	r24, 0x04	; 4
     8fc:	99 27       	eor	r25, r25
     8fe:	00 97       	sbiw	r24, 0x00	; 0
     900:	31 f0       	breq	.+12     	; 0x90e <read_joystick+0xb6>
     902:	89 81       	ldd	r24, Y+1	; 0x01
     904:	9a 81       	ldd	r25, Y+2	; 0x02
     906:	fc 01       	movw	r30, r24
     908:	15 86       	std	Z+13, r1	; 0x0d
     90a:	14 86       	std	Z+12, r1	; 0x0c
     90c:	07 c0       	rjmp	.+14     	; 0x91c <read_joystick+0xc4>
	else joy->joystick_button = 1;
     90e:	89 81       	ldd	r24, Y+1	; 0x01
     910:	9a 81       	ldd	r25, Y+2	; 0x02
     912:	21 e0       	ldi	r18, 0x01	; 1
     914:	30 e0       	ldi	r19, 0x00	; 0
     916:	fc 01       	movw	r30, r24
     918:	35 87       	std	Z+13, r19	; 0x0d
     91a:	24 87       	std	Z+12, r18	; 0x0c
}
     91c:	0f 90       	pop	r0
     91e:	0f 90       	pop	r0
     920:	df 91       	pop	r29
     922:	cf 91       	pop	r28
     924:	08 95       	ret

00000926 <calibrate_joystick>:
void calibrate_joystick()
{
     926:	cf 93       	push	r28
     928:	df 93       	push	r29
     92a:	cd b7       	in	r28, 0x3d	; 61
     92c:	de b7       	in	r29, 0x3e	; 62
	offset_x = convert_to_percentage(read_ADC(1));
     92e:	81 e0       	ldi	r24, 0x01	; 1
     930:	0e 94 e3 01 	call	0x3c6	; 0x3c6 <read_ADC>
     934:	0e 94 b0 05 	call	0xb60	; 0xb60 <convert_to_percentage>
     938:	dc 01       	movw	r26, r24
     93a:	cb 01       	movw	r24, r22
     93c:	80 93 a1 03 	sts	0x03A1, r24
     940:	90 93 a2 03 	sts	0x03A2, r25
     944:	a0 93 a3 03 	sts	0x03A3, r26
     948:	b0 93 a4 03 	sts	0x03A4, r27
	offset_y = convert_to_percentage(read_ADC(2));	
     94c:	82 e0       	ldi	r24, 0x02	; 2
     94e:	0e 94 e3 01 	call	0x3c6	; 0x3c6 <read_ADC>
     952:	0e 94 b0 05 	call	0xb60	; 0xb60 <convert_to_percentage>
     956:	dc 01       	movw	r26, r24
     958:	cb 01       	movw	r24, r22
     95a:	80 93 a5 03 	sts	0x03A5, r24
     95e:	90 93 a6 03 	sts	0x03A6, r25
     962:	a0 93 a7 03 	sts	0x03A7, r26
     966:	b0 93 a8 03 	sts	0x03A8, r27
}
     96a:	df 91       	pop	r29
     96c:	cf 91       	pop	r28
     96e:	08 95       	ret

00000970 <joystick_getDirection>:

direction joystick_getDirection(float x_f, float y_f)
{
     970:	cf 93       	push	r28
     972:	df 93       	push	r29
     974:	cd b7       	in	r28, 0x3d	; 61
     976:	de b7       	in	r29, 0x3e	; 62
     978:	2f 97       	sbiw	r28, 0x0f	; 15
     97a:	0f b6       	in	r0, 0x3f	; 63
     97c:	f8 94       	cli
     97e:	de bf       	out	0x3e, r29	; 62
     980:	0f be       	out	0x3f, r0	; 63
     982:	cd bf       	out	0x3d, r28	; 61
     984:	6e 83       	std	Y+6, r22	; 0x06
     986:	7f 83       	std	Y+7, r23	; 0x07
     988:	88 87       	std	Y+8, r24	; 0x08
     98a:	99 87       	std	Y+9, r25	; 0x09
     98c:	2a 87       	std	Y+10, r18	; 0x0a
     98e:	3b 87       	std	Y+11, r19	; 0x0b
     990:	4c 87       	std	Y+12, r20	; 0x0c
     992:	5d 87       	std	Y+13, r21	; 0x0d
	int x = (int) x_f;
     994:	6e 81       	ldd	r22, Y+6	; 0x06
     996:	7f 81       	ldd	r23, Y+7	; 0x07
     998:	88 85       	ldd	r24, Y+8	; 0x08
     99a:	99 85       	ldd	r25, Y+9	; 0x09
     99c:	0e 94 d3 13 	call	0x27a6	; 0x27a6 <__fixsfsi>
     9a0:	dc 01       	movw	r26, r24
     9a2:	cb 01       	movw	r24, r22
     9a4:	9b 83       	std	Y+3, r25	; 0x03
     9a6:	8a 83       	std	Y+2, r24	; 0x02
	int y = (int) y_f;
     9a8:	6a 85       	ldd	r22, Y+10	; 0x0a
     9aa:	7b 85       	ldd	r23, Y+11	; 0x0b
     9ac:	8c 85       	ldd	r24, Y+12	; 0x0c
     9ae:	9d 85       	ldd	r25, Y+13	; 0x0d
     9b0:	0e 94 d3 13 	call	0x27a6	; 0x27a6 <__fixsfsi>
     9b4:	dc 01       	movw	r26, r24
     9b6:	cb 01       	movw	r24, r22
     9b8:	9d 83       	std	Y+5, r25	; 0x05
     9ba:	8c 83       	std	Y+4, r24	; 0x04
	direction d = NEUTRAL;
     9bc:	84 e0       	ldi	r24, 0x04	; 4
     9be:	89 83       	std	Y+1, r24	; 0x01
	if (!(abs(x)<50 && abs(y)<50)) 
     9c0:	8a 81       	ldd	r24, Y+2	; 0x02
     9c2:	9b 81       	ldd	r25, Y+3	; 0x03
     9c4:	99 23       	and	r25, r25
     9c6:	1c f4       	brge	.+6      	; 0x9ce <joystick_getDirection+0x5e>
     9c8:	91 95       	neg	r25
     9ca:	81 95       	neg	r24
     9cc:	91 09       	sbc	r25, r1
     9ce:	82 33       	cpi	r24, 0x32	; 50
     9d0:	91 05       	cpc	r25, r1
     9d2:	5c f4       	brge	.+22     	; 0x9ea <joystick_getDirection+0x7a>
     9d4:	8c 81       	ldd	r24, Y+4	; 0x04
     9d6:	9d 81       	ldd	r25, Y+5	; 0x05
     9d8:	99 23       	and	r25, r25
     9da:	1c f4       	brge	.+6      	; 0x9e2 <joystick_getDirection+0x72>
     9dc:	91 95       	neg	r25
     9de:	81 95       	neg	r24
     9e0:	91 09       	sbc	r25, r1
     9e2:	82 33       	cpi	r24, 0x32	; 50
     9e4:	91 05       	cpc	r25, r1
     9e6:	0c f4       	brge	.+2      	; 0x9ea <joystick_getDirection+0x7a>
     9e8:	5f c0       	rjmp	.+190    	; 0xaa8 <joystick_getDirection+0x138>
	{
		if (abs(x)>50 && abs(y)<50)
     9ea:	8a 81       	ldd	r24, Y+2	; 0x02
     9ec:	9b 81       	ldd	r25, Y+3	; 0x03
     9ee:	99 23       	and	r25, r25
     9f0:	1c f4       	brge	.+6      	; 0x9f8 <joystick_getDirection+0x88>
     9f2:	91 95       	neg	r25
     9f4:	81 95       	neg	r24
     9f6:	91 09       	sbc	r25, r1
     9f8:	83 33       	cpi	r24, 0x33	; 51
     9fa:	91 05       	cpc	r25, r1
     9fc:	ac f0       	brlt	.+42     	; 0xa28 <joystick_getDirection+0xb8>
     9fe:	8c 81       	ldd	r24, Y+4	; 0x04
     a00:	9d 81       	ldd	r25, Y+5	; 0x05
     a02:	8f 3c       	cpi	r24, 0xCF	; 207
     a04:	2f ef       	ldi	r18, 0xFF	; 255
     a06:	92 07       	cpc	r25, r18
     a08:	7c f0       	brlt	.+30     	; 0xa28 <joystick_getDirection+0xb8>
     a0a:	8c 81       	ldd	r24, Y+4	; 0x04
     a0c:	9d 81       	ldd	r25, Y+5	; 0x05
     a0e:	82 33       	cpi	r24, 0x32	; 50
     a10:	91 05       	cpc	r25, r1
     a12:	54 f4       	brge	.+20     	; 0xa28 <joystick_getDirection+0xb8>
		{
			if (x<0)
     a14:	8a 81       	ldd	r24, Y+2	; 0x02
     a16:	9b 81       	ldd	r25, Y+3	; 0x03
     a18:	99 23       	and	r25, r25
     a1a:	1c f4       	brge	.+6      	; 0xa22 <joystick_getDirection+0xb2>
			{
				d = LEFT;
     a1c:	82 e0       	ldi	r24, 0x02	; 2
     a1e:	89 83       	std	Y+1, r24	; 0x01
	direction d = NEUTRAL;
	if (!(abs(x)<50 && abs(y)<50)) 
	{
		if (abs(x)>50 && abs(y)<50)
		{
			if (x<0)
     a20:	43 c0       	rjmp	.+134    	; 0xaa8 <joystick_getDirection+0x138>
			{
				d = LEFT;
			}
			else
			{
				d = RIGHT;
     a22:	83 e0       	ldi	r24, 0x03	; 3
     a24:	89 83       	std	Y+1, r24	; 0x01
	direction d = NEUTRAL;
	if (!(abs(x)<50 && abs(y)<50)) 
	{
		if (abs(x)>50 && abs(y)<50)
		{
			if (x<0)
     a26:	40 c0       	rjmp	.+128    	; 0xaa8 <joystick_getDirection+0x138>
			else
			{
				d = RIGHT;
			}
		}
		else if(abs(x)<50 && abs(y)>50)
     a28:	8a 81       	ldd	r24, Y+2	; 0x02
     a2a:	9b 81       	ldd	r25, Y+3	; 0x03
     a2c:	8f 3c       	cpi	r24, 0xCF	; 207
     a2e:	2f ef       	ldi	r18, 0xFF	; 255
     a30:	92 07       	cpc	r25, r18
     a32:	c4 f0       	brlt	.+48     	; 0xa64 <joystick_getDirection+0xf4>
     a34:	8a 81       	ldd	r24, Y+2	; 0x02
     a36:	9b 81       	ldd	r25, Y+3	; 0x03
     a38:	82 33       	cpi	r24, 0x32	; 50
     a3a:	91 05       	cpc	r25, r1
     a3c:	9c f4       	brge	.+38     	; 0xa64 <joystick_getDirection+0xf4>
     a3e:	8c 81       	ldd	r24, Y+4	; 0x04
     a40:	9d 81       	ldd	r25, Y+5	; 0x05
     a42:	99 23       	and	r25, r25
     a44:	1c f4       	brge	.+6      	; 0xa4c <joystick_getDirection+0xdc>
     a46:	91 95       	neg	r25
     a48:	81 95       	neg	r24
     a4a:	91 09       	sbc	r25, r1
     a4c:	83 33       	cpi	r24, 0x33	; 51
     a4e:	91 05       	cpc	r25, r1
     a50:	4c f0       	brlt	.+18     	; 0xa64 <joystick_getDirection+0xf4>
		{
			if (y<0)
     a52:	8c 81       	ldd	r24, Y+4	; 0x04
     a54:	9d 81       	ldd	r25, Y+5	; 0x05
     a56:	99 23       	and	r25, r25
     a58:	1c f4       	brge	.+6      	; 0xa60 <joystick_getDirection+0xf0>
			{
				d = DOWN;
     a5a:	81 e0       	ldi	r24, 0x01	; 1
     a5c:	89 83       	std	Y+1, r24	; 0x01
				d = RIGHT;
			}
		}
		else if(abs(x)<50 && abs(y)>50)
		{
			if (y<0)
     a5e:	24 c0       	rjmp	.+72     	; 0xaa8 <joystick_getDirection+0x138>
			{
				d = DOWN;
			}
			else
			{
				d = UP;
     a60:	19 82       	std	Y+1, r1	; 0x01
				d = RIGHT;
			}
		}
		else if(abs(x)<50 && abs(y)>50)
		{
			if (y<0)
     a62:	22 c0       	rjmp	.+68     	; 0xaa8 <joystick_getDirection+0x138>
				d = UP;
			}
		}
		else
		{
			if (abs(y/x)>1)
     a64:	8c 81       	ldd	r24, Y+4	; 0x04
     a66:	9d 81       	ldd	r25, Y+5	; 0x05
     a68:	2a 81       	ldd	r18, Y+2	; 0x02
     a6a:	3b 81       	ldd	r19, Y+3	; 0x03
     a6c:	b9 01       	movw	r22, r18
     a6e:	0e 94 1d 15 	call	0x2a3a	; 0x2a3a <__divmodhi4>
     a72:	cb 01       	movw	r24, r22
     a74:	99 23       	and	r25, r25
     a76:	1c f4       	brge	.+6      	; 0xa7e <joystick_getDirection+0x10e>
     a78:	91 95       	neg	r25
     a7a:	81 95       	neg	r24
     a7c:	91 09       	sbc	r25, r1
     a7e:	82 30       	cpi	r24, 0x02	; 2
     a80:	91 05       	cpc	r25, r1
     a82:	4c f0       	brlt	.+18     	; 0xa96 <joystick_getDirection+0x126>
			{
				if (y<0)
     a84:	8c 81       	ldd	r24, Y+4	; 0x04
     a86:	9d 81       	ldd	r25, Y+5	; 0x05
     a88:	99 23       	and	r25, r25
     a8a:	1c f4       	brge	.+6      	; 0xa92 <joystick_getDirection+0x122>
				{
					d = DOWN;
     a8c:	81 e0       	ldi	r24, 0x01	; 1
     a8e:	89 83       	std	Y+1, r24	; 0x01
     a90:	0b c0       	rjmp	.+22     	; 0xaa8 <joystick_getDirection+0x138>
				}
				else
				{
					d = UP;
     a92:	19 82       	std	Y+1, r1	; 0x01
     a94:	09 c0       	rjmp	.+18     	; 0xaa8 <joystick_getDirection+0x138>
				}
			}
			else
			{
				if (x<0)
     a96:	8a 81       	ldd	r24, Y+2	; 0x02
     a98:	9b 81       	ldd	r25, Y+3	; 0x03
     a9a:	99 23       	and	r25, r25
     a9c:	1c f4       	brge	.+6      	; 0xaa4 <joystick_getDirection+0x134>
				{
					d = LEFT;
     a9e:	82 e0       	ldi	r24, 0x02	; 2
     aa0:	89 83       	std	Y+1, r24	; 0x01
     aa2:	02 c0       	rjmp	.+4      	; 0xaa8 <joystick_getDirection+0x138>
				}
				else
				{
					d = RIGHT;
     aa4:	83 e0       	ldi	r24, 0x03	; 3
     aa6:	89 83       	std	Y+1, r24	; 0x01
				}
			}
		}
	}
	return d;
     aa8:	89 81       	ldd	r24, Y+1	; 0x01
}
     aaa:	2f 96       	adiw	r28, 0x0f	; 15
     aac:	0f b6       	in	r0, 0x3f	; 63
     aae:	f8 94       	cli
     ab0:	de bf       	out	0x3e, r29	; 62
     ab2:	0f be       	out	0x3f, r0	; 63
     ab4:	cd bf       	out	0x3d, r28	; 61
     ab6:	df 91       	pop	r29
     ab8:	cf 91       	pop	r28
     aba:	08 95       	ret

00000abc <joystick_get_x_percentage>:

// Get Joystick position in percentage (center = 50%)
float joystick_get_x_percentage()
{
     abc:	cf 93       	push	r28
     abe:	df 93       	push	r29
     ac0:	1f 92       	push	r1
     ac2:	cd b7       	in	r28, 0x3d	; 61
     ac4:	de b7       	in	r29, 0x3e	; 62
	uint8_t data = read_ADC(1);
     ac6:	81 e0       	ldi	r24, 0x01	; 1
     ac8:	0e 94 e3 01 	call	0x3c6	; 0x3c6 <read_ADC>
     acc:	89 83       	std	Y+1, r24	; 0x01
	return convert_to_percentage(data) - offset_x;
     ace:	89 81       	ldd	r24, Y+1	; 0x01
     ad0:	0e 94 b0 05 	call	0xb60	; 0xb60 <convert_to_percentage>
     ad4:	dc 01       	movw	r26, r24
     ad6:	cb 01       	movw	r24, r22
     ad8:	20 91 a1 03 	lds	r18, 0x03A1
     adc:	30 91 a2 03 	lds	r19, 0x03A2
     ae0:	40 91 a3 03 	lds	r20, 0x03A3
     ae4:	50 91 a4 03 	lds	r21, 0x03A4
     ae8:	bc 01       	movw	r22, r24
     aea:	cd 01       	movw	r24, r26
     aec:	0e 94 02 13 	call	0x2604	; 0x2604 <__subsf3>
     af0:	dc 01       	movw	r26, r24
     af2:	cb 01       	movw	r24, r22
} 
     af4:	bc 01       	movw	r22, r24
     af6:	cd 01       	movw	r24, r26
     af8:	0f 90       	pop	r0
     afa:	df 91       	pop	r29
     afc:	cf 91       	pop	r28
     afe:	08 95       	ret

00000b00 <joystick_get_y_percentage>:

// Get Joystick position in percentage (center = 50%)
float joystick_get_y_percentage()
{
     b00:	cf 93       	push	r28
     b02:	df 93       	push	r29
     b04:	1f 92       	push	r1
     b06:	cd b7       	in	r28, 0x3d	; 61
     b08:	de b7       	in	r29, 0x3e	; 62
	uint8_t data = read_ADC(0);
     b0a:	80 e0       	ldi	r24, 0x00	; 0
     b0c:	0e 94 e3 01 	call	0x3c6	; 0x3c6 <read_ADC>
     b10:	89 83       	std	Y+1, r24	; 0x01
	return convert_to_percentage(data) - offset_y;
     b12:	89 81       	ldd	r24, Y+1	; 0x01
     b14:	0e 94 b0 05 	call	0xb60	; 0xb60 <convert_to_percentage>
     b18:	dc 01       	movw	r26, r24
     b1a:	cb 01       	movw	r24, r22
     b1c:	20 91 a5 03 	lds	r18, 0x03A5
     b20:	30 91 a6 03 	lds	r19, 0x03A6
     b24:	40 91 a7 03 	lds	r20, 0x03A7
     b28:	50 91 a8 03 	lds	r21, 0x03A8
     b2c:	bc 01       	movw	r22, r24
     b2e:	cd 01       	movw	r24, r26
     b30:	0e 94 02 13 	call	0x2604	; 0x2604 <__subsf3>
     b34:	dc 01       	movw	r26, r24
     b36:	cb 01       	movw	r24, r22
}
     b38:	bc 01       	movw	r22, r24
     b3a:	cd 01       	movw	r24, r26
     b3c:	0f 90       	pop	r0
     b3e:	df 91       	pop	r29
     b40:	cf 91       	pop	r28
     b42:	08 95       	ret

00000b44 <joystick_get_right_slider>:
	uint8_t data = read_ADC(3);
	return convert_to_sliderpercentage(data);
}

uint8_t joystick_get_right_slider()
{
     b44:	cf 93       	push	r28
     b46:	df 93       	push	r29
     b48:	1f 92       	push	r1
     b4a:	cd b7       	in	r28, 0x3d	; 61
     b4c:	de b7       	in	r29, 0x3e	; 62
	uint8_t data = read_ADC(3);
     b4e:	83 e0       	ldi	r24, 0x03	; 3
     b50:	0e 94 e3 01 	call	0x3c6	; 0x3c6 <read_ADC>
     b54:	89 83       	std	Y+1, r24	; 0x01
	return data;
     b56:	89 81       	ldd	r24, Y+1	; 0x01
}
     b58:	0f 90       	pop	r0
     b5a:	df 91       	pop	r29
     b5c:	cf 91       	pop	r28
     b5e:	08 95       	ret

00000b60 <convert_to_percentage>:
	return (value/255)*5;
}

// Convert digital value to percentage (0-255 -> 0-100%)
float convert_to_percentage(uint8_t digital_value)
{
     b60:	cf 93       	push	r28
     b62:	df 93       	push	r29
     b64:	00 d0       	rcall	.+0      	; 0xb66 <convert_to_percentage+0x6>
     b66:	00 d0       	rcall	.+0      	; 0xb68 <convert_to_percentage+0x8>
     b68:	1f 92       	push	r1
     b6a:	cd b7       	in	r28, 0x3d	; 61
     b6c:	de b7       	in	r29, 0x3e	; 62
     b6e:	8d 83       	std	Y+5, r24	; 0x05
	float value = digital_value;
     b70:	8d 81       	ldd	r24, Y+5	; 0x05
     b72:	88 2f       	mov	r24, r24
     b74:	90 e0       	ldi	r25, 0x00	; 0
     b76:	a0 e0       	ldi	r26, 0x00	; 0
     b78:	b0 e0       	ldi	r27, 0x00	; 0
     b7a:	bc 01       	movw	r22, r24
     b7c:	cd 01       	movw	r24, r26
     b7e:	0e 94 04 14 	call	0x2808	; 0x2808 <__floatunsisf>
     b82:	dc 01       	movw	r26, r24
     b84:	cb 01       	movw	r24, r22
     b86:	89 83       	std	Y+1, r24	; 0x01
     b88:	9a 83       	std	Y+2, r25	; 0x02
     b8a:	ab 83       	std	Y+3, r26	; 0x03
     b8c:	bc 83       	std	Y+4, r27	; 0x04
	return ((value-128)/128)*100;
     b8e:	20 e0       	ldi	r18, 0x00	; 0
     b90:	30 e0       	ldi	r19, 0x00	; 0
     b92:	40 e0       	ldi	r20, 0x00	; 0
     b94:	53 e4       	ldi	r21, 0x43	; 67
     b96:	69 81       	ldd	r22, Y+1	; 0x01
     b98:	7a 81       	ldd	r23, Y+2	; 0x02
     b9a:	8b 81       	ldd	r24, Y+3	; 0x03
     b9c:	9c 81       	ldd	r25, Y+4	; 0x04
     b9e:	0e 94 02 13 	call	0x2604	; 0x2604 <__subsf3>
     ba2:	dc 01       	movw	r26, r24
     ba4:	cb 01       	movw	r24, r22
     ba6:	20 e0       	ldi	r18, 0x00	; 0
     ba8:	30 e0       	ldi	r19, 0x00	; 0
     baa:	40 e0       	ldi	r20, 0x00	; 0
     bac:	53 e4       	ldi	r21, 0x43	; 67
     bae:	bc 01       	movw	r22, r24
     bb0:	cd 01       	movw	r24, r26
     bb2:	0e 94 6b 13 	call	0x26d6	; 0x26d6 <__divsf3>
     bb6:	dc 01       	movw	r26, r24
     bb8:	cb 01       	movw	r24, r22
     bba:	20 e0       	ldi	r18, 0x00	; 0
     bbc:	30 e0       	ldi	r19, 0x00	; 0
     bbe:	48 ec       	ldi	r20, 0xC8	; 200
     bc0:	52 e4       	ldi	r21, 0x42	; 66
     bc2:	bc 01       	movw	r22, r24
     bc4:	cd 01       	movw	r24, r26
     bc6:	0e 94 ba 14 	call	0x2974	; 0x2974 <__mulsf3>
     bca:	dc 01       	movw	r26, r24
     bcc:	cb 01       	movw	r24, r22
}
     bce:	bc 01       	movw	r22, r24
     bd0:	cd 01       	movw	r24, r26
     bd2:	0f 90       	pop	r0
     bd4:	0f 90       	pop	r0
     bd6:	0f 90       	pop	r0
     bd8:	0f 90       	pop	r0
     bda:	0f 90       	pop	r0
     bdc:	df 91       	pop	r29
     bde:	cf 91       	pop	r28
     be0:	08 95       	ret

00000be2 <main>:
int_union_bytes score;
uint8_t game_initialized = 0;
can_message * sendmessage;

int main(void)
{
     be2:	cf 93       	push	r28
     be4:	df 93       	push	r29
     be6:	cd b7       	in	r28, 0x3d	; 61
     be8:	de b7       	in	r29, 0x3e	; 62
     bea:	6c 97       	sbiw	r28, 0x1c	; 28
     bec:	0f b6       	in	r0, 0x3f	; 63
     bee:	f8 94       	cli
     bf0:	de bf       	out	0x3e, r29	; 62
     bf2:	0f be       	out	0x3f, r0	; 63
     bf4:	cd bf       	out	0x3d, r28	; 61
	initializations();
     bf6:	0e 94 55 09 	call	0x12aa	; 0x12aa <initializations>
	printf("can: %d",CAN_enable_normal_mode());
     bfa:	0e 94 4a 02 	call	0x494	; 0x494 <CAN_enable_normal_mode>
     bfe:	88 2f       	mov	r24, r24
     c00:	90 e0       	ldi	r25, 0x00	; 0
     c02:	29 2f       	mov	r18, r25
     c04:	2f 93       	push	r18
     c06:	8f 93       	push	r24
     c08:	8e e9       	ldi	r24, 0x9E	; 158
     c0a:	91 e0       	ldi	r25, 0x01	; 1
     c0c:	89 2f       	mov	r24, r25
     c0e:	8f 93       	push	r24
     c10:	8e e9       	ldi	r24, 0x9E	; 158
     c12:	91 e0       	ldi	r25, 0x01	; 1
     c14:	8f 93       	push	r24
     c16:	0e 94 4e 17 	call	0x2e9c	; 0x2e9c <printf>
     c1a:	0f 90       	pop	r0
     c1c:	0f 90       	pop	r0
     c1e:	0f 90       	pop	r0
     c20:	0f 90       	pop	r0
	menu_printed = 0;
     c22:	10 92 ae 03 	sts	0x03AE, r1
	while (TRUE)
	{
		sendmessage = malloc(sizeof(can_message));
     c26:	8b e0       	ldi	r24, 0x0B	; 11
     c28:	90 e0       	ldi	r25, 0x00	; 0
     c2a:	0e 94 45 15 	call	0x2a8a	; 0x2a8a <malloc>
     c2e:	90 93 aa 03 	sts	0x03AA, r25
     c32:	80 93 a9 03 	sts	0x03A9, r24
     c36:	80 e0       	ldi	r24, 0x00	; 0
     c38:	90 e0       	ldi	r25, 0x00	; 0
     c3a:	a0 e2       	ldi	r26, 0x20	; 32
     c3c:	b1 e4       	ldi	r27, 0x41	; 65
     c3e:	89 83       	std	Y+1, r24	; 0x01
     c40:	9a 83       	std	Y+2, r25	; 0x02
     c42:	ab 83       	std	Y+3, r26	; 0x03
     c44:	bc 83       	std	Y+4, r27	; 0x04

	__builtin_avr_delay_cycles(__ticks_dc);

#else
	uint16_t __ticks;
	__tmp = ((F_CPU) / 4e3) * __ms;
     c46:	2a e9       	ldi	r18, 0x9A	; 154
     c48:	39 e9       	ldi	r19, 0x99	; 153
     c4a:	49 e9       	ldi	r20, 0x99	; 153
     c4c:	54 e4       	ldi	r21, 0x44	; 68
     c4e:	69 81       	ldd	r22, Y+1	; 0x01
     c50:	7a 81       	ldd	r23, Y+2	; 0x02
     c52:	8b 81       	ldd	r24, Y+3	; 0x03
     c54:	9c 81       	ldd	r25, Y+4	; 0x04
     c56:	0e 94 ba 14 	call	0x2974	; 0x2974 <__mulsf3>
     c5a:	dc 01       	movw	r26, r24
     c5c:	cb 01       	movw	r24, r22
     c5e:	8d 83       	std	Y+5, r24	; 0x05
     c60:	9e 83       	std	Y+6, r25	; 0x06
     c62:	af 83       	std	Y+7, r26	; 0x07
     c64:	b8 87       	std	Y+8, r27	; 0x08
	if (__tmp < 1.0)
     c66:	20 e0       	ldi	r18, 0x00	; 0
     c68:	30 e0       	ldi	r19, 0x00	; 0
     c6a:	40 e8       	ldi	r20, 0x80	; 128
     c6c:	5f e3       	ldi	r21, 0x3F	; 63
     c6e:	6d 81       	ldd	r22, Y+5	; 0x05
     c70:	7e 81       	ldd	r23, Y+6	; 0x06
     c72:	8f 81       	ldd	r24, Y+7	; 0x07
     c74:	98 85       	ldd	r25, Y+8	; 0x08
     c76:	0e 94 67 13 	call	0x26ce	; 0x26ce <__cmpsf2>
     c7a:	88 23       	and	r24, r24
     c7c:	2c f4       	brge	.+10     	; 0xc88 <main+0xa6>
		__ticks = 1;
     c7e:	81 e0       	ldi	r24, 0x01	; 1
     c80:	90 e0       	ldi	r25, 0x00	; 0
     c82:	9a 87       	std	Y+10, r25	; 0x0a
     c84:	89 87       	std	Y+9, r24	; 0x09
     c86:	3f c0       	rjmp	.+126    	; 0xd06 <main+0x124>
	else if (__tmp > 65535)
     c88:	20 e0       	ldi	r18, 0x00	; 0
     c8a:	3f ef       	ldi	r19, 0xFF	; 255
     c8c:	4f e7       	ldi	r20, 0x7F	; 127
     c8e:	57 e4       	ldi	r21, 0x47	; 71
     c90:	6d 81       	ldd	r22, Y+5	; 0x05
     c92:	7e 81       	ldd	r23, Y+6	; 0x06
     c94:	8f 81       	ldd	r24, Y+7	; 0x07
     c96:	98 85       	ldd	r25, Y+8	; 0x08
     c98:	0e 94 b6 14 	call	0x296c	; 0x296c <__gesf2>
     c9c:	18 16       	cp	r1, r24
     c9e:	4c f5       	brge	.+82     	; 0xcf2 <main+0x110>
	{
		//	__ticks = requested delay in 1/10 ms
		__ticks = (uint16_t) (__ms * 10.0);
     ca0:	20 e0       	ldi	r18, 0x00	; 0
     ca2:	30 e0       	ldi	r19, 0x00	; 0
     ca4:	40 e2       	ldi	r20, 0x20	; 32
     ca6:	51 e4       	ldi	r21, 0x41	; 65
     ca8:	69 81       	ldd	r22, Y+1	; 0x01
     caa:	7a 81       	ldd	r23, Y+2	; 0x02
     cac:	8b 81       	ldd	r24, Y+3	; 0x03
     cae:	9c 81       	ldd	r25, Y+4	; 0x04
     cb0:	0e 94 ba 14 	call	0x2974	; 0x2974 <__mulsf3>
     cb4:	dc 01       	movw	r26, r24
     cb6:	cb 01       	movw	r24, r22
     cb8:	bc 01       	movw	r22, r24
     cba:	cd 01       	movw	r24, r26
     cbc:	0e 94 d8 13 	call	0x27b0	; 0x27b0 <__fixunssfsi>
     cc0:	dc 01       	movw	r26, r24
     cc2:	cb 01       	movw	r24, r22
     cc4:	9a 87       	std	Y+10, r25	; 0x0a
     cc6:	89 87       	std	Y+9, r24	; 0x09
     cc8:	0f c0       	rjmp	.+30     	; 0xce8 <main+0x106>
     cca:	8a e7       	ldi	r24, 0x7A	; 122
     ccc:	90 e0       	ldi	r25, 0x00	; 0
     cce:	9c 87       	std	Y+12, r25	; 0x0c
     cd0:	8b 87       	std	Y+11, r24	; 0x0b
    milliseconds can be achieved.
 */
void
_delay_loop_2(uint16_t __count)
{
	__asm__ volatile (
     cd2:	8b 85       	ldd	r24, Y+11	; 0x0b
     cd4:	9c 85       	ldd	r25, Y+12	; 0x0c
     cd6:	01 97       	sbiw	r24, 0x01	; 1
     cd8:	f1 f7       	brne	.-4      	; 0xcd6 <main+0xf4>
     cda:	9c 87       	std	Y+12, r25	; 0x0c
     cdc:	8b 87       	std	Y+11, r24	; 0x0b
		while(__ticks)
		{
			// wait 1/10 ms
			_delay_loop_2(((F_CPU) / 4e3) / 10);
			__ticks --;
     cde:	89 85       	ldd	r24, Y+9	; 0x09
     ce0:	9a 85       	ldd	r25, Y+10	; 0x0a
     ce2:	01 97       	sbiw	r24, 0x01	; 1
     ce4:	9a 87       	std	Y+10, r25	; 0x0a
     ce6:	89 87       	std	Y+9, r24	; 0x09
		__ticks = 1;
	else if (__tmp > 65535)
	{
		//	__ticks = requested delay in 1/10 ms
		__ticks = (uint16_t) (__ms * 10.0);
		while(__ticks)
     ce8:	89 85       	ldd	r24, Y+9	; 0x09
     cea:	9a 85       	ldd	r25, Y+10	; 0x0a
     cec:	00 97       	sbiw	r24, 0x00	; 0
     cee:	69 f7       	brne	.-38     	; 0xcca <main+0xe8>
     cf0:	14 c0       	rjmp	.+40     	; 0xd1a <main+0x138>
			__ticks --;
		}
		return;
	}
	else
		__ticks = (uint16_t)__tmp;
     cf2:	6d 81       	ldd	r22, Y+5	; 0x05
     cf4:	7e 81       	ldd	r23, Y+6	; 0x06
     cf6:	8f 81       	ldd	r24, Y+7	; 0x07
     cf8:	98 85       	ldd	r25, Y+8	; 0x08
     cfa:	0e 94 d8 13 	call	0x27b0	; 0x27b0 <__fixunssfsi>
     cfe:	dc 01       	movw	r26, r24
     d00:	cb 01       	movw	r24, r22
     d02:	9a 87       	std	Y+10, r25	; 0x0a
     d04:	89 87       	std	Y+9, r24	; 0x09
     d06:	89 85       	ldd	r24, Y+9	; 0x09
     d08:	9a 85       	ldd	r25, Y+10	; 0x0a
     d0a:	9e 87       	std	Y+14, r25	; 0x0e
     d0c:	8d 87       	std	Y+13, r24	; 0x0d
     d0e:	8d 85       	ldd	r24, Y+13	; 0x0d
     d10:	9e 85       	ldd	r25, Y+14	; 0x0e
     d12:	01 97       	sbiw	r24, 0x01	; 1
     d14:	f1 f7       	brne	.-4      	; 0xd12 <main+0x130>
     d16:	9e 87       	std	Y+14, r25	; 0x0e
     d18:	8d 87       	std	Y+13, r24	; 0x0d
		_delay_ms(10);
		//printf("Game mode: %d",get_game_mode());
		if(get_game_mode() == 0){
     d1a:	0e 94 47 0e 	call	0x1c8e	; 0x1c8e <get_game_mode>
     d1e:	00 97       	sbiw	r24, 0x00	; 0
     d20:	19 f4       	brne	.+6      	; 0xd28 <main+0x146>
			mode_t = MENU;
     d22:	10 92 9d 03 	sts	0x039D, r1
     d26:	b4 c0       	rjmp	.+360    	; 0xe90 <main+0x2ae>
		}
		else if(get_game_mode() == 1){
     d28:	0e 94 47 0e 	call	0x1c8e	; 0x1c8e <get_game_mode>
     d2c:	81 30       	cpi	r24, 0x01	; 1
     d2e:	91 05       	cpc	r25, r1
     d30:	09 f0       	breq	.+2      	; 0xd34 <main+0x152>
     d32:	ae c0       	rjmp	.+348    	; 0xe90 <main+0x2ae>
			mode_t = PLAYING;
     d34:	81 e0       	ldi	r24, 0x01	; 1
     d36:	80 93 9d 03 	sts	0x039D, r24
			if (!game_initialized)
     d3a:	80 91 9e 03 	lds	r24, 0x039E
     d3e:	88 23       	and	r24, r24
     d40:	09 f0       	breq	.+2      	; 0xd44 <main+0x162>
     d42:	a6 c0       	rjmp	.+332    	; 0xe90 <main+0x2ae>
			{
				sendmessage->ID = 2;
     d44:	80 91 a9 03 	lds	r24, 0x03A9
     d48:	90 91 aa 03 	lds	r25, 0x03AA
     d4c:	22 e0       	ldi	r18, 0x02	; 2
     d4e:	30 e0       	ldi	r19, 0x00	; 0
     d50:	fc 01       	movw	r30, r24
     d52:	31 83       	std	Z+1, r19	; 0x01
     d54:	20 83       	st	Z, r18
				sendmessage->length = 1;
     d56:	80 91 a9 03 	lds	r24, 0x03A9
     d5a:	90 91 aa 03 	lds	r25, 0x03AA
     d5e:	21 e0       	ldi	r18, 0x01	; 1
     d60:	fc 01       	movw	r30, r24
     d62:	22 83       	std	Z+2, r18	; 0x02
				sendmessage->data[0] = 1;
     d64:	80 91 a9 03 	lds	r24, 0x03A9
     d68:	90 91 aa 03 	lds	r25, 0x03AA
     d6c:	21 e0       	ldi	r18, 0x01	; 1
     d6e:	fc 01       	movw	r30, r24
     d70:	23 83       	std	Z+3, r18	; 0x03
				
				printf("Starting game %d\n",can_send_message(sendmessage));
     d72:	80 91 a9 03 	lds	r24, 0x03A9
     d76:	90 91 aa 03 	lds	r25, 0x03AA
     d7a:	0e 94 53 02 	call	0x4a6	; 0x4a6 <can_send_message>
     d7e:	88 2f       	mov	r24, r24
     d80:	90 e0       	ldi	r25, 0x00	; 0
     d82:	29 2f       	mov	r18, r25
     d84:	2f 93       	push	r18
     d86:	8f 93       	push	r24
     d88:	86 ea       	ldi	r24, 0xA6	; 166
     d8a:	91 e0       	ldi	r25, 0x01	; 1
     d8c:	89 2f       	mov	r24, r25
     d8e:	8f 93       	push	r24
     d90:	86 ea       	ldi	r24, 0xA6	; 166
     d92:	91 e0       	ldi	r25, 0x01	; 1
     d94:	8f 93       	push	r24
     d96:	0e 94 4e 17 	call	0x2e9c	; 0x2e9c <printf>
     d9a:	0f 90       	pop	r0
     d9c:	0f 90       	pop	r0
     d9e:	0f 90       	pop	r0
     da0:	0f 90       	pop	r0
     da2:	80 e0       	ldi	r24, 0x00	; 0
     da4:	90 e0       	ldi	r25, 0x00	; 0
     da6:	a0 ea       	ldi	r26, 0xA0	; 160
     da8:	b1 e4       	ldi	r27, 0x41	; 65
     daa:	8f 87       	std	Y+15, r24	; 0x0f
     dac:	98 8b       	std	Y+16, r25	; 0x10
     dae:	a9 8b       	std	Y+17, r26	; 0x11
     db0:	ba 8b       	std	Y+18, r27	; 0x12

	__builtin_avr_delay_cycles(__ticks_dc);

#else
	uint16_t __ticks;
	__tmp = ((F_CPU) / 4e3) * __ms;
     db2:	2a e9       	ldi	r18, 0x9A	; 154
     db4:	39 e9       	ldi	r19, 0x99	; 153
     db6:	49 e9       	ldi	r20, 0x99	; 153
     db8:	54 e4       	ldi	r21, 0x44	; 68
     dba:	6f 85       	ldd	r22, Y+15	; 0x0f
     dbc:	78 89       	ldd	r23, Y+16	; 0x10
     dbe:	89 89       	ldd	r24, Y+17	; 0x11
     dc0:	9a 89       	ldd	r25, Y+18	; 0x12
     dc2:	0e 94 ba 14 	call	0x2974	; 0x2974 <__mulsf3>
     dc6:	dc 01       	movw	r26, r24
     dc8:	cb 01       	movw	r24, r22
     dca:	8b 8b       	std	Y+19, r24	; 0x13
     dcc:	9c 8b       	std	Y+20, r25	; 0x14
     dce:	ad 8b       	std	Y+21, r26	; 0x15
     dd0:	be 8b       	std	Y+22, r27	; 0x16
	if (__tmp < 1.0)
     dd2:	20 e0       	ldi	r18, 0x00	; 0
     dd4:	30 e0       	ldi	r19, 0x00	; 0
     dd6:	40 e8       	ldi	r20, 0x80	; 128
     dd8:	5f e3       	ldi	r21, 0x3F	; 63
     dda:	6b 89       	ldd	r22, Y+19	; 0x13
     ddc:	7c 89       	ldd	r23, Y+20	; 0x14
     dde:	8d 89       	ldd	r24, Y+21	; 0x15
     de0:	9e 89       	ldd	r25, Y+22	; 0x16
     de2:	0e 94 67 13 	call	0x26ce	; 0x26ce <__cmpsf2>
     de6:	88 23       	and	r24, r24
     de8:	2c f4       	brge	.+10     	; 0xdf4 <main+0x212>
		__ticks = 1;
     dea:	81 e0       	ldi	r24, 0x01	; 1
     dec:	90 e0       	ldi	r25, 0x00	; 0
     dee:	98 8f       	std	Y+24, r25	; 0x18
     df0:	8f 8b       	std	Y+23, r24	; 0x17
     df2:	3f c0       	rjmp	.+126    	; 0xe72 <main+0x290>
	else if (__tmp > 65535)
     df4:	20 e0       	ldi	r18, 0x00	; 0
     df6:	3f ef       	ldi	r19, 0xFF	; 255
     df8:	4f e7       	ldi	r20, 0x7F	; 127
     dfa:	57 e4       	ldi	r21, 0x47	; 71
     dfc:	6b 89       	ldd	r22, Y+19	; 0x13
     dfe:	7c 89       	ldd	r23, Y+20	; 0x14
     e00:	8d 89       	ldd	r24, Y+21	; 0x15
     e02:	9e 89       	ldd	r25, Y+22	; 0x16
     e04:	0e 94 b6 14 	call	0x296c	; 0x296c <__gesf2>
     e08:	18 16       	cp	r1, r24
     e0a:	4c f5       	brge	.+82     	; 0xe5e <main+0x27c>
	{
		//	__ticks = requested delay in 1/10 ms
		__ticks = (uint16_t) (__ms * 10.0);
     e0c:	20 e0       	ldi	r18, 0x00	; 0
     e0e:	30 e0       	ldi	r19, 0x00	; 0
     e10:	40 e2       	ldi	r20, 0x20	; 32
     e12:	51 e4       	ldi	r21, 0x41	; 65
     e14:	6f 85       	ldd	r22, Y+15	; 0x0f
     e16:	78 89       	ldd	r23, Y+16	; 0x10
     e18:	89 89       	ldd	r24, Y+17	; 0x11
     e1a:	9a 89       	ldd	r25, Y+18	; 0x12
     e1c:	0e 94 ba 14 	call	0x2974	; 0x2974 <__mulsf3>
     e20:	dc 01       	movw	r26, r24
     e22:	cb 01       	movw	r24, r22
     e24:	bc 01       	movw	r22, r24
     e26:	cd 01       	movw	r24, r26
     e28:	0e 94 d8 13 	call	0x27b0	; 0x27b0 <__fixunssfsi>
     e2c:	dc 01       	movw	r26, r24
     e2e:	cb 01       	movw	r24, r22
     e30:	98 8f       	std	Y+24, r25	; 0x18
     e32:	8f 8b       	std	Y+23, r24	; 0x17
     e34:	0f c0       	rjmp	.+30     	; 0xe54 <main+0x272>
     e36:	8a e7       	ldi	r24, 0x7A	; 122
     e38:	90 e0       	ldi	r25, 0x00	; 0
     e3a:	9a 8f       	std	Y+26, r25	; 0x1a
     e3c:	89 8f       	std	Y+25, r24	; 0x19
     e3e:	89 8d       	ldd	r24, Y+25	; 0x19
     e40:	9a 8d       	ldd	r25, Y+26	; 0x1a
     e42:	01 97       	sbiw	r24, 0x01	; 1
     e44:	f1 f7       	brne	.-4      	; 0xe42 <main+0x260>
     e46:	9a 8f       	std	Y+26, r25	; 0x1a
     e48:	89 8f       	std	Y+25, r24	; 0x19
		while(__ticks)
		{
			// wait 1/10 ms
			_delay_loop_2(((F_CPU) / 4e3) / 10);
			__ticks --;
     e4a:	8f 89       	ldd	r24, Y+23	; 0x17
     e4c:	98 8d       	ldd	r25, Y+24	; 0x18
     e4e:	01 97       	sbiw	r24, 0x01	; 1
     e50:	98 8f       	std	Y+24, r25	; 0x18
     e52:	8f 8b       	std	Y+23, r24	; 0x17
		__ticks = 1;
	else if (__tmp > 65535)
	{
		//	__ticks = requested delay in 1/10 ms
		__ticks = (uint16_t) (__ms * 10.0);
		while(__ticks)
     e54:	8f 89       	ldd	r24, Y+23	; 0x17
     e56:	98 8d       	ldd	r25, Y+24	; 0x18
     e58:	00 97       	sbiw	r24, 0x00	; 0
     e5a:	69 f7       	brne	.-38     	; 0xe36 <main+0x254>
     e5c:	14 c0       	rjmp	.+40     	; 0xe86 <main+0x2a4>
			__ticks --;
		}
		return;
	}
	else
		__ticks = (uint16_t)__tmp;
     e5e:	6b 89       	ldd	r22, Y+19	; 0x13
     e60:	7c 89       	ldd	r23, Y+20	; 0x14
     e62:	8d 89       	ldd	r24, Y+21	; 0x15
     e64:	9e 89       	ldd	r25, Y+22	; 0x16
     e66:	0e 94 d8 13 	call	0x27b0	; 0x27b0 <__fixunssfsi>
     e6a:	dc 01       	movw	r26, r24
     e6c:	cb 01       	movw	r24, r22
     e6e:	98 8f       	std	Y+24, r25	; 0x18
     e70:	8f 8b       	std	Y+23, r24	; 0x17
     e72:	8f 89       	ldd	r24, Y+23	; 0x17
     e74:	98 8d       	ldd	r25, Y+24	; 0x18
     e76:	9c 8f       	std	Y+28, r25	; 0x1c
     e78:	8b 8f       	std	Y+27, r24	; 0x1b
     e7a:	8b 8d       	ldd	r24, Y+27	; 0x1b
     e7c:	9c 8d       	ldd	r25, Y+28	; 0x1c
     e7e:	01 97       	sbiw	r24, 0x01	; 1
     e80:	f1 f7       	brne	.-4      	; 0xe7e <main+0x29c>
     e82:	9c 8f       	std	Y+28, r25	; 0x1c
     e84:	8b 8f       	std	Y+27, r24	; 0x1b
				_delay_ms(20);
				game_initialized = TRUE;
     e86:	81 e0       	ldi	r24, 0x01	; 1
     e88:	80 93 9e 03 	sts	0x039E, r24
				pause = FALSE;			
     e8c:	10 92 0d 01 	sts	0x010D, r1
			}			
		}
		
		switch(mode_t){
     e90:	80 91 9d 03 	lds	r24, 0x039D
     e94:	88 2f       	mov	r24, r24
     e96:	90 e0       	ldi	r25, 0x00	; 0
     e98:	00 97       	sbiw	r24, 0x00	; 0
     e9a:	21 f0       	breq	.+8      	; 0xea4 <main+0x2c2>
     e9c:	81 30       	cpi	r24, 0x01	; 1
     e9e:	91 05       	cpc	r25, r1
     ea0:	21 f0       	breq	.+8      	; 0xeaa <main+0x2c8>
     ea2:	06 c0       	rjmp	.+12     	; 0xeb0 <main+0x2ce>
			case MENU:
			in_menus();
     ea4:	0e 94 5f 07 	call	0xebe	; 0xebe <in_menus>
			break;
     ea8:	03 c0       	rjmp	.+6      	; 0xeb0 <main+0x2ce>
			
			case PLAYING:
			playing_the_game();
     eaa:	0e 94 be 07 	call	0xf7c	; 0xf7c <playing_the_game>
			break;
     eae:	00 00       	nop
		}
		free(sendmessage);
     eb0:	80 91 a9 03 	lds	r24, 0x03A9
     eb4:	90 91 aa 03 	lds	r25, 0x03AA
     eb8:	0e 94 dd 15 	call	0x2bba	; 0x2bba <free>
	}
     ebc:	b4 ce       	rjmp	.-664    	; 0xc26 <main+0x44>

00000ebe <in_menus>:
	
	return 0;
}

void in_menus(){	
     ebe:	cf 93       	push	r28
     ec0:	df 93       	push	r29
     ec2:	cd b7       	in	r28, 0x3d	; 61
     ec4:	de b7       	in	r29, 0x3e	; 62
     ec6:	60 97       	sbiw	r28, 0x10	; 16
     ec8:	0f b6       	in	r0, 0x3f	; 63
     eca:	f8 94       	cli
     ecc:	de bf       	out	0x3e, r29	; 62
     ece:	0f be       	out	0x3f, r0	; 63
     ed0:	cd bf       	out	0x3d, r28	; 61
	if (menu_printed == 0)
     ed2:	80 91 ae 03 	lds	r24, 0x03AE
     ed6:	88 23       	and	r24, r24
     ed8:	69 f4       	brne	.+26     	; 0xef4 <in_menus+0x36>
	{
		printf("Printing meny\n");
     eda:	88 eb       	ldi	r24, 0xB8	; 184
     edc:	91 e0       	ldi	r25, 0x01	; 1
     ede:	0e 94 69 17 	call	0x2ed2	; 0x2ed2 <puts>
		print_menu(main_menu);
     ee2:	80 91 af 03 	lds	r24, 0x03AF
     ee6:	90 91 b0 03 	lds	r25, 0x03B0
     eea:	0e 94 f5 0b 	call	0x17ea	; 0x17ea <print_menu>
		menu_printed = 1;
     eee:	81 e0       	ldi	r24, 0x01	; 1
     ef0:	80 93 ae 03 	sts	0x03AE, r24
	}
	direction i = NEUTRAL;
     ef4:	84 e0       	ldi	r24, 0x04	; 4
     ef6:	89 83       	std	Y+1, r24	; 0x01
	joyValues j;
	read_joystick(&j);
     ef8:	ce 01       	movw	r24, r28
     efa:	03 96       	adiw	r24, 0x03	; 3
     efc:	0e 94 2c 04 	call	0x858	; 0x858 <read_joystick>
	direction d = joystick_getDirection(j.x_percentage,j.y_percentage);
     f00:	2f 81       	ldd	r18, Y+7	; 0x07
     f02:	38 85       	ldd	r19, Y+8	; 0x08
     f04:	49 85       	ldd	r20, Y+9	; 0x09
     f06:	5a 85       	ldd	r21, Y+10	; 0x0a
     f08:	8b 81       	ldd	r24, Y+3	; 0x03
     f0a:	9c 81       	ldd	r25, Y+4	; 0x04
     f0c:	ad 81       	ldd	r26, Y+5	; 0x05
     f0e:	be 81       	ldd	r27, Y+6	; 0x06
     f10:	bc 01       	movw	r22, r24
     f12:	cd 01       	movw	r24, r26
     f14:	0e 94 b8 04 	call	0x970	; 0x970 <joystick_getDirection>
     f18:	8a 83       	std	Y+2, r24	; 0x02
	//printf("Joystic dir: %d\n",d);
	arrow_line = move_arrow(d,arrow_line);
     f1a:	80 91 0b 01 	lds	r24, 0x010B
     f1e:	68 2f       	mov	r22, r24
     f20:	8a 81       	ldd	r24, Y+2	; 0x02
     f22:	0e 94 7a 0b 	call	0x16f4	; 0x16f4 <move_arrow>
     f26:	80 93 0b 01 	sts	0x010B, r24
	if(j.joystick_button == previous_joystick_button){
     f2a:	2f 85       	ldd	r18, Y+15	; 0x0f
     f2c:	38 89       	ldd	r19, Y+16	; 0x10
     f2e:	80 91 ad 03 	lds	r24, 0x03AD
     f32:	88 2f       	mov	r24, r24
     f34:	90 e0       	ldi	r25, 0x00	; 0
     f36:	28 17       	cp	r18, r24
     f38:	39 07       	cpc	r19, r25
     f3a:	19 f4       	brne	.+6      	; 0xf42 <in_menus+0x84>
		j.joystick_button = 0;
     f3c:	18 8a       	std	Y+16, r1	; 0x10
     f3e:	1f 86       	std	Y+15, r1	; 0x0f
     f40:	02 c0       	rjmp	.+4      	; 0xf46 <in_menus+0x88>
	}
	
	else{
		previous_joystick_button = 0;
     f42:	10 92 ad 03 	sts	0x03AD, r1
	}
	if (j.joystick_button == 1) {
     f46:	8f 85       	ldd	r24, Y+15	; 0x0f
     f48:	98 89       	ldd	r25, Y+16	; 0x10
     f4a:	81 30       	cpi	r24, 0x01	; 1
     f4c:	91 05       	cpc	r25, r1
     f4e:	69 f4       	brne	.+26     	; 0xf6a <in_menus+0xac>
		mode_t = button_action(arrow_line);
     f50:	80 91 0b 01 	lds	r24, 0x010B
     f54:	0e 94 85 0c 	call	0x190a	; 0x190a <button_action>
     f58:	80 93 9d 03 	sts	0x039D, r24
		previous_joystick_button = j.joystick_button;
     f5c:	8f 85       	ldd	r24, Y+15	; 0x0f
     f5e:	98 89       	ldd	r25, Y+16	; 0x10
     f60:	80 93 ad 03 	sts	0x03AD, r24
		arrow_line = 5;
     f64:	85 e0       	ldi	r24, 0x05	; 5
     f66:	80 93 0b 01 	sts	0x010B, r24
	}
}
     f6a:	60 96       	adiw	r28, 0x10	; 16
     f6c:	0f b6       	in	r0, 0x3f	; 63
     f6e:	f8 94       	cli
     f70:	de bf       	out	0x3e, r29	; 62
     f72:	0f be       	out	0x3f, r0	; 63
     f74:	cd bf       	out	0x3d, r28	; 61
     f76:	df 91       	pop	r29
     f78:	cf 91       	pop	r28
     f7a:	08 95       	ret

00000f7c <playing_the_game>:


void playing_the_game(){
     f7c:	cf 93       	push	r28
     f7e:	df 93       	push	r29
     f80:	cd b7       	in	r28, 0x3d	; 61
     f82:	de b7       	in	r29, 0x3e	; 62
     f84:	60 97       	sbiw	r28, 0x10	; 16
     f86:	0f b6       	in	r0, 0x3f	; 63
     f88:	f8 94       	cli
     f8a:	de bf       	out	0x3e, r29	; 62
     f8c:	0f be       	out	0x3f, r0	; 63
     f8e:	cd bf       	out	0x3d, r28	; 61
	send_joystick_data();
     f90:	0e 94 cc 08 	call	0x1198	; 0x1198 <send_joystick_data>
	joyValues j;
	read_joystick(&j);
     f94:	ce 01       	movw	r24, r28
     f96:	03 96       	adiw	r24, 0x03	; 3
     f98:	0e 94 2c 04 	call	0x858	; 0x858 <read_joystick>
	
	//Mottar melding om liv
	if(can_data_received() > 0) {
     f9c:	0e 94 27 03 	call	0x64e	; 0x64e <can_data_received>
     fa0:	88 23       	and	r24, r24
     fa2:	09 f4       	brne	.+2      	; 0xfa6 <playing_the_game+0x2a>
     fa4:	71 c0       	rjmp	.+226    	; 0x1088 <playing_the_game+0x10c>
		can_message* receivemessage = malloc(sizeof(can_message));
     fa6:	8b e0       	ldi	r24, 0x0B	; 11
     fa8:	90 e0       	ldi	r25, 0x00	; 0
     faa:	0e 94 45 15 	call	0x2a8a	; 0x2a8a <malloc>
     fae:	9a 83       	std	Y+2, r25	; 0x02
     fb0:	89 83       	std	Y+1, r24	; 0x01
		can_receive_message(receivemessage);
     fb2:	89 81       	ldd	r24, Y+1	; 0x01
     fb4:	9a 81       	ldd	r25, Y+2	; 0x02
     fb6:	0e 94 b7 02 	call	0x56e	; 0x56e <can_receive_message>
		if(receivemessage->ID == 3) {
     fba:	89 81       	ldd	r24, Y+1	; 0x01
     fbc:	9a 81       	ldd	r25, Y+2	; 0x02
     fbe:	fc 01       	movw	r30, r24
     fc0:	80 81       	ld	r24, Z
     fc2:	91 81       	ldd	r25, Z+1	; 0x01
     fc4:	83 30       	cpi	r24, 0x03	; 3
     fc6:	91 05       	cpc	r25, r1
     fc8:	09 f0       	breq	.+2      	; 0xfcc <playing_the_game+0x50>
     fca:	56 c0       	rjmp	.+172    	; 0x1078 <playing_the_game+0xfc>
			lives--;
     fcc:	80 91 0c 01 	lds	r24, 0x010C
     fd0:	81 50       	subi	r24, 0x01	; 1
     fd2:	80 93 0c 01 	sts	0x010C, r24
			menu_playing(lives);
     fd6:	80 91 0c 01 	lds	r24, 0x010C
     fda:	0e 94 75 0f 	call	0x1eea	; 0x1eea <menu_playing>
			score.byte_value[0] = receivemessage -> data[0];
     fde:	89 81       	ldd	r24, Y+1	; 0x01
     fe0:	9a 81       	ldd	r25, Y+2	; 0x02
     fe2:	fc 01       	movw	r30, r24
     fe4:	83 81       	ldd	r24, Z+3	; 0x03
     fe6:	80 93 ab 03 	sts	0x03AB, r24
			score.byte_value[1] = receivemessage -> data[1];
     fea:	89 81       	ldd	r24, Y+1	; 0x01
     fec:	9a 81       	ldd	r25, Y+2	; 0x02
     fee:	fc 01       	movw	r30, r24
     ff0:	84 81       	ldd	r24, Z+4	; 0x04
     ff2:	80 93 ac 03 	sts	0x03AC, r24
			set_high_score_list(score.int_value);
     ff6:	80 91 ab 03 	lds	r24, 0x03AB
     ffa:	90 91 ac 03 	lds	r25, 0x03AC
     ffe:	0e 94 5b 0e 	call	0x1cb6	; 0x1cb6 <set_high_score_list>
			printf("Number of lives is: %d", (3-receivemessage->data[0]));
    1002:	89 81       	ldd	r24, Y+1	; 0x01
    1004:	9a 81       	ldd	r25, Y+2	; 0x02
    1006:	fc 01       	movw	r30, r24
    1008:	83 81       	ldd	r24, Z+3	; 0x03
    100a:	88 2f       	mov	r24, r24
    100c:	90 e0       	ldi	r25, 0x00	; 0
    100e:	23 e0       	ldi	r18, 0x03	; 3
    1010:	30 e0       	ldi	r19, 0x00	; 0
    1012:	a9 01       	movw	r20, r18
    1014:	48 1b       	sub	r20, r24
    1016:	59 0b       	sbc	r21, r25
    1018:	ca 01       	movw	r24, r20
    101a:	29 2f       	mov	r18, r25
    101c:	2f 93       	push	r18
    101e:	8f 93       	push	r24
    1020:	86 ec       	ldi	r24, 0xC6	; 198
    1022:	91 e0       	ldi	r25, 0x01	; 1
    1024:	89 2f       	mov	r24, r25
    1026:	8f 93       	push	r24
    1028:	86 ec       	ldi	r24, 0xC6	; 198
    102a:	91 e0       	ldi	r25, 0x01	; 1
    102c:	8f 93       	push	r24
    102e:	0e 94 4e 17 	call	0x2e9c	; 0x2e9c <printf>
    1032:	0f 90       	pop	r0
    1034:	0f 90       	pop	r0
    1036:	0f 90       	pop	r0
    1038:	0f 90       	pop	r0
			sendmessage->ID = 2;
    103a:	80 91 a9 03 	lds	r24, 0x03A9
    103e:	90 91 aa 03 	lds	r25, 0x03AA
    1042:	22 e0       	ldi	r18, 0x02	; 2
    1044:	30 e0       	ldi	r19, 0x00	; 0
    1046:	fc 01       	movw	r30, r24
    1048:	31 83       	std	Z+1, r19	; 0x01
    104a:	20 83       	st	Z, r18
			sendmessage->length = 1;
    104c:	80 91 a9 03 	lds	r24, 0x03A9
    1050:	90 91 aa 03 	lds	r25, 0x03AA
    1054:	21 e0       	ldi	r18, 0x01	; 1
    1056:	fc 01       	movw	r30, r24
    1058:	22 83       	std	Z+2, r18	; 0x02
			sendmessage->data[0] = 0;
    105a:	80 91 a9 03 	lds	r24, 0x03A9
    105e:	90 91 aa 03 	lds	r25, 0x03AA
    1062:	fc 01       	movw	r30, r24
    1064:	13 82       	std	Z+3, r1	; 0x03
			can_send_message(sendmessage);
    1066:	80 91 a9 03 	lds	r24, 0x03A9
    106a:	90 91 aa 03 	lds	r25, 0x03AA
    106e:	0e 94 53 02 	call	0x4a6	; 0x4a6 <can_send_message>
			pause = TRUE;
    1072:	81 e0       	ldi	r24, 0x01	; 1
    1074:	80 93 0d 01 	sts	0x010D, r24
		}

		printf("\n");
    1078:	8a e0       	ldi	r24, 0x0A	; 10
    107a:	90 e0       	ldi	r25, 0x00	; 0
    107c:	0e 94 62 17 	call	0x2ec4	; 0x2ec4 <putchar>
		free(receivemessage);
    1080:	89 81       	ldd	r24, Y+1	; 0x01
    1082:	9a 81       	ldd	r25, Y+2	; 0x02
    1084:	0e 94 dd 15 	call	0x2bba	; 0x2bba <free>
	}
	
	// Avslutter spill om man er tom for liv eller trykker på høyre knapp
	if(j.right_button == 1){
    1088:	8d 85       	ldd	r24, Y+13	; 0x0d
    108a:	9e 85       	ldd	r25, Y+14	; 0x0e
    108c:	81 30       	cpi	r24, 0x01	; 1
    108e:	91 05       	cpc	r25, r1
    1090:	49 f5       	brne	.+82     	; 0x10e4 <playing_the_game+0x168>
		sendmessage->ID = 2;
    1092:	80 91 a9 03 	lds	r24, 0x03A9
    1096:	90 91 aa 03 	lds	r25, 0x03AA
    109a:	22 e0       	ldi	r18, 0x02	; 2
    109c:	30 e0       	ldi	r19, 0x00	; 0
    109e:	fc 01       	movw	r30, r24
    10a0:	31 83       	std	Z+1, r19	; 0x01
    10a2:	20 83       	st	Z, r18
		sendmessage->length = 1;
    10a4:	80 91 a9 03 	lds	r24, 0x03A9
    10a8:	90 91 aa 03 	lds	r25, 0x03AA
    10ac:	21 e0       	ldi	r18, 0x01	; 1
    10ae:	fc 01       	movw	r30, r24
    10b0:	22 83       	std	Z+2, r18	; 0x02
		sendmessage->data[0] = 0;
    10b2:	80 91 a9 03 	lds	r24, 0x03A9
    10b6:	90 91 aa 03 	lds	r25, 0x03AA
    10ba:	fc 01       	movw	r30, r24
    10bc:	13 82       	std	Z+3, r1	; 0x03
		can_send_message(sendmessage);
    10be:	80 91 a9 03 	lds	r24, 0x03A9
    10c2:	90 91 aa 03 	lds	r25, 0x03AA
    10c6:	0e 94 53 02 	call	0x4a6	; 0x4a6 <can_send_message>
		restart_game_mode();
    10ca:	0e 94 52 0e 	call	0x1ca4	; 0x1ca4 <restart_game_mode>
		game_initialized = FALSE;
    10ce:	10 92 9e 03 	sts	0x039E, r1
		mode_t = MENU;
    10d2:	10 92 9d 03 	sts	0x039D, r1
		arrow_line=5;
    10d6:	85 e0       	ldi	r24, 0x05	; 5
    10d8:	80 93 0b 01 	sts	0x010B, r24
		button_action(arrow_line);
    10dc:	80 91 0b 01 	lds	r24, 0x010B
    10e0:	0e 94 85 0c 	call	0x190a	; 0x190a <button_action>
	}
	// Start again with left button
	if(j.left_button == 1) 
    10e4:	8b 85       	ldd	r24, Y+11	; 0x0b
    10e6:	9c 85       	ldd	r25, Y+12	; 0x0c
    10e8:	81 30       	cpi	r24, 0x01	; 1
    10ea:	91 05       	cpc	r25, r1
    10ec:	01 f5       	brne	.+64     	; 0x112e <playing_the_game+0x1b2>
	{
		sendmessage->ID = 2;
    10ee:	80 91 a9 03 	lds	r24, 0x03A9
    10f2:	90 91 aa 03 	lds	r25, 0x03AA
    10f6:	22 e0       	ldi	r18, 0x02	; 2
    10f8:	30 e0       	ldi	r19, 0x00	; 0
    10fa:	fc 01       	movw	r30, r24
    10fc:	31 83       	std	Z+1, r19	; 0x01
    10fe:	20 83       	st	Z, r18
		sendmessage->length = 1;
    1100:	80 91 a9 03 	lds	r24, 0x03A9
    1104:	90 91 aa 03 	lds	r25, 0x03AA
    1108:	21 e0       	ldi	r18, 0x01	; 1
    110a:	fc 01       	movw	r30, r24
    110c:	22 83       	std	Z+2, r18	; 0x02
		sendmessage->data[0] = 1;
    110e:	80 91 a9 03 	lds	r24, 0x03A9
    1112:	90 91 aa 03 	lds	r25, 0x03AA
    1116:	21 e0       	ldi	r18, 0x01	; 1
    1118:	fc 01       	movw	r30, r24
    111a:	23 83       	std	Z+3, r18	; 0x03
		can_send_message(sendmessage);
    111c:	80 91 a9 03 	lds	r24, 0x03A9
    1120:	90 91 aa 03 	lds	r25, 0x03AA
    1124:	0e 94 53 02 	call	0x4a6	; 0x4a6 <can_send_message>
		pause = FALSE;
    1128:	10 92 0d 01 	sts	0x010D, r1
    112c:	2c c0       	rjmp	.+88     	; 0x1186 <playing_the_game+0x20a>
		
	}
	else if (lives == 0)
    112e:	80 91 0c 01 	lds	r24, 0x010C
    1132:	88 23       	and	r24, r24
    1134:	41 f5       	brne	.+80     	; 0x1186 <playing_the_game+0x20a>
	{
		sendmessage->ID = 2;
    1136:	80 91 a9 03 	lds	r24, 0x03A9
    113a:	90 91 aa 03 	lds	r25, 0x03AA
    113e:	22 e0       	ldi	r18, 0x02	; 2
    1140:	30 e0       	ldi	r19, 0x00	; 0
    1142:	fc 01       	movw	r30, r24
    1144:	31 83       	std	Z+1, r19	; 0x01
    1146:	20 83       	st	Z, r18
		sendmessage->length = 1;
    1148:	80 91 a9 03 	lds	r24, 0x03A9
    114c:	90 91 aa 03 	lds	r25, 0x03AA
    1150:	21 e0       	ldi	r18, 0x01	; 1
    1152:	fc 01       	movw	r30, r24
    1154:	22 83       	std	Z+2, r18	; 0x02
		sendmessage->data[0] = 0;
    1156:	80 91 a9 03 	lds	r24, 0x03A9
    115a:	90 91 aa 03 	lds	r25, 0x03AA
    115e:	fc 01       	movw	r30, r24
    1160:	13 82       	std	Z+3, r1	; 0x03
		can_send_message(sendmessage);
    1162:	80 91 a9 03 	lds	r24, 0x03A9
    1166:	90 91 aa 03 	lds	r25, 0x03AA
    116a:	0e 94 53 02 	call	0x4a6	; 0x4a6 <can_send_message>
		game_initialized = FALSE;
    116e:	10 92 9e 03 	sts	0x039E, r1
		restart_game_mode();
    1172:	0e 94 52 0e 	call	0x1ca4	; 0x1ca4 <restart_game_mode>
		mode_t = MENU;
    1176:	10 92 9d 03 	sts	0x039D, r1
		button_action(5); //Går til main menu
    117a:	85 e0       	ldi	r24, 0x05	; 5
    117c:	0e 94 85 0c 	call	0x190a	; 0x190a <button_action>
		navigateMenu(6); //Går til highscore
    1180:	86 e0       	ldi	r24, 0x06	; 6
    1182:	0e 94 5b 0d 	call	0x1ab6	; 0x1ab6 <navigateMenu>
	}
	
}
    1186:	60 96       	adiw	r28, 0x10	; 16
    1188:	0f b6       	in	r0, 0x3f	; 63
    118a:	f8 94       	cli
    118c:	de bf       	out	0x3e, r29	; 62
    118e:	0f be       	out	0x3f, r0	; 63
    1190:	cd bf       	out	0x3d, r28	; 61
    1192:	df 91       	pop	r29
    1194:	cf 91       	pop	r28
    1196:	08 95       	ret

00001198 <send_joystick_data>:


uint8_t send_joystick_data() {
    1198:	cf 93       	push	r28
    119a:	df 93       	push	r29
    119c:	cd b7       	in	r28, 0x3d	; 61
    119e:	de b7       	in	r29, 0x3e	; 62
    11a0:	64 97       	sbiw	r28, 0x14	; 20
    11a2:	0f b6       	in	r0, 0x3f	; 63
    11a4:	f8 94       	cli
    11a6:	de bf       	out	0x3e, r29	; 62
    11a8:	0f be       	out	0x3f, r0	; 63
    11aa:	cd bf       	out	0x3d, r28	; 61
	joyValues j;
	read_joystick(&j);
    11ac:	ce 01       	movw	r24, r28
    11ae:	03 96       	adiw	r24, 0x03	; 3
    11b0:	0e 94 2c 04 	call	0x858	; 0x858 <read_joystick>
	int_union_bytes x_axis;
	int_union_bytes y_axis;
	uint8_t dir = (uint8_t) joystick_getDirection(j.x_percentage,j.y_percentage);
    11b4:	2f 81       	ldd	r18, Y+7	; 0x07
    11b6:	38 85       	ldd	r19, Y+8	; 0x08
    11b8:	49 85       	ldd	r20, Y+9	; 0x09
    11ba:	5a 85       	ldd	r21, Y+10	; 0x0a
    11bc:	8b 81       	ldd	r24, Y+3	; 0x03
    11be:	9c 81       	ldd	r25, Y+4	; 0x04
    11c0:	ad 81       	ldd	r26, Y+5	; 0x05
    11c2:	be 81       	ldd	r27, Y+6	; 0x06
    11c4:	bc 01       	movw	r22, r24
    11c6:	cd 01       	movw	r24, r26
    11c8:	0e 94 b8 04 	call	0x970	; 0x970 <joystick_getDirection>
    11cc:	89 83       	std	Y+1, r24	; 0x01
	x_axis.int_value = (int) j.x_percentage;
    11ce:	8b 81       	ldd	r24, Y+3	; 0x03
    11d0:	9c 81       	ldd	r25, Y+4	; 0x04
    11d2:	ad 81       	ldd	r26, Y+5	; 0x05
    11d4:	be 81       	ldd	r27, Y+6	; 0x06
    11d6:	bc 01       	movw	r22, r24
    11d8:	cd 01       	movw	r24, r26
    11da:	0e 94 d3 13 	call	0x27a6	; 0x27a6 <__fixsfsi>
    11de:	dc 01       	movw	r26, r24
    11e0:	cb 01       	movw	r24, r22
    11e2:	9a 8b       	std	Y+18, r25	; 0x12
    11e4:	89 8b       	std	Y+17, r24	; 0x11
	y_axis.int_value = (int) j.y_percentage;
    11e6:	8f 81       	ldd	r24, Y+7	; 0x07
    11e8:	98 85       	ldd	r25, Y+8	; 0x08
    11ea:	a9 85       	ldd	r26, Y+9	; 0x09
    11ec:	ba 85       	ldd	r27, Y+10	; 0x0a
    11ee:	bc 01       	movw	r22, r24
    11f0:	cd 01       	movw	r24, r26
    11f2:	0e 94 d3 13 	call	0x27a6	; 0x27a6 <__fixsfsi>
    11f6:	dc 01       	movw	r26, r24
    11f8:	cb 01       	movw	r24, r22
    11fa:	9c 8b       	std	Y+20, r25	; 0x14
    11fc:	8b 8b       	std	Y+19, r24	; 0x13
	uint8_t slider = joystick_get_right_slider();
    11fe:	0e 94 a2 05 	call	0xb44	; 0xb44 <joystick_get_right_slider>
    1202:	8a 83       	std	Y+2, r24	; 0x02
	sendmessage->ID = 1;
    1204:	80 91 a9 03 	lds	r24, 0x03A9
    1208:	90 91 aa 03 	lds	r25, 0x03AA
    120c:	21 e0       	ldi	r18, 0x01	; 1
    120e:	30 e0       	ldi	r19, 0x00	; 0
    1210:	fc 01       	movw	r30, r24
    1212:	31 83       	std	Z+1, r19	; 0x01
    1214:	20 83       	st	Z, r18
	sendmessage->length=7;
    1216:	80 91 a9 03 	lds	r24, 0x03A9
    121a:	90 91 aa 03 	lds	r25, 0x03AA
    121e:	27 e0       	ldi	r18, 0x07	; 7
    1220:	fc 01       	movw	r30, r24
    1222:	22 83       	std	Z+2, r18	; 0x02

	sendmessage->data[0] = j.left_button;
    1224:	80 91 a9 03 	lds	r24, 0x03A9
    1228:	90 91 aa 03 	lds	r25, 0x03AA
    122c:	2b 85       	ldd	r18, Y+11	; 0x0b
    122e:	3c 85       	ldd	r19, Y+12	; 0x0c
    1230:	fc 01       	movw	r30, r24
    1232:	23 83       	std	Z+3, r18	; 0x03
	sendmessage->data[1] = j.right_button;
    1234:	80 91 a9 03 	lds	r24, 0x03A9
    1238:	90 91 aa 03 	lds	r25, 0x03AA
    123c:	2d 85       	ldd	r18, Y+13	; 0x0d
    123e:	3e 85       	ldd	r19, Y+14	; 0x0e
    1240:	fc 01       	movw	r30, r24
    1242:	24 83       	std	Z+4, r18	; 0x04
	sendmessage->data[2] = j.joystick_button;
    1244:	80 91 a9 03 	lds	r24, 0x03A9
    1248:	90 91 aa 03 	lds	r25, 0x03AA
    124c:	2f 85       	ldd	r18, Y+15	; 0x0f
    124e:	38 89       	ldd	r19, Y+16	; 0x10
    1250:	fc 01       	movw	r30, r24
    1252:	25 83       	std	Z+5, r18	; 0x05
	sendmessage->data[3] = dir;
    1254:	80 91 a9 03 	lds	r24, 0x03A9
    1258:	90 91 aa 03 	lds	r25, 0x03AA
    125c:	29 81       	ldd	r18, Y+1	; 0x01
    125e:	fc 01       	movw	r30, r24
    1260:	26 83       	std	Z+6, r18	; 0x06
	sendmessage->data[4] = x_axis.byte_value[0];
    1262:	80 91 a9 03 	lds	r24, 0x03A9
    1266:	90 91 aa 03 	lds	r25, 0x03AA
    126a:	29 89       	ldd	r18, Y+17	; 0x11
    126c:	fc 01       	movw	r30, r24
    126e:	27 83       	std	Z+7, r18	; 0x07
	sendmessage->data[5] = x_axis.byte_value[1];
    1270:	80 91 a9 03 	lds	r24, 0x03A9
    1274:	90 91 aa 03 	lds	r25, 0x03AA
    1278:	2a 89       	ldd	r18, Y+18	; 0x12
    127a:	fc 01       	movw	r30, r24
    127c:	20 87       	std	Z+8, r18	; 0x08
	//printf("X axis data 1: %d data 2: %d\n", (x_axis.bytes_axis[0]), (x_axis.bytes_axis[1]));
	sendmessage->data[6] = slider;
    127e:	80 91 a9 03 	lds	r24, 0x03A9
    1282:	90 91 aa 03 	lds	r25, 0x03AA
    1286:	2a 81       	ldd	r18, Y+2	; 0x02
    1288:	fc 01       	movw	r30, r24
    128a:	21 87       	std	Z+9, r18	; 0x09
	return can_send_message(sendmessage);
    128c:	80 91 a9 03 	lds	r24, 0x03A9
    1290:	90 91 aa 03 	lds	r25, 0x03AA
    1294:	0e 94 53 02 	call	0x4a6	; 0x4a6 <can_send_message>
	
}
    1298:	64 96       	adiw	r28, 0x14	; 20
    129a:	0f b6       	in	r0, 0x3f	; 63
    129c:	f8 94       	cli
    129e:	de bf       	out	0x3e, r29	; 62
    12a0:	0f be       	out	0x3f, r0	; 63
    12a2:	cd bf       	out	0x3d, r28	; 61
    12a4:	df 91       	pop	r29
    12a6:	cf 91       	pop	r28
    12a8:	08 95       	ret

000012aa <initializations>:


void initializations(){
    12aa:	cf 93       	push	r28
    12ac:	df 93       	push	r29
    12ae:	00 d0       	rcall	.+0      	; 0x12b0 <initializations+0x6>
    12b0:	cd b7       	in	r28, 0x3d	; 61
    12b2:	de b7       	in	r29, 0x3e	; 62
	//static volatile long temp = F_OSC; //For testing
	//Breakpoint x2
	// Enable external memory
	set_bit(MCUCR,SRE);
    12b4:	85 e5       	ldi	r24, 0x55	; 85
    12b6:	90 e0       	ldi	r25, 0x00	; 0
    12b8:	25 e5       	ldi	r18, 0x55	; 85
    12ba:	30 e0       	ldi	r19, 0x00	; 0
    12bc:	f9 01       	movw	r30, r18
    12be:	20 81       	ld	r18, Z
    12c0:	20 68       	ori	r18, 0x80	; 128
    12c2:	fc 01       	movw	r30, r24
    12c4:	20 83       	st	Z, r18
	// Mask PC7-PC4
	set_bit(SFIOR,XMM2);
    12c6:	80 e5       	ldi	r24, 0x50	; 80
    12c8:	90 e0       	ldi	r25, 0x00	; 0
    12ca:	20 e5       	ldi	r18, 0x50	; 80
    12cc:	30 e0       	ldi	r19, 0x00	; 0
    12ce:	f9 01       	movw	r30, r18
    12d0:	20 81       	ld	r18, Z
    12d2:	20 62       	ori	r18, 0x20	; 32
    12d4:	fc 01       	movw	r30, r24
    12d6:	20 83       	st	Z, r18
	int baud = (int) MYUBRR;
    12d8:	8f e1       	ldi	r24, 0x1F	; 31
    12da:	90 e0       	ldi	r25, 0x00	; 0
    12dc:	9a 83       	std	Y+2, r25	; 0x02
    12de:	89 83       	std	Y+1, r24	; 0x01
	USART_Init(baud);
    12e0:	89 81       	ldd	r24, Y+1	; 0x01
    12e2:	9a 81       	ldd	r25, Y+2	; 0x02
    12e4:	0e 94 9b 12 	call	0x2536	; 0x2536 <USART_Init>
	printf("HEHH\n");
    12e8:	8d ed       	ldi	r24, 0xDD	; 221
    12ea:	91 e0       	ldi	r25, 0x01	; 1
    12ec:	0e 94 69 17 	call	0x2ed2	; 0x2ed2 <puts>
	sram_setup();
    12f0:	0e 94 b7 11 	call	0x236e	; 0x236e <sram_setup>
	SRAM_test();
    12f4:	0e 94 c0 11 	call	0x2380	; 0x2380 <SRAM_test>
	setup_ADC();
    12f8:	0e 94 d3 01 	call	0x3a6	; 0x3a6 <setup_ADC>
	joystick_init();
    12fc:	0e 94 e9 03 	call	0x7d2	; 0x7d2 <joystick_init>
	oled_init();
    1300:	0e 94 a2 0f 	call	0x1f44	; 0x1f44 <oled_init>
	main_menu = menu_init();
    1304:	0e 94 ca 0a 	call	0x1594	; 0x1594 <menu_init>
    1308:	90 93 b0 03 	sts	0x03B0, r25
    130c:	80 93 af 03 	sts	0x03AF, r24
	can_init();
    1310:	0e 94 1a 02 	call	0x434	; 0x434 <can_init>

}
    1314:	0f 90       	pop	r0
    1316:	0f 90       	pop	r0
    1318:	df 91       	pop	r29
    131a:	cf 91       	pop	r28
    131c:	08 95       	ret

0000131e <mcp_2515_init>:
#include "USART.h"
#include "setup.h"
#include <stdlib.h>
#include <util/delay.h>

uint8_t mcp_2515_init(){
    131e:	cf 93       	push	r28
    1320:	df 93       	push	r29
    1322:	cd b7       	in	r28, 0x3d	; 61
    1324:	de b7       	in	r29, 0x3e	; 62
    1326:	2f 97       	sbiw	r28, 0x0f	; 15
    1328:	0f b6       	in	r0, 0x3f	; 63
    132a:	f8 94       	cli
    132c:	de bf       	out	0x3e, r29	; 62
    132e:	0f be       	out	0x3f, r0	; 63
    1330:	cd bf       	out	0x3d, r28	; 61
	volatile uint8_t value;
	
	spi_init();
    1332:	0e 94 4d 11 	call	0x229a	; 0x229a <spi_init>
	mcp_2515_reset();
    1336:	0e 94 bc 0a 	call	0x1578	; 0x1578 <mcp_2515_reset>
    133a:	80 e0       	ldi	r24, 0x00	; 0
    133c:	90 e0       	ldi	r25, 0x00	; 0
    133e:	a0 e2       	ldi	r26, 0x20	; 32
    1340:	b1 e4       	ldi	r27, 0x41	; 65
    1342:	89 83       	std	Y+1, r24	; 0x01
    1344:	9a 83       	std	Y+2, r25	; 0x02
    1346:	ab 83       	std	Y+3, r26	; 0x03
    1348:	bc 83       	std	Y+4, r27	; 0x04

	__builtin_avr_delay_cycles(__ticks_dc);

#else
	uint16_t __ticks;
	__tmp = ((F_CPU) / 4e3) * __ms;
    134a:	2a e9       	ldi	r18, 0x9A	; 154
    134c:	39 e9       	ldi	r19, 0x99	; 153
    134e:	49 e9       	ldi	r20, 0x99	; 153
    1350:	54 e4       	ldi	r21, 0x44	; 68
    1352:	69 81       	ldd	r22, Y+1	; 0x01
    1354:	7a 81       	ldd	r23, Y+2	; 0x02
    1356:	8b 81       	ldd	r24, Y+3	; 0x03
    1358:	9c 81       	ldd	r25, Y+4	; 0x04
    135a:	0e 94 ba 14 	call	0x2974	; 0x2974 <__mulsf3>
    135e:	dc 01       	movw	r26, r24
    1360:	cb 01       	movw	r24, r22
    1362:	8d 83       	std	Y+5, r24	; 0x05
    1364:	9e 83       	std	Y+6, r25	; 0x06
    1366:	af 83       	std	Y+7, r26	; 0x07
    1368:	b8 87       	std	Y+8, r27	; 0x08
	if (__tmp < 1.0)
    136a:	20 e0       	ldi	r18, 0x00	; 0
    136c:	30 e0       	ldi	r19, 0x00	; 0
    136e:	40 e8       	ldi	r20, 0x80	; 128
    1370:	5f e3       	ldi	r21, 0x3F	; 63
    1372:	6d 81       	ldd	r22, Y+5	; 0x05
    1374:	7e 81       	ldd	r23, Y+6	; 0x06
    1376:	8f 81       	ldd	r24, Y+7	; 0x07
    1378:	98 85       	ldd	r25, Y+8	; 0x08
    137a:	0e 94 67 13 	call	0x26ce	; 0x26ce <__cmpsf2>
    137e:	88 23       	and	r24, r24
    1380:	2c f4       	brge	.+10     	; 0x138c <mcp_2515_init+0x6e>
		__ticks = 1;
    1382:	81 e0       	ldi	r24, 0x01	; 1
    1384:	90 e0       	ldi	r25, 0x00	; 0
    1386:	9a 87       	std	Y+10, r25	; 0x0a
    1388:	89 87       	std	Y+9, r24	; 0x09
    138a:	3f c0       	rjmp	.+126    	; 0x140a <mcp_2515_init+0xec>
	else if (__tmp > 65535)
    138c:	20 e0       	ldi	r18, 0x00	; 0
    138e:	3f ef       	ldi	r19, 0xFF	; 255
    1390:	4f e7       	ldi	r20, 0x7F	; 127
    1392:	57 e4       	ldi	r21, 0x47	; 71
    1394:	6d 81       	ldd	r22, Y+5	; 0x05
    1396:	7e 81       	ldd	r23, Y+6	; 0x06
    1398:	8f 81       	ldd	r24, Y+7	; 0x07
    139a:	98 85       	ldd	r25, Y+8	; 0x08
    139c:	0e 94 b6 14 	call	0x296c	; 0x296c <__gesf2>
    13a0:	18 16       	cp	r1, r24
    13a2:	4c f5       	brge	.+82     	; 0x13f6 <mcp_2515_init+0xd8>
	{
		//	__ticks = requested delay in 1/10 ms
		__ticks = (uint16_t) (__ms * 10.0);
    13a4:	20 e0       	ldi	r18, 0x00	; 0
    13a6:	30 e0       	ldi	r19, 0x00	; 0
    13a8:	40 e2       	ldi	r20, 0x20	; 32
    13aa:	51 e4       	ldi	r21, 0x41	; 65
    13ac:	69 81       	ldd	r22, Y+1	; 0x01
    13ae:	7a 81       	ldd	r23, Y+2	; 0x02
    13b0:	8b 81       	ldd	r24, Y+3	; 0x03
    13b2:	9c 81       	ldd	r25, Y+4	; 0x04
    13b4:	0e 94 ba 14 	call	0x2974	; 0x2974 <__mulsf3>
    13b8:	dc 01       	movw	r26, r24
    13ba:	cb 01       	movw	r24, r22
    13bc:	bc 01       	movw	r22, r24
    13be:	cd 01       	movw	r24, r26
    13c0:	0e 94 d8 13 	call	0x27b0	; 0x27b0 <__fixunssfsi>
    13c4:	dc 01       	movw	r26, r24
    13c6:	cb 01       	movw	r24, r22
    13c8:	9a 87       	std	Y+10, r25	; 0x0a
    13ca:	89 87       	std	Y+9, r24	; 0x09
    13cc:	0f c0       	rjmp	.+30     	; 0x13ec <mcp_2515_init+0xce>
    13ce:	8a e7       	ldi	r24, 0x7A	; 122
    13d0:	90 e0       	ldi	r25, 0x00	; 0
    13d2:	9c 87       	std	Y+12, r25	; 0x0c
    13d4:	8b 87       	std	Y+11, r24	; 0x0b
    13d6:	8b 85       	ldd	r24, Y+11	; 0x0b
    13d8:	9c 85       	ldd	r25, Y+12	; 0x0c
    13da:	01 97       	sbiw	r24, 0x01	; 1
    13dc:	f1 f7       	brne	.-4      	; 0x13da <mcp_2515_init+0xbc>
    13de:	9c 87       	std	Y+12, r25	; 0x0c
    13e0:	8b 87       	std	Y+11, r24	; 0x0b
		while(__ticks)
		{
			// wait 1/10 ms
			_delay_loop_2(((F_CPU) / 4e3) / 10);
			__ticks --;
    13e2:	89 85       	ldd	r24, Y+9	; 0x09
    13e4:	9a 85       	ldd	r25, Y+10	; 0x0a
    13e6:	01 97       	sbiw	r24, 0x01	; 1
    13e8:	9a 87       	std	Y+10, r25	; 0x0a
    13ea:	89 87       	std	Y+9, r24	; 0x09
		__ticks = 1;
	else if (__tmp > 65535)
	{
		//	__ticks = requested delay in 1/10 ms
		__ticks = (uint16_t) (__ms * 10.0);
		while(__ticks)
    13ec:	89 85       	ldd	r24, Y+9	; 0x09
    13ee:	9a 85       	ldd	r25, Y+10	; 0x0a
    13f0:	00 97       	sbiw	r24, 0x00	; 0
    13f2:	69 f7       	brne	.-38     	; 0x13ce <mcp_2515_init+0xb0>
    13f4:	14 c0       	rjmp	.+40     	; 0x141e <mcp_2515_init+0x100>
			__ticks --;
		}
		return;
	}
	else
		__ticks = (uint16_t)__tmp;
    13f6:	6d 81       	ldd	r22, Y+5	; 0x05
    13f8:	7e 81       	ldd	r23, Y+6	; 0x06
    13fa:	8f 81       	ldd	r24, Y+7	; 0x07
    13fc:	98 85       	ldd	r25, Y+8	; 0x08
    13fe:	0e 94 d8 13 	call	0x27b0	; 0x27b0 <__fixunssfsi>
    1402:	dc 01       	movw	r26, r24
    1404:	cb 01       	movw	r24, r22
    1406:	9a 87       	std	Y+10, r25	; 0x0a
    1408:	89 87       	std	Y+9, r24	; 0x09
    140a:	89 85       	ldd	r24, Y+9	; 0x09
    140c:	9a 85       	ldd	r25, Y+10	; 0x0a
    140e:	9e 87       	std	Y+14, r25	; 0x0e
    1410:	8d 87       	std	Y+13, r24	; 0x0d
    1412:	8d 85       	ldd	r24, Y+13	; 0x0d
    1414:	9e 85       	ldd	r25, Y+14	; 0x0e
    1416:	01 97       	sbiw	r24, 0x01	; 1
    1418:	f1 f7       	brne	.-4      	; 0x1416 <mcp_2515_init+0xf8>
    141a:	9e 87       	std	Y+14, r25	; 0x0e
    141c:	8d 87       	std	Y+13, r24	; 0x0d
	_delay_ms(10);
	//Self-test
	value = mcp_2515_read(MCP_CANSTAT);
    141e:	8e e0       	ldi	r24, 0x0E	; 14
    1420:	0e 94 5a 0a 	call	0x14b4	; 0x14b4 <mcp_2515_read>
    1424:	8f 87       	std	Y+15, r24	; 0x0f
	if ((value & MODE_MASK) != MODE_CONFIG)
    1426:	8f 85       	ldd	r24, Y+15	; 0x0f
    1428:	88 2f       	mov	r24, r24
    142a:	90 e0       	ldi	r25, 0x00	; 0
    142c:	80 7e       	andi	r24, 0xE0	; 224
    142e:	99 27       	eor	r25, r25
    1430:	80 38       	cpi	r24, 0x80	; 128
    1432:	91 05       	cpc	r25, r1
    1434:	31 f0       	breq	.+12     	; 0x1442 <mcp_2515_init+0x124>
	{
		printf("MCP2515 is NOT in configuration mode after reset!\n");
    1436:	82 ee       	ldi	r24, 0xE2	; 226
    1438:	91 e0       	ldi	r25, 0x01	; 1
    143a:	0e 94 69 17 	call	0x2ed2	; 0x2ed2 <puts>
		return 1;
    143e:	81 e0       	ldi	r24, 0x01	; 1
    1440:	14 c0       	rjmp	.+40     	; 0x146a <mcp_2515_init+0x14c>
	}
	printf("MCP2515 mode after init: %d\n", value);
    1442:	8f 85       	ldd	r24, Y+15	; 0x0f
    1444:	88 2f       	mov	r24, r24
    1446:	90 e0       	ldi	r25, 0x00	; 0
    1448:	29 2f       	mov	r18, r25
    144a:	2f 93       	push	r18
    144c:	8f 93       	push	r24
    144e:	84 e1       	ldi	r24, 0x14	; 20
    1450:	92 e0       	ldi	r25, 0x02	; 2
    1452:	89 2f       	mov	r24, r25
    1454:	8f 93       	push	r24
    1456:	84 e1       	ldi	r24, 0x14	; 20
    1458:	92 e0       	ldi	r25, 0x02	; 2
    145a:	8f 93       	push	r24
    145c:	0e 94 4e 17 	call	0x2e9c	; 0x2e9c <printf>
    1460:	0f 90       	pop	r0
    1462:	0f 90       	pop	r0
    1464:	0f 90       	pop	r0
    1466:	0f 90       	pop	r0
	
	
	return 0;
    1468:	80 e0       	ldi	r24, 0x00	; 0
}
    146a:	2f 96       	adiw	r28, 0x0f	; 15
    146c:	0f b6       	in	r0, 0x3f	; 63
    146e:	f8 94       	cli
    1470:	de bf       	out	0x3e, r29	; 62
    1472:	0f be       	out	0x3f, r0	; 63
    1474:	cd bf       	out	0x3d, r28	; 61
    1476:	df 91       	pop	r29
    1478:	cf 91       	pop	r28
    147a:	08 95       	ret

0000147c <mcp_2515_enable_normal_operation>:
	}
	return 0;
}

uint8_t mcp_2515_enable_normal_operation()
{
    147c:	cf 93       	push	r28
    147e:	df 93       	push	r29
    1480:	1f 92       	push	r1
    1482:	cd b7       	in	r28, 0x3d	; 61
    1484:	de b7       	in	r29, 0x3e	; 62
	// Enable normal operation in the CANCTRL-register
	mcp_2515_bit_modify(MCP_CANCTRL,MODE_MASK,MODE_NORMAL);
    1486:	40 e0       	ldi	r20, 0x00	; 0
    1488:	60 ee       	ldi	r22, 0xE0	; 224
    148a:	8f e0       	ldi	r24, 0x0F	; 15
    148c:	0e 94 9d 0a 	call	0x153a	; 0x153a <mcp_2515_bit_modify>
	// Check if normal mode is enabled
	volatile uint8_t value = mcp_2515_read(MCP_CANSTAT);
    1490:	8e e0       	ldi	r24, 0x0E	; 14
    1492:	0e 94 5a 0a 	call	0x14b4	; 0x14b4 <mcp_2515_read>
    1496:	89 83       	std	Y+1, r24	; 0x01
	if ((value & MODE_MASK) != MODE_NORMAL)
    1498:	89 81       	ldd	r24, Y+1	; 0x01
    149a:	88 2f       	mov	r24, r24
    149c:	90 e0       	ldi	r25, 0x00	; 0
    149e:	80 7e       	andi	r24, 0xE0	; 224
    14a0:	99 27       	eor	r25, r25
    14a2:	00 97       	sbiw	r24, 0x00	; 0
    14a4:	11 f0       	breq	.+4      	; 0x14aa <mcp_2515_enable_normal_operation+0x2e>
	{
		return 1;
    14a6:	81 e0       	ldi	r24, 0x01	; 1
    14a8:	01 c0       	rjmp	.+2      	; 0x14ac <mcp_2515_enable_normal_operation+0x30>
	}
	return 0;
    14aa:	80 e0       	ldi	r24, 0x00	; 0
}
    14ac:	0f 90       	pop	r0
    14ae:	df 91       	pop	r29
    14b0:	cf 91       	pop	r28
    14b2:	08 95       	ret

000014b4 <mcp_2515_read>:


uint8_t mcp_2515_read(uint8_t address){
    14b4:	cf 93       	push	r28
    14b6:	df 93       	push	r29
    14b8:	00 d0       	rcall	.+0      	; 0x14ba <mcp_2515_read+0x6>
    14ba:	cd b7       	in	r28, 0x3d	; 61
    14bc:	de b7       	in	r29, 0x3e	; 62
    14be:	8a 83       	std	Y+2, r24	; 0x02
	uint8_t result;
	// Enable slave
	spi_enable();
    14c0:	0e 94 97 11 	call	0x232e	; 0x232e <spi_enable>
	
	// Send read-command and address to be read
	spi_send(MCP_READ); 
    14c4:	83 e0       	ldi	r24, 0x03	; 3
    14c6:	0e 94 6b 11 	call	0x22d6	; 0x22d6 <spi_send>
	spi_send(address);
    14ca:	8a 81       	ldd	r24, Y+2	; 0x02
    14cc:	0e 94 6b 11 	call	0x22d6	; 0x22d6 <spi_send>
	// Read back result
	result = spi_read();
    14d0:	0e 94 81 11 	call	0x2302	; 0x2302 <spi_read>
    14d4:	89 83       	std	Y+1, r24	; 0x01
	
	// Disable slave
	spi_disable();
    14d6:	0e 94 a7 11 	call	0x234e	; 0x234e <spi_disable>
	return result;
    14da:	89 81       	ldd	r24, Y+1	; 0x01
}
    14dc:	0f 90       	pop	r0
    14de:	0f 90       	pop	r0
    14e0:	df 91       	pop	r29
    14e2:	cf 91       	pop	r28
    14e4:	08 95       	ret

000014e6 <mcp_2515_write>:

void mcp_2515_write(uint8_t address, uint8_t data){
    14e6:	cf 93       	push	r28
    14e8:	df 93       	push	r29
    14ea:	00 d0       	rcall	.+0      	; 0x14ec <mcp_2515_write+0x6>
    14ec:	cd b7       	in	r28, 0x3d	; 61
    14ee:	de b7       	in	r29, 0x3e	; 62
    14f0:	89 83       	std	Y+1, r24	; 0x01
    14f2:	6a 83       	std	Y+2, r22	; 0x02
	// Enable slave
	spi_enable();
    14f4:	0e 94 97 11 	call	0x232e	; 0x232e <spi_enable>
	
	// Send write-command, address and data
	spi_send(MCP_WRITE);
    14f8:	82 e0       	ldi	r24, 0x02	; 2
    14fa:	0e 94 6b 11 	call	0x22d6	; 0x22d6 <spi_send>
	spi_send(address);
    14fe:	89 81       	ldd	r24, Y+1	; 0x01
    1500:	0e 94 6b 11 	call	0x22d6	; 0x22d6 <spi_send>
	spi_send(data);
    1504:	8a 81       	ldd	r24, Y+2	; 0x02
    1506:	0e 94 6b 11 	call	0x22d6	; 0x22d6 <spi_send>
	
	// Disable slave
	spi_disable();
    150a:	0e 94 a7 11 	call	0x234e	; 0x234e <spi_disable>
}
    150e:	0f 90       	pop	r0
    1510:	0f 90       	pop	r0
    1512:	df 91       	pop	r29
    1514:	cf 91       	pop	r28
    1516:	08 95       	ret

00001518 <mcp_2515_request_to_send>:

void mcp_2515_request_to_send(uint8_t buffer){
    1518:	cf 93       	push	r28
    151a:	df 93       	push	r29
    151c:	1f 92       	push	r1
    151e:	cd b7       	in	r28, 0x3d	; 61
    1520:	de b7       	in	r29, 0x3e	; 62
    1522:	89 83       	std	Y+1, r24	; 0x01
	// Enable slave
	spi_enable();
    1524:	0e 94 97 11 	call	0x232e	; 0x232e <spi_enable>
		//buffer = MCP_RTS | buffer;
	//}
	//// Invalid buffer, command will be ignored in MCP2515
	//else buffer = MCP_RTS;
	
	spi_send(buffer);
    1528:	89 81       	ldd	r24, Y+1	; 0x01
    152a:	0e 94 6b 11 	call	0x22d6	; 0x22d6 <spi_send>
	
	// Disable slave
	spi_disable();
    152e:	0e 94 a7 11 	call	0x234e	; 0x234e <spi_disable>
}
    1532:	0f 90       	pop	r0
    1534:	df 91       	pop	r29
    1536:	cf 91       	pop	r28
    1538:	08 95       	ret

0000153a <mcp_2515_bit_modify>:

void mcp_2515_bit_modify(uint8_t address, uint8_t mask, uint8_t data){
    153a:	cf 93       	push	r28
    153c:	df 93       	push	r29
    153e:	00 d0       	rcall	.+0      	; 0x1540 <mcp_2515_bit_modify+0x6>
    1540:	1f 92       	push	r1
    1542:	cd b7       	in	r28, 0x3d	; 61
    1544:	de b7       	in	r29, 0x3e	; 62
    1546:	89 83       	std	Y+1, r24	; 0x01
    1548:	6a 83       	std	Y+2, r22	; 0x02
    154a:	4b 83       	std	Y+3, r20	; 0x03
	// Enable slave
	spi_enable();
    154c:	0e 94 97 11 	call	0x232e	; 0x232e <spi_enable>
	
	// Send bitmodification command
	spi_send(MCP_BITMOD);
    1550:	85 e0       	ldi	r24, 0x05	; 5
    1552:	0e 94 6b 11 	call	0x22d6	; 0x22d6 <spi_send>
	// Send the address of the register we want to change
	spi_send(address);
    1556:	89 81       	ldd	r24, Y+1	; 0x01
    1558:	0e 94 6b 11 	call	0x22d6	; 0x22d6 <spi_send>
	// Send the mask which decides what bits in the register can be modified
	spi_send(mask);
    155c:	8a 81       	ldd	r24, Y+2	; 0x02
    155e:	0e 94 6b 11 	call	0x22d6	; 0x22d6 <spi_send>
	// Send the new bit values
	// Only the bits enabled by the mask will be modified
	spi_send(data);
    1562:	8b 81       	ldd	r24, Y+3	; 0x03
    1564:	0e 94 6b 11 	call	0x22d6	; 0x22d6 <spi_send>
	
	// Disable slave
	spi_disable();
    1568:	0e 94 a7 11 	call	0x234e	; 0x234e <spi_disable>
}
    156c:	0f 90       	pop	r0
    156e:	0f 90       	pop	r0
    1570:	0f 90       	pop	r0
    1572:	df 91       	pop	r29
    1574:	cf 91       	pop	r28
    1576:	08 95       	ret

00001578 <mcp_2515_reset>:

void mcp_2515_reset(){
    1578:	cf 93       	push	r28
    157a:	df 93       	push	r29
    157c:	cd b7       	in	r28, 0x3d	; 61
    157e:	de b7       	in	r29, 0x3e	; 62
	// Enable slave
	spi_enable();
    1580:	0e 94 97 11 	call	0x232e	; 0x232e <spi_enable>
	
	// Send reset-command
	spi_send(MCP_RESET);
    1584:	80 ec       	ldi	r24, 0xC0	; 192
    1586:	0e 94 6b 11 	call	0x22d6	; 0x22d6 <spi_send>
	
	// Disable slave
	spi_disable();
    158a:	0e 94 a7 11 	call	0x234e	; 0x234e <spi_disable>
}
    158e:	df 91       	pop	r29
    1590:	cf 91       	pop	r28
    1592:	08 95       	ret

00001594 <menu_init>:
char         lives_int[8];
int          high_score[3];
const char   playing[] = "GAME PLAYING";
const char   number_of_lives[] = "LIVES LEFT:";

menu_t * menu_init (){
    1594:	cf 93       	push	r28
    1596:	df 93       	push	r29
    1598:	00 d0       	rcall	.+0      	; 0x159a <menu_init+0x6>
    159a:	cd b7       	in	r28, 0x3d	; 61
    159c:	de b7       	in	r29, 0x3e	; 62
	//initialize empty score list
	for (int i = 0; i < 3; i++)
    159e:	1a 82       	std	Y+2, r1	; 0x02
    15a0:	19 82       	std	Y+1, r1	; 0x01
    15a2:	0e c0       	rjmp	.+28     	; 0x15c0 <menu_init+0x2c>
	{
		high_score[i] = 0;
    15a4:	89 81       	ldd	r24, Y+1	; 0x01
    15a6:	9a 81       	ldd	r25, Y+2	; 0x02
    15a8:	88 0f       	add	r24, r24
    15aa:	99 1f       	adc	r25, r25
    15ac:	8f 54       	subi	r24, 0x4F	; 79
    15ae:	9c 4f       	sbci	r25, 0xFC	; 252
    15b0:	fc 01       	movw	r30, r24
    15b2:	11 82       	std	Z+1, r1	; 0x01
    15b4:	10 82       	st	Z, r1
const char   playing[] = "GAME PLAYING";
const char   number_of_lives[] = "LIVES LEFT:";

menu_t * menu_init (){
	//initialize empty score list
	for (int i = 0; i < 3; i++)
    15b6:	89 81       	ldd	r24, Y+1	; 0x01
    15b8:	9a 81       	ldd	r25, Y+2	; 0x02
    15ba:	01 96       	adiw	r24, 0x01	; 1
    15bc:	9a 83       	std	Y+2, r25	; 0x02
    15be:	89 83       	std	Y+1, r24	; 0x01
    15c0:	89 81       	ldd	r24, Y+1	; 0x01
    15c2:	9a 81       	ldd	r25, Y+2	; 0x02
    15c4:	83 30       	cpi	r24, 0x03	; 3
    15c6:	91 05       	cpc	r25, r1
    15c8:	6c f3       	brlt	.-38     	; 0x15a4 <menu_init+0x10>
	{
		high_score[i] = 0;
	}
	printf("Plass 1\n");
    15ca:	81 e3       	ldi	r24, 0x31	; 49
    15cc:	92 e0       	ldi	r25, 0x02	; 2
    15ce:	0e 94 69 17 	call	0x2ed2	; 0x2ed2 <puts>
	sort_list(high_score,3);
    15d2:	63 e0       	ldi	r22, 0x03	; 3
    15d4:	70 e0       	ldi	r23, 0x00	; 0
    15d6:	81 eb       	ldi	r24, 0xB1	; 177
    15d8:	93 e0       	ldi	r25, 0x03	; 3
    15da:	0e 94 eb 0e 	call	0x1dd6	; 0x1dd6 <sort_list>
	//Main menu
	Mainmenu.name = "MAIN MENU";
    15de:	89 e3       	ldi	r24, 0x39	; 57
    15e0:	92 e0       	ldi	r25, 0x02	; 2
    15e2:	90 93 c3 03 	sts	0x03C3, r25
    15e6:	80 93 c2 03 	sts	0x03C2, r24
	Mainmenu.child1 = &Newgame;
    15ea:	8b ed       	ldi	r24, 0xDB	; 219
    15ec:	93 e0       	ldi	r25, 0x03	; 3
    15ee:	90 93 ba 03 	sts	0x03BA, r25
    15f2:	80 93 b9 03 	sts	0x03B9, r24
	Mainmenu.child2 = &Highscore;
    15f6:	85 e0       	ldi	r24, 0x05	; 5
    15f8:	94 e0       	ldi	r25, 0x04	; 4
    15fa:	90 93 bc 03 	sts	0x03BC, r25
    15fe:	80 93 bb 03 	sts	0x03BB, r24
	Mainmenu.child3 = &Settings;
    1602:	84 ec       	ldi	r24, 0xC4	; 196
    1604:	93 e0       	ldi	r25, 0x03	; 3
    1606:	90 93 be 03 	sts	0x03BE, r25
    160a:	80 93 bd 03 	sts	0x03BD, r24
	Mainmenu.number_of_children = 3;
    160e:	83 e0       	ldi	r24, 0x03	; 3
    1610:	80 93 c1 03 	sts	0x03C1, r24
	
	Newgame.name = "NEW GAME";
    1614:	83 e4       	ldi	r24, 0x43	; 67
    1616:	92 e0       	ldi	r25, 0x02	; 2
    1618:	90 93 e7 03 	sts	0x03E7, r25
    161c:	80 93 e6 03 	sts	0x03E6, r24
	Newgame.parent = &Mainmenu;
    1620:	87 eb       	ldi	r24, 0xB7	; 183
    1622:	93 e0       	ldi	r25, 0x03	; 3
    1624:	90 93 dc 03 	sts	0x03DC, r25
    1628:	80 93 db 03 	sts	0x03DB, r24
	Newgame.number_of_children = 1;
    162c:	81 e0       	ldi	r24, 0x01	; 1
    162e:	80 93 e5 03 	sts	0x03E5, r24
	
	Highscore.name = "HIGH SCORE";
    1632:	8c e4       	ldi	r24, 0x4C	; 76
    1634:	92 e0       	ldi	r25, 0x02	; 2
    1636:	90 93 11 04 	sts	0x0411, r25
    163a:	80 93 10 04 	sts	0x0410, r24
	Highscore.parent = &Mainmenu;
    163e:	87 eb       	ldi	r24, 0xB7	; 183
    1640:	93 e0       	ldi	r25, 0x03	; 3
    1642:	90 93 06 04 	sts	0x0406, r25
    1646:	80 93 05 04 	sts	0x0405, r24
	Highscore.number_of_children = 4;
    164a:	84 e0       	ldi	r24, 0x04	; 4
    164c:	80 93 0f 04 	sts	0x040F, r24
	Highscore.child4 = &Return;
    1650:	88 ee       	ldi	r24, 0xE8	; 232
    1652:	93 e0       	ldi	r25, 0x03	; 3
    1654:	90 93 0e 04 	sts	0x040E, r25
    1658:	80 93 0d 04 	sts	0x040D, r24
	Settings.name = "SETTINGS";
    165c:	87 e5       	ldi	r24, 0x57	; 87
    165e:	92 e0       	ldi	r25, 0x02	; 2
    1660:	90 93 d0 03 	sts	0x03D0, r25
    1664:	80 93 cf 03 	sts	0x03CF, r24
	Settings.parent = &Mainmenu;
    1668:	87 eb       	ldi	r24, 0xB7	; 183
    166a:	93 e0       	ldi	r25, 0x03	; 3
    166c:	90 93 c5 03 	sts	0x03C5, r25
    1670:	80 93 c4 03 	sts	0x03C4, r24
	Settings.number_of_children = 3;
    1674:	83 e0       	ldi	r24, 0x03	; 3
    1676:	80 93 ce 03 	sts	0x03CE, r24
	Settings.child3 = &Return;
    167a:	88 ee       	ldi	r24, 0xE8	; 232
    167c:	93 e0       	ldi	r25, 0x03	; 3
    167e:	90 93 cb 03 	sts	0x03CB, r25
    1682:	80 93 ca 03 	sts	0x03CA, r24
	Return.name = "RETURN";
    1686:	80 e6       	ldi	r24, 0x60	; 96
    1688:	92 e0       	ldi	r25, 0x02	; 2
    168a:	90 93 f4 03 	sts	0x03F4, r25
    168e:	80 93 f3 03 	sts	0x03F3, r24
	Return.parent = &Mainmenu;
    1692:	87 eb       	ldi	r24, 0xB7	; 183
    1694:	93 e0       	ldi	r25, 0x03	; 3
    1696:	90 93 e9 03 	sts	0x03E9, r25
    169a:	80 93 e8 03 	sts	0x03E8, r24
	current_menu = &Mainmenu;
    169e:	87 eb       	ldi	r24, 0xB7	; 183
    16a0:	93 e0       	ldi	r25, 0x03	; 3
    16a2:	90 93 da 03 	sts	0x03DA, r25
    16a6:	80 93 d9 03 	sts	0x03D9, r24
	// Get integer as string
	itoa(high_score[0],first_place,10);
    16aa:	80 91 b1 03 	lds	r24, 0x03B1
    16ae:	90 91 b2 03 	lds	r25, 0x03B2
    16b2:	4a e0       	ldi	r20, 0x0A	; 10
    16b4:	50 e0       	ldi	r21, 0x00	; 0
    16b6:	61 ed       	ldi	r22, 0xD1	; 209
    16b8:	73 e0       	ldi	r23, 0x03	; 3
    16ba:	0e 94 d3 16 	call	0x2da6	; 0x2da6 <itoa>
	itoa(high_score[1],second_place,10);
    16be:	80 91 b3 03 	lds	r24, 0x03B3
    16c2:	90 91 b4 03 	lds	r25, 0x03B4
    16c6:	4a e0       	ldi	r20, 0x0A	; 10
    16c8:	50 e0       	ldi	r21, 0x00	; 0
    16ca:	62 e1       	ldi	r22, 0x12	; 18
    16cc:	74 e0       	ldi	r23, 0x04	; 4
    16ce:	0e 94 d3 16 	call	0x2da6	; 0x2da6 <itoa>
	itoa(high_score[2],third_place,10);
    16d2:	80 91 b5 03 	lds	r24, 0x03B5
    16d6:	90 91 b6 03 	lds	r25, 0x03B6
    16da:	4a e0       	ldi	r20, 0x0A	; 10
    16dc:	50 e0       	ldi	r21, 0x00	; 0
    16de:	65 ef       	ldi	r22, 0xF5	; 245
    16e0:	73 e0       	ldi	r23, 0x03	; 3
    16e2:	0e 94 d3 16 	call	0x2da6	; 0x2da6 <itoa>
	return &Mainmenu;
    16e6:	87 eb       	ldi	r24, 0xB7	; 183
    16e8:	93 e0       	ldi	r25, 0x03	; 3
}
    16ea:	0f 90       	pop	r0
    16ec:	0f 90       	pop	r0
    16ee:	df 91       	pop	r29
    16f0:	cf 91       	pop	r28
    16f2:	08 95       	ret

000016f4 <move_arrow>:
uint8_t move_arrow(direction dir ,uint8_t current_row){
    16f4:	cf 93       	push	r28
    16f6:	df 93       	push	r29
    16f8:	00 d0       	rcall	.+0      	; 0x16fa <move_arrow+0x6>
    16fa:	00 d0       	rcall	.+0      	; 0x16fc <move_arrow+0x8>
    16fc:	cd b7       	in	r28, 0x3d	; 61
    16fe:	de b7       	in	r29, 0x3e	; 62
    1700:	8b 83       	std	Y+3, r24	; 0x03
    1702:	6c 83       	std	Y+4, r22	; 0x04
	uint8_t row = current_row;
    1704:	8c 81       	ldd	r24, Y+4	; 0x04
    1706:	89 83       	std	Y+1, r24	; 0x01
	printf("current row: %d\n",row);
    1708:	89 81       	ldd	r24, Y+1	; 0x01
    170a:	88 2f       	mov	r24, r24
    170c:	90 e0       	ldi	r25, 0x00	; 0
    170e:	29 2f       	mov	r18, r25
    1710:	2f 93       	push	r18
    1712:	8f 93       	push	r24
    1714:	87 e6       	ldi	r24, 0x67	; 103
    1716:	92 e0       	ldi	r25, 0x02	; 2
    1718:	89 2f       	mov	r24, r25
    171a:	8f 93       	push	r24
    171c:	87 e6       	ldi	r24, 0x67	; 103
    171e:	92 e0       	ldi	r25, 0x02	; 2
    1720:	8f 93       	push	r24
    1722:	0e 94 4e 17 	call	0x2e9c	; 0x2e9c <printf>
    1726:	0f 90       	pop	r0
    1728:	0f 90       	pop	r0
    172a:	0f 90       	pop	r0
    172c:	0f 90       	pop	r0
	uint8_t number_of_rows = current_menu -> number_of_children + OLED_OFFSET;
    172e:	80 91 d9 03 	lds	r24, 0x03D9
    1732:	90 91 da 03 	lds	r25, 0x03DA
    1736:	fc 01       	movw	r30, r24
    1738:	82 85       	ldd	r24, Z+10	; 0x0a
    173a:	8d 5f       	subi	r24, 0xFD	; 253
    173c:	8a 83       	std	Y+2, r24	; 0x02
	if(dir == previousDIR){
    173e:	80 91 0e 01 	lds	r24, 0x010E
    1742:	9b 81       	ldd	r25, Y+3	; 0x03
    1744:	98 17       	cp	r25, r24
    1746:	19 f4       	brne	.+6      	; 0x174e <move_arrow+0x5a>
		dir = NEUTRAL;
    1748:	84 e0       	ldi	r24, 0x04	; 4
    174a:	8b 83       	std	Y+3, r24	; 0x03
    174c:	03 c0       	rjmp	.+6      	; 0x1754 <move_arrow+0x60>
	}
	else{
		previousDIR = NEUTRAL;
    174e:	84 e0       	ldi	r24, 0x04	; 4
    1750:	80 93 0e 01 	sts	0x010E, r24
	}
	switch(dir) {
    1754:	8b 81       	ldd	r24, Y+3	; 0x03
    1756:	88 2f       	mov	r24, r24
    1758:	90 e0       	ldi	r25, 0x00	; 0
    175a:	81 30       	cpi	r24, 0x01	; 1
    175c:	91 05       	cpc	r25, r1
    175e:	09 f1       	breq	.+66     	; 0x17a2 <move_arrow+0xae>
    1760:	84 30       	cpi	r24, 0x04	; 4
    1762:	91 05       	cpc	r25, r1
    1764:	19 f0       	breq	.+6      	; 0x176c <move_arrow+0x78>
    1766:	00 97       	sbiw	r24, 0x00	; 0
    1768:	31 f0       	breq	.+12     	; 0x1776 <move_arrow+0x82>
    176a:	37 c0       	rjmp	.+110    	; 0x17da <move_arrow+0xe6>
		case NEUTRAL :
		{
			oled_print_arrow(row,0);
    176c:	60 e0       	ldi	r22, 0x00	; 0
    176e:	89 81       	ldd	r24, Y+1	; 0x01
    1770:	0e 94 2e 11 	call	0x225c	; 0x225c <oled_print_arrow>
			break;
    1774:	32 c0       	rjmp	.+100    	; 0x17da <move_arrow+0xe6>
		}
		
		
		case UP  :
		{
			if (row >= 6)
    1776:	89 81       	ldd	r24, Y+1	; 0x01
    1778:	86 30       	cpi	r24, 0x06	; 6
    177a:	90 f0       	brcs	.+36     	; 0x17a0 <move_arrow+0xac>
			{
				oled_pos(row, 0);
    177c:	60 e0       	ldi	r22, 0x00	; 0
    177e:	89 81       	ldd	r24, Y+1	; 0x01
    1780:	0e 94 a9 10 	call	0x2152	; 0x2152 <oled_pos>
				oled_print_string("  ");
    1784:	88 e7       	ldi	r24, 0x78	; 120
    1786:	92 e0       	ldi	r25, 0x02	; 2
    1788:	0e 94 f4 10 	call	0x21e8	; 0x21e8 <oled_print_string>
				row--;
    178c:	89 81       	ldd	r24, Y+1	; 0x01
    178e:	81 50       	subi	r24, 0x01	; 1
    1790:	89 83       	std	Y+1, r24	; 0x01
				oled_print_arrow(row,0);
    1792:	60 e0       	ldi	r22, 0x00	; 0
    1794:	89 81       	ldd	r24, Y+1	; 0x01
    1796:	0e 94 2e 11 	call	0x225c	; 0x225c <oled_print_arrow>
				previousDIR=UP;
    179a:	10 92 0e 01 	sts	0x010E, r1
			}

			break;
    179e:	1d c0       	rjmp	.+58     	; 0x17da <move_arrow+0xe6>
    17a0:	1c c0       	rjmp	.+56     	; 0x17da <move_arrow+0xe6>
		}
		
		
		case DOWN  :
		{
			if (row <= number_of_rows)
    17a2:	99 81       	ldd	r25, Y+1	; 0x01
    17a4:	8a 81       	ldd	r24, Y+2	; 0x02
    17a6:	89 17       	cp	r24, r25
    17a8:	b8 f0       	brcs	.+46     	; 0x17d8 <move_arrow+0xe4>
			{
								
				oled_pos(row, 0);
    17aa:	60 e0       	ldi	r22, 0x00	; 0
    17ac:	89 81       	ldd	r24, Y+1	; 0x01
    17ae:	0e 94 a9 10 	call	0x2152	; 0x2152 <oled_pos>
				oled_print_string("  ");
    17b2:	88 e7       	ldi	r24, 0x78	; 120
    17b4:	92 e0       	ldi	r25, 0x02	; 2
    17b6:	0e 94 f4 10 	call	0x21e8	; 0x21e8 <oled_print_string>
				if (row == 7)
    17ba:	89 81       	ldd	r24, Y+1	; 0x01
    17bc:	87 30       	cpi	r24, 0x07	; 7
    17be:	09 f4       	brne	.+2      	; 0x17c2 <move_arrow+0xce>
				{
					row = 0;
    17c0:	19 82       	std	Y+1, r1	; 0x01
				}
				row++;
    17c2:	89 81       	ldd	r24, Y+1	; 0x01
    17c4:	8f 5f       	subi	r24, 0xFF	; 255
    17c6:	89 83       	std	Y+1, r24	; 0x01
				oled_print_arrow(row,0);
    17c8:	60 e0       	ldi	r22, 0x00	; 0
    17ca:	89 81       	ldd	r24, Y+1	; 0x01
    17cc:	0e 94 2e 11 	call	0x225c	; 0x225c <oled_print_arrow>
				previousDIR = DOWN;
    17d0:	81 e0       	ldi	r24, 0x01	; 1
    17d2:	80 93 0e 01 	sts	0x010E, r24
				
			}
			break;
    17d6:	00 c0       	rjmp	.+0      	; 0x17d8 <move_arrow+0xe4>
    17d8:	00 00       	nop
		}		
		
	}
	return row;
    17da:	89 81       	ldd	r24, Y+1	; 0x01
}
    17dc:	0f 90       	pop	r0
    17de:	0f 90       	pop	r0
    17e0:	0f 90       	pop	r0
    17e2:	0f 90       	pop	r0
    17e4:	df 91       	pop	r29
    17e6:	cf 91       	pop	r28
    17e8:	08 95       	ret

000017ea <print_menu>:

void print_menu (menu_t *menu){
    17ea:	cf 93       	push	r28
    17ec:	df 93       	push	r29
    17ee:	00 d0       	rcall	.+0      	; 0x17f0 <print_menu+0x6>
    17f0:	00 d0       	rcall	.+0      	; 0x17f2 <print_menu+0x8>
    17f2:	cd b7       	in	r28, 0x3d	; 61
    17f4:	de b7       	in	r29, 0x3e	; 62
    17f6:	9c 83       	std	Y+4, r25	; 0x04
    17f8:	8b 83       	std	Y+3, r24	; 0x03
	menu_t * current = menu;
    17fa:	8b 81       	ldd	r24, Y+3	; 0x03
    17fc:	9c 81       	ldd	r25, Y+4	; 0x04
    17fe:	9a 83       	std	Y+2, r25	; 0x02
    1800:	89 83       	std	Y+1, r24	; 0x01
	oled_reset();
    1802:	0e 94 11 10 	call	0x2022	; 0x2022 <oled_reset>
	oled_home();
    1806:	0e 94 2b 10 	call	0x2056	; 0x2056 <oled_home>
	oled_pos(3,2);
    180a:	62 e0       	ldi	r22, 0x02	; 2
    180c:	83 e0       	ldi	r24, 0x03	; 3
    180e:	0e 94 a9 10 	call	0x2152	; 0x2152 <oled_pos>
	oled_print_string(menu->name); //Skriver ut overskrift
    1812:	8b 81       	ldd	r24, Y+3	; 0x03
    1814:	9c 81       	ldd	r25, Y+4	; 0x04
    1816:	fc 01       	movw	r30, r24
    1818:	83 85       	ldd	r24, Z+11	; 0x0b
    181a:	94 85       	ldd	r25, Z+12	; 0x0c
    181c:	0e 94 f4 10 	call	0x21e8	; 0x21e8 <oled_print_string>
	
	if (menu->child1 != NULL)
    1820:	8b 81       	ldd	r24, Y+3	; 0x03
    1822:	9c 81       	ldd	r25, Y+4	; 0x04
    1824:	fc 01       	movw	r30, r24
    1826:	82 81       	ldd	r24, Z+2	; 0x02
    1828:	93 81       	ldd	r25, Z+3	; 0x03
    182a:	00 97       	sbiw	r24, 0x00	; 0
    182c:	71 f0       	breq	.+28     	; 0x184a <print_menu+0x60>
	{
		oled_pos(5,2);
    182e:	62 e0       	ldi	r22, 0x02	; 2
    1830:	85 e0       	ldi	r24, 0x05	; 5
    1832:	0e 94 a9 10 	call	0x2152	; 0x2152 <oled_pos>
		oled_print_string(menu->child1->name);
    1836:	8b 81       	ldd	r24, Y+3	; 0x03
    1838:	9c 81       	ldd	r25, Y+4	; 0x04
    183a:	fc 01       	movw	r30, r24
    183c:	82 81       	ldd	r24, Z+2	; 0x02
    183e:	93 81       	ldd	r25, Z+3	; 0x03
    1840:	fc 01       	movw	r30, r24
    1842:	83 85       	ldd	r24, Z+11	; 0x0b
    1844:	94 85       	ldd	r25, Z+12	; 0x0c
    1846:	0e 94 f4 10 	call	0x21e8	; 0x21e8 <oled_print_string>
	}
	
	if (menu->child2 != NULL)
    184a:	8b 81       	ldd	r24, Y+3	; 0x03
    184c:	9c 81       	ldd	r25, Y+4	; 0x04
    184e:	fc 01       	movw	r30, r24
    1850:	84 81       	ldd	r24, Z+4	; 0x04
    1852:	95 81       	ldd	r25, Z+5	; 0x05
    1854:	00 97       	sbiw	r24, 0x00	; 0
    1856:	71 f0       	breq	.+28     	; 0x1874 <print_menu+0x8a>
	{
		oled_pos(6,2);
    1858:	62 e0       	ldi	r22, 0x02	; 2
    185a:	86 e0       	ldi	r24, 0x06	; 6
    185c:	0e 94 a9 10 	call	0x2152	; 0x2152 <oled_pos>
		oled_print_string(menu->child2->name);
    1860:	8b 81       	ldd	r24, Y+3	; 0x03
    1862:	9c 81       	ldd	r25, Y+4	; 0x04
    1864:	fc 01       	movw	r30, r24
    1866:	84 81       	ldd	r24, Z+4	; 0x04
    1868:	95 81       	ldd	r25, Z+5	; 0x05
    186a:	fc 01       	movw	r30, r24
    186c:	83 85       	ldd	r24, Z+11	; 0x0b
    186e:	94 85       	ldd	r25, Z+12	; 0x0c
    1870:	0e 94 f4 10 	call	0x21e8	; 0x21e8 <oled_print_string>
	}

	if (menu->child3 != NULL)
    1874:	8b 81       	ldd	r24, Y+3	; 0x03
    1876:	9c 81       	ldd	r25, Y+4	; 0x04
    1878:	fc 01       	movw	r30, r24
    187a:	86 81       	ldd	r24, Z+6	; 0x06
    187c:	97 81       	ldd	r25, Z+7	; 0x07
    187e:	00 97       	sbiw	r24, 0x00	; 0
    1880:	71 f0       	breq	.+28     	; 0x189e <print_menu+0xb4>
	{
		oled_pos(7,2);
    1882:	62 e0       	ldi	r22, 0x02	; 2
    1884:	87 e0       	ldi	r24, 0x07	; 7
    1886:	0e 94 a9 10 	call	0x2152	; 0x2152 <oled_pos>
		oled_print_string(menu->child3->name);
    188a:	8b 81       	ldd	r24, Y+3	; 0x03
    188c:	9c 81       	ldd	r25, Y+4	; 0x04
    188e:	fc 01       	movw	r30, r24
    1890:	86 81       	ldd	r24, Z+6	; 0x06
    1892:	97 81       	ldd	r25, Z+7	; 0x07
    1894:	fc 01       	movw	r30, r24
    1896:	83 85       	ldd	r24, Z+11	; 0x0b
    1898:	94 85       	ldd	r25, Z+12	; 0x0c
    189a:	0e 94 f4 10 	call	0x21e8	; 0x21e8 <oled_print_string>
	}
	if (menu->child4 != NULL)
    189e:	8b 81       	ldd	r24, Y+3	; 0x03
    18a0:	9c 81       	ldd	r25, Y+4	; 0x04
    18a2:	fc 01       	movw	r30, r24
    18a4:	80 85       	ldd	r24, Z+8	; 0x08
    18a6:	91 85       	ldd	r25, Z+9	; 0x09
    18a8:	00 97       	sbiw	r24, 0x00	; 0
    18aa:	71 f0       	breq	.+28     	; 0x18c8 <print_menu+0xde>
	{
		oled_pos(1,2);
    18ac:	62 e0       	ldi	r22, 0x02	; 2
    18ae:	81 e0       	ldi	r24, 0x01	; 1
    18b0:	0e 94 a9 10 	call	0x2152	; 0x2152 <oled_pos>
		oled_print_string(menu->child4->name);
    18b4:	8b 81       	ldd	r24, Y+3	; 0x03
    18b6:	9c 81       	ldd	r25, Y+4	; 0x04
    18b8:	fc 01       	movw	r30, r24
    18ba:	80 85       	ldd	r24, Z+8	; 0x08
    18bc:	91 85       	ldd	r25, Z+9	; 0x09
    18be:	fc 01       	movw	r30, r24
    18c0:	83 85       	ldd	r24, Z+11	; 0x0b
    18c2:	94 85       	ldd	r25, Z+12	; 0x0c
    18c4:	0e 94 f4 10 	call	0x21e8	; 0x21e8 <oled_print_string>
	}
	if (strcmp(menu->name, "HIGH SCORE") == 0)
    18c8:	8b 81       	ldd	r24, Y+3	; 0x03
    18ca:	9c 81       	ldd	r25, Y+4	; 0x04
    18cc:	fc 01       	movw	r30, r24
    18ce:	83 85       	ldd	r24, Z+11	; 0x0b
    18d0:	94 85       	ldd	r25, Z+12	; 0x0c
    18d2:	6c e4       	ldi	r22, 0x4C	; 76
    18d4:	72 e0       	ldi	r23, 0x02	; 2
    18d6:	0e 94 ca 16 	call	0x2d94	; 0x2d94 <strcmp>
    18da:	00 97       	sbiw	r24, 0x00	; 0
    18dc:	11 f4       	brne	.+4      	; 0x18e2 <print_menu+0xf8>
	{
		print_highscore();
    18de:	0e 94 e9 0d 	call	0x1bd2	; 0x1bd2 <print_highscore>
	}
	if (strcmp(menu->name, "SETTINGS") == 0)
    18e2:	8b 81       	ldd	r24, Y+3	; 0x03
    18e4:	9c 81       	ldd	r25, Y+4	; 0x04
    18e6:	fc 01       	movw	r30, r24
    18e8:	83 85       	ldd	r24, Z+11	; 0x0b
    18ea:	94 85       	ldd	r25, Z+12	; 0x0c
    18ec:	67 e5       	ldi	r22, 0x57	; 87
    18ee:	72 e0       	ldi	r23, 0x02	; 2
    18f0:	0e 94 ca 16 	call	0x2d94	; 0x2d94 <strcmp>
    18f4:	00 97       	sbiw	r24, 0x00	; 0
    18f6:	11 f4       	brne	.+4      	; 0x18fc <print_menu+0x112>
	{
		print_settings();
    18f8:	0e 94 28 0e 	call	0x1c50	; 0x1c50 <print_settings>
	}
		
}
    18fc:	0f 90       	pop	r0
    18fe:	0f 90       	pop	r0
    1900:	0f 90       	pop	r0
    1902:	0f 90       	pop	r0
    1904:	df 91       	pop	r29
    1906:	cf 91       	pop	r28
    1908:	08 95       	ret

0000190a <button_action>:


// Implements action based on joystick button presses
// Possibility for cleaner code, written in a hurry :-)
uint8_t button_action (uint8_t current_line) {
    190a:	cf 93       	push	r28
    190c:	df 93       	push	r29
    190e:	1f 92       	push	r1
    1910:	cd b7       	in	r28, 0x3d	; 61
    1912:	de b7       	in	r29, 0x3e	; 62
    1914:	89 83       	std	Y+1, r24	; 0x01
	// Fix "magic numbers", current_line = some menu etc.
	// Should be independent of the actual linked list
	// Change the struct to an array of children, and use current_line as index?
	// Think that should work
	if (strcmp(current_menu->name, "MAIN MENU") == 0)
    1916:	80 91 d9 03 	lds	r24, 0x03D9
    191a:	90 91 da 03 	lds	r25, 0x03DA
    191e:	fc 01       	movw	r30, r24
    1920:	83 85       	ldd	r24, Z+11	; 0x0b
    1922:	94 85       	ldd	r25, Z+12	; 0x0c
    1924:	69 e3       	ldi	r22, 0x39	; 57
    1926:	72 e0       	ldi	r23, 0x02	; 2
    1928:	0e 94 ca 16 	call	0x2d94	; 0x2d94 <strcmp>
    192c:	00 97       	sbiw	r24, 0x00	; 0
    192e:	c1 f4       	brne	.+48     	; 0x1960 <button_action+0x56>
	{
		if(current_line == 5)
    1930:	89 81       	ldd	r24, Y+1	; 0x01
    1932:	85 30       	cpi	r24, 0x05	; 5
    1934:	51 f4       	brne	.+20     	; 0x194a <button_action+0x40>
		{
			game_started = 1;
    1936:	81 e0       	ldi	r24, 0x01	; 1
    1938:	80 93 9f 03 	sts	0x039F, r24
			navigateMenu(current_line);
    193c:	89 81       	ldd	r24, Y+1	; 0x01
    193e:	0e 94 5b 0d 	call	0x1ab6	; 0x1ab6 <navigateMenu>
			menu_playing(3);
    1942:	83 e0       	ldi	r24, 0x03	; 3
    1944:	0e 94 75 0f 	call	0x1eea	; 0x1eea <menu_playing>
    1948:	b0 c0       	rjmp	.+352    	; 0x1aaa <button_action+0x1a0>
		}
		else if (current_line == 6) {
    194a:	89 81       	ldd	r24, Y+1	; 0x01
    194c:	86 30       	cpi	r24, 0x06	; 6
    194e:	21 f4       	brne	.+8      	; 0x1958 <button_action+0x4e>
			navigateMenu(current_line);
    1950:	89 81       	ldd	r24, Y+1	; 0x01
    1952:	0e 94 5b 0d 	call	0x1ab6	; 0x1ab6 <navigateMenu>
    1956:	a9 c0       	rjmp	.+338    	; 0x1aaa <button_action+0x1a0>
		}
		else navigateMenu(current_line);
    1958:	89 81       	ldd	r24, Y+1	; 0x01
    195a:	0e 94 5b 0d 	call	0x1ab6	; 0x1ab6 <navigateMenu>
    195e:	a5 c0       	rjmp	.+330    	; 0x1aaa <button_action+0x1a0>
	}
	else if(strcmp(current_menu->name, "NEW GAME") == 0){
    1960:	80 91 d9 03 	lds	r24, 0x03D9
    1964:	90 91 da 03 	lds	r25, 0x03DA
    1968:	fc 01       	movw	r30, r24
    196a:	83 85       	ldd	r24, Z+11	; 0x0b
    196c:	94 85       	ldd	r25, Z+12	; 0x0c
    196e:	63 e4       	ldi	r22, 0x43	; 67
    1970:	72 e0       	ldi	r23, 0x02	; 2
    1972:	0e 94 ca 16 	call	0x2d94	; 0x2d94 <strcmp>
    1976:	00 97       	sbiw	r24, 0x00	; 0
    1978:	f1 f4       	brne	.+60     	; 0x19b6 <button_action+0xac>
		if(current_line==5){
    197a:	89 81       	ldd	r24, Y+1	; 0x01
    197c:	85 30       	cpi	r24, 0x05	; 5
    197e:	09 f0       	breq	.+2      	; 0x1982 <button_action+0x78>
    1980:	94 c0       	rjmp	.+296    	; 0x1aaa <button_action+0x1a0>
			current_menu=current_menu->parent;
    1982:	80 91 d9 03 	lds	r24, 0x03D9
    1986:	90 91 da 03 	lds	r25, 0x03DA
    198a:	fc 01       	movw	r30, r24
    198c:	80 81       	ld	r24, Z
    198e:	91 81       	ldd	r25, Z+1	; 0x01
    1990:	90 93 da 03 	sts	0x03DA, r25
    1994:	80 93 d9 03 	sts	0x03D9, r24
			oled_pos(current_line, 0);
    1998:	60 e0       	ldi	r22, 0x00	; 0
    199a:	89 81       	ldd	r24, Y+1	; 0x01
    199c:	0e 94 a9 10 	call	0x2152	; 0x2152 <oled_pos>
			oled_print_string("  ");
    19a0:	88 e7       	ldi	r24, 0x78	; 120
    19a2:	92 e0       	ldi	r25, 0x02	; 2
    19a4:	0e 94 f4 10 	call	0x21e8	; 0x21e8 <oled_print_string>
			print_menu(current_menu);
    19a8:	80 91 d9 03 	lds	r24, 0x03D9
    19ac:	90 91 da 03 	lds	r25, 0x03DA
    19b0:	0e 94 f5 0b 	call	0x17ea	; 0x17ea <print_menu>
    19b4:	7a c0       	rjmp	.+244    	; 0x1aaa <button_action+0x1a0>
		}
	}
	else if (strcmp(current_menu->name, "SETTINGS") == 0)
    19b6:	80 91 d9 03 	lds	r24, 0x03D9
    19ba:	90 91 da 03 	lds	r25, 0x03DA
    19be:	fc 01       	movw	r30, r24
    19c0:	83 85       	ldd	r24, Z+11	; 0x0b
    19c2:	94 85       	ldd	r25, Z+12	; 0x0c
    19c4:	67 e5       	ldi	r22, 0x57	; 87
    19c6:	72 e0       	ldi	r23, 0x02	; 2
    19c8:	0e 94 ca 16 	call	0x2d94	; 0x2d94 <strcmp>
    19cc:	00 97       	sbiw	r24, 0x00	; 0
    19ce:	09 f0       	breq	.+2      	; 0x19d2 <button_action+0xc8>
    19d0:	43 c0       	rjmp	.+134    	; 0x1a58 <button_action+0x14e>
	{
		if (current_line == 5) {
    19d2:	89 81       	ldd	r24, Y+1	; 0x01
    19d4:	85 30       	cpi	r24, 0x05	; 5
    19d6:	49 f4       	brne	.+18     	; 0x19ea <button_action+0xe0>
			oled_pos(current_line, 0);
    19d8:	60 e0       	ldi	r22, 0x00	; 0
    19da:	89 81       	ldd	r24, Y+1	; 0x01
    19dc:	0e 94 a9 10 	call	0x2152	; 0x2152 <oled_pos>
			oled_print_string("  ");
    19e0:	88 e7       	ldi	r24, 0x78	; 120
    19e2:	92 e0       	ldi	r25, 0x02	; 2
    19e4:	0e 94 f4 10 	call	0x21e8	; 0x21e8 <oled_print_string>
    19e8:	60 c0       	rjmp	.+192    	; 0x1aaa <button_action+0x1a0>
		} // TODO Debugging
		
		else if (current_line == 6) {
    19ea:	89 81       	ldd	r24, Y+1	; 0x01
    19ec:	86 30       	cpi	r24, 0x06	; 6
    19ee:	b1 f4       	brne	.+44     	; 0x1a1c <button_action+0x112>
			oled_pos(current_line, 0);
    19f0:	60 e0       	ldi	r22, 0x00	; 0
    19f2:	89 81       	ldd	r24, Y+1	; 0x01
    19f4:	0e 94 a9 10 	call	0x2152	; 0x2152 <oled_pos>
			oled_print_string("  ");
    19f8:	88 e7       	ldi	r24, 0x78	; 120
    19fa:	92 e0       	ldi	r25, 0x02	; 2
    19fc:	0e 94 f4 10 	call	0x21e8	; 0x21e8 <oled_print_string>
			calibrate_joystick();
    1a00:	0e 94 93 04 	call	0x926	; 0x926 <calibrate_joystick>
			current_menu = current_menu->parent;
    1a04:	80 91 d9 03 	lds	r24, 0x03D9
    1a08:	90 91 da 03 	lds	r25, 0x03DA
    1a0c:	fc 01       	movw	r30, r24
    1a0e:	80 81       	ld	r24, Z
    1a10:	91 81       	ldd	r25, Z+1	; 0x01
    1a12:	90 93 da 03 	sts	0x03DA, r25
    1a16:	80 93 d9 03 	sts	0x03D9, r24
    1a1a:	47 c0       	rjmp	.+142    	; 0x1aaa <button_action+0x1a0>
			
		} // TODO Calibrate joystick
		
		else if (current_line == 7) {
    1a1c:	89 81       	ldd	r24, Y+1	; 0x01
    1a1e:	87 30       	cpi	r24, 0x07	; 7
    1a20:	09 f0       	breq	.+2      	; 0x1a24 <button_action+0x11a>
    1a22:	43 c0       	rjmp	.+134    	; 0x1aaa <button_action+0x1a0>
			current_menu = current_menu -> parent;
    1a24:	80 91 d9 03 	lds	r24, 0x03D9
    1a28:	90 91 da 03 	lds	r25, 0x03DA
    1a2c:	fc 01       	movw	r30, r24
    1a2e:	80 81       	ld	r24, Z
    1a30:	91 81       	ldd	r25, Z+1	; 0x01
    1a32:	90 93 da 03 	sts	0x03DA, r25
    1a36:	80 93 d9 03 	sts	0x03D9, r24
			oled_pos(current_line, 0);
    1a3a:	60 e0       	ldi	r22, 0x00	; 0
    1a3c:	89 81       	ldd	r24, Y+1	; 0x01
    1a3e:	0e 94 a9 10 	call	0x2152	; 0x2152 <oled_pos>
			oled_print_string("  ");
    1a42:	88 e7       	ldi	r24, 0x78	; 120
    1a44:	92 e0       	ldi	r25, 0x02	; 2
    1a46:	0e 94 f4 10 	call	0x21e8	; 0x21e8 <oled_print_string>
			print_menu(current_menu);
    1a4a:	80 91 d9 03 	lds	r24, 0x03D9
    1a4e:	90 91 da 03 	lds	r25, 0x03DA
    1a52:	0e 94 f5 0b 	call	0x17ea	; 0x17ea <print_menu>
    1a56:	29 c0       	rjmp	.+82     	; 0x1aaa <button_action+0x1a0>
		}
		
	}
	
	else if (strcmp(current_menu->name, "HIGH SCORE") == 0) {
    1a58:	80 91 d9 03 	lds	r24, 0x03D9
    1a5c:	90 91 da 03 	lds	r25, 0x03DA
    1a60:	fc 01       	movw	r30, r24
    1a62:	83 85       	ldd	r24, Z+11	; 0x0b
    1a64:	94 85       	ldd	r25, Z+12	; 0x0c
    1a66:	6c e4       	ldi	r22, 0x4C	; 76
    1a68:	72 e0       	ldi	r23, 0x02	; 2
    1a6a:	0e 94 ca 16 	call	0x2d94	; 0x2d94 <strcmp>
    1a6e:	00 97       	sbiw	r24, 0x00	; 0
    1a70:	e1 f4       	brne	.+56     	; 0x1aaa <button_action+0x1a0>
		if (current_line == 1)
    1a72:	89 81       	ldd	r24, Y+1	; 0x01
    1a74:	81 30       	cpi	r24, 0x01	; 1
    1a76:	59 f4       	brne	.+22     	; 0x1a8e <button_action+0x184>
		{
			current_menu = current_menu -> parent;
    1a78:	80 91 d9 03 	lds	r24, 0x03D9
    1a7c:	90 91 da 03 	lds	r25, 0x03DA
    1a80:	fc 01       	movw	r30, r24
    1a82:	80 81       	ld	r24, Z
    1a84:	91 81       	ldd	r25, Z+1	; 0x01
    1a86:	90 93 da 03 	sts	0x03DA, r25
    1a8a:	80 93 d9 03 	sts	0x03D9, r24
		}
		oled_pos(current_line, 0);
    1a8e:	60 e0       	ldi	r22, 0x00	; 0
    1a90:	89 81       	ldd	r24, Y+1	; 0x01
    1a92:	0e 94 a9 10 	call	0x2152	; 0x2152 <oled_pos>
		oled_print_string("  ");
    1a96:	88 e7       	ldi	r24, 0x78	; 120
    1a98:	92 e0       	ldi	r25, 0x02	; 2
    1a9a:	0e 94 f4 10 	call	0x21e8	; 0x21e8 <oled_print_string>
		print_menu(current_menu);
    1a9e:	80 91 d9 03 	lds	r24, 0x03D9
    1aa2:	90 91 da 03 	lds	r25, 0x03DA
    1aa6:	0e 94 f5 0b 	call	0x17ea	; 0x17ea <print_menu>
	}
	return game_started;
    1aaa:	80 91 9f 03 	lds	r24, 0x039F
}
    1aae:	0f 90       	pop	r0
    1ab0:	df 91       	pop	r29
    1ab2:	cf 91       	pop	r28
    1ab4:	08 95       	ret

00001ab6 <navigateMenu>:


// Traverses the linked list into submenus
void navigateMenu(uint8_t current_line) {
    1ab6:	cf 93       	push	r28
    1ab8:	df 93       	push	r29
    1aba:	1f 92       	push	r1
    1abc:	cd b7       	in	r28, 0x3d	; 61
    1abe:	de b7       	in	r29, 0x3e	; 62
    1ac0:	89 83       	std	Y+1, r24	; 0x01
	switch(current_line) {
    1ac2:	89 81       	ldd	r24, Y+1	; 0x01
    1ac4:	88 2f       	mov	r24, r24
    1ac6:	90 e0       	ldi	r25, 0x00	; 0
    1ac8:	86 30       	cpi	r24, 0x06	; 6
    1aca:	91 05       	cpc	r25, r1
    1acc:	81 f1       	breq	.+96     	; 0x1b2e <navigateMenu+0x78>
    1ace:	87 30       	cpi	r24, 0x07	; 7
    1ad0:	91 05       	cpc	r25, r1
    1ad2:	09 f4       	brne	.+2      	; 0x1ad6 <navigateMenu+0x20>
    1ad4:	54 c0       	rjmp	.+168    	; 0x1b7e <navigateMenu+0xc8>
    1ad6:	85 30       	cpi	r24, 0x05	; 5
    1ad8:	91 05       	cpc	r25, r1
    1ada:	09 f0       	breq	.+2      	; 0x1ade <navigateMenu+0x28>
    1adc:	76 c0       	rjmp	.+236    	; 0x1bca <navigateMenu+0x114>
		case 5:
		if (current_menu->child1 != NULL) {
    1ade:	80 91 d9 03 	lds	r24, 0x03D9
    1ae2:	90 91 da 03 	lds	r25, 0x03DA
    1ae6:	fc 01       	movw	r30, r24
    1ae8:	82 81       	ldd	r24, Z+2	; 0x02
    1aea:	93 81       	ldd	r25, Z+3	; 0x03
    1aec:	00 97       	sbiw	r24, 0x00	; 0
    1aee:	f1 f0       	breq	.+60     	; 0x1b2c <navigateMenu+0x76>
			current_menu = current_menu -> child1;
    1af0:	80 91 d9 03 	lds	r24, 0x03D9
    1af4:	90 91 da 03 	lds	r25, 0x03DA
    1af8:	fc 01       	movw	r30, r24
    1afa:	82 81       	ldd	r24, Z+2	; 0x02
    1afc:	93 81       	ldd	r25, Z+3	; 0x03
    1afe:	90 93 da 03 	sts	0x03DA, r25
    1b02:	80 93 d9 03 	sts	0x03D9, r24
			oled_pos(current_line, 0);
    1b06:	60 e0       	ldi	r22, 0x00	; 0
    1b08:	89 81       	ldd	r24, Y+1	; 0x01
    1b0a:	0e 94 a9 10 	call	0x2152	; 0x2152 <oled_pos>
			oled_print_string("  ");
    1b0e:	88 e7       	ldi	r24, 0x78	; 120
    1b10:	92 e0       	ldi	r25, 0x02	; 2
    1b12:	0e 94 f4 10 	call	0x21e8	; 0x21e8 <oled_print_string>
			move_arrow(NEUTRAL, 2);
    1b16:	62 e0       	ldi	r22, 0x02	; 2
    1b18:	84 e0       	ldi	r24, 0x04	; 4
    1b1a:	0e 94 7a 0b 	call	0x16f4	; 0x16f4 <move_arrow>
			print_menu(current_menu);
    1b1e:	80 91 d9 03 	lds	r24, 0x03D9
    1b22:	90 91 da 03 	lds	r25, 0x03DA
    1b26:	0e 94 f5 0b 	call	0x17ea	; 0x17ea <print_menu>
		}
		break;
    1b2a:	4f c0       	rjmp	.+158    	; 0x1bca <navigateMenu+0x114>
    1b2c:	4e c0       	rjmp	.+156    	; 0x1bca <navigateMenu+0x114>
		
		case 6:
		if (current_menu->child2 != NULL) {
    1b2e:	80 91 d9 03 	lds	r24, 0x03D9
    1b32:	90 91 da 03 	lds	r25, 0x03DA
    1b36:	fc 01       	movw	r30, r24
    1b38:	84 81       	ldd	r24, Z+4	; 0x04
    1b3a:	95 81       	ldd	r25, Z+5	; 0x05
    1b3c:	00 97       	sbiw	r24, 0x00	; 0
    1b3e:	f1 f0       	breq	.+60     	; 0x1b7c <navigateMenu+0xc6>
			current_menu = current_menu -> child2;
    1b40:	80 91 d9 03 	lds	r24, 0x03D9
    1b44:	90 91 da 03 	lds	r25, 0x03DA
    1b48:	fc 01       	movw	r30, r24
    1b4a:	84 81       	ldd	r24, Z+4	; 0x04
    1b4c:	95 81       	ldd	r25, Z+5	; 0x05
    1b4e:	90 93 da 03 	sts	0x03DA, r25
    1b52:	80 93 d9 03 	sts	0x03D9, r24
			oled_pos(current_line, 0);
    1b56:	60 e0       	ldi	r22, 0x00	; 0
    1b58:	89 81       	ldd	r24, Y+1	; 0x01
    1b5a:	0e 94 a9 10 	call	0x2152	; 0x2152 <oled_pos>
			oled_print_string("  ");
    1b5e:	88 e7       	ldi	r24, 0x78	; 120
    1b60:	92 e0       	ldi	r25, 0x02	; 2
    1b62:	0e 94 f4 10 	call	0x21e8	; 0x21e8 <oled_print_string>
			move_arrow(NEUTRAL, 2);
    1b66:	62 e0       	ldi	r22, 0x02	; 2
    1b68:	84 e0       	ldi	r24, 0x04	; 4
    1b6a:	0e 94 7a 0b 	call	0x16f4	; 0x16f4 <move_arrow>
			print_menu(current_menu);
    1b6e:	80 91 d9 03 	lds	r24, 0x03D9
    1b72:	90 91 da 03 	lds	r25, 0x03DA
    1b76:	0e 94 f5 0b 	call	0x17ea	; 0x17ea <print_menu>
		}
		break;
    1b7a:	27 c0       	rjmp	.+78     	; 0x1bca <navigateMenu+0x114>
    1b7c:	26 c0       	rjmp	.+76     	; 0x1bca <navigateMenu+0x114>
		
		case 7:
		if (current_menu->child3 != NULL) {
    1b7e:	80 91 d9 03 	lds	r24, 0x03D9
    1b82:	90 91 da 03 	lds	r25, 0x03DA
    1b86:	fc 01       	movw	r30, r24
    1b88:	86 81       	ldd	r24, Z+6	; 0x06
    1b8a:	97 81       	ldd	r25, Z+7	; 0x07
    1b8c:	00 97       	sbiw	r24, 0x00	; 0
    1b8e:	e9 f0       	breq	.+58     	; 0x1bca <navigateMenu+0x114>
			current_menu = current_menu -> child3;
    1b90:	80 91 d9 03 	lds	r24, 0x03D9
    1b94:	90 91 da 03 	lds	r25, 0x03DA
    1b98:	fc 01       	movw	r30, r24
    1b9a:	86 81       	ldd	r24, Z+6	; 0x06
    1b9c:	97 81       	ldd	r25, Z+7	; 0x07
    1b9e:	90 93 da 03 	sts	0x03DA, r25
    1ba2:	80 93 d9 03 	sts	0x03D9, r24
			oled_pos(current_line, 0);
    1ba6:	60 e0       	ldi	r22, 0x00	; 0
    1ba8:	89 81       	ldd	r24, Y+1	; 0x01
    1baa:	0e 94 a9 10 	call	0x2152	; 0x2152 <oled_pos>
			oled_print_string("  ");
    1bae:	88 e7       	ldi	r24, 0x78	; 120
    1bb0:	92 e0       	ldi	r25, 0x02	; 2
    1bb2:	0e 94 f4 10 	call	0x21e8	; 0x21e8 <oled_print_string>
			move_arrow(NEUTRAL, 2);
    1bb6:	62 e0       	ldi	r22, 0x02	; 2
    1bb8:	84 e0       	ldi	r24, 0x04	; 4
    1bba:	0e 94 7a 0b 	call	0x16f4	; 0x16f4 <move_arrow>
			print_menu(current_menu);
    1bbe:	80 91 d9 03 	lds	r24, 0x03D9
    1bc2:	90 91 da 03 	lds	r25, 0x03DA
    1bc6:	0e 94 f5 0b 	call	0x17ea	; 0x17ea <print_menu>
		}
	}
}
    1bca:	0f 90       	pop	r0
    1bcc:	df 91       	pop	r29
    1bce:	cf 91       	pop	r28
    1bd0:	08 95       	ret

00001bd2 <print_highscore>:

// TODO save highscore in EEPROM??
// Ja ass
void print_highscore() {
    1bd2:	cf 93       	push	r28
    1bd4:	df 93       	push	r29
    1bd6:	cd b7       	in	r28, 0x3d	; 61
    1bd8:	de b7       	in	r29, 0x3e	; 62
	oled_pos(5,2);
    1bda:	62 e0       	ldi	r22, 0x02	; 2
    1bdc:	85 e0       	ldi	r24, 0x05	; 5
    1bde:	0e 94 a9 10 	call	0x2152	; 0x2152 <oled_pos>
	oled_print_string("1: ");
    1be2:	8b e7       	ldi	r24, 0x7B	; 123
    1be4:	92 e0       	ldi	r25, 0x02	; 2
    1be6:	0e 94 f4 10 	call	0x21e8	; 0x21e8 <oled_print_string>
	oled_pos(5,6);
    1bea:	66 e0       	ldi	r22, 0x06	; 6
    1bec:	85 e0       	ldi	r24, 0x05	; 5
    1bee:	0e 94 a9 10 	call	0x2152	; 0x2152 <oled_pos>
	oled_print_string(first_place);
    1bf2:	81 ed       	ldi	r24, 0xD1	; 209
    1bf4:	93 e0       	ldi	r25, 0x03	; 3
    1bf6:	0e 94 f4 10 	call	0x21e8	; 0x21e8 <oled_print_string>
	oled_pos(6,2);
    1bfa:	62 e0       	ldi	r22, 0x02	; 2
    1bfc:	86 e0       	ldi	r24, 0x06	; 6
    1bfe:	0e 94 a9 10 	call	0x2152	; 0x2152 <oled_pos>
	oled_print_string("2: ");
    1c02:	8f e7       	ldi	r24, 0x7F	; 127
    1c04:	92 e0       	ldi	r25, 0x02	; 2
    1c06:	0e 94 f4 10 	call	0x21e8	; 0x21e8 <oled_print_string>
	oled_pos(6,6);
    1c0a:	66 e0       	ldi	r22, 0x06	; 6
    1c0c:	86 e0       	ldi	r24, 0x06	; 6
    1c0e:	0e 94 a9 10 	call	0x2152	; 0x2152 <oled_pos>
	oled_print_string(second_place);
    1c12:	82 e1       	ldi	r24, 0x12	; 18
    1c14:	94 e0       	ldi	r25, 0x04	; 4
    1c16:	0e 94 f4 10 	call	0x21e8	; 0x21e8 <oled_print_string>
	oled_pos(7,2);
    1c1a:	62 e0       	ldi	r22, 0x02	; 2
    1c1c:	87 e0       	ldi	r24, 0x07	; 7
    1c1e:	0e 94 a9 10 	call	0x2152	; 0x2152 <oled_pos>
	oled_print_string("3: ");
    1c22:	83 e8       	ldi	r24, 0x83	; 131
    1c24:	92 e0       	ldi	r25, 0x02	; 2
    1c26:	0e 94 f4 10 	call	0x21e8	; 0x21e8 <oled_print_string>
	oled_pos(7,6);
    1c2a:	66 e0       	ldi	r22, 0x06	; 6
    1c2c:	87 e0       	ldi	r24, 0x07	; 7
    1c2e:	0e 94 a9 10 	call	0x2152	; 0x2152 <oled_pos>
	oled_print_string(third_place);
    1c32:	85 ef       	ldi	r24, 0xF5	; 245
    1c34:	93 e0       	ldi	r25, 0x03	; 3
    1c36:	0e 94 f4 10 	call	0x21e8	; 0x21e8 <oled_print_string>
	oled_pos(1,2);
    1c3a:	62 e0       	ldi	r22, 0x02	; 2
    1c3c:	81 e0       	ldi	r24, 0x01	; 1
    1c3e:	0e 94 a9 10 	call	0x2152	; 0x2152 <oled_pos>
	oled_print_string("RETURN");
    1c42:	80 e6       	ldi	r24, 0x60	; 96
    1c44:	92 e0       	ldi	r25, 0x02	; 2
    1c46:	0e 94 f4 10 	call	0x21e8	; 0x21e8 <oled_print_string>
}
    1c4a:	df 91       	pop	r29
    1c4c:	cf 91       	pop	r28
    1c4e:	08 95       	ret

00001c50 <print_settings>:

print_settings()
{
    1c50:	cf 93       	push	r28
    1c52:	df 93       	push	r29
    1c54:	cd b7       	in	r28, 0x3d	; 61
    1c56:	de b7       	in	r29, 0x3e	; 62
	oled_pos(5,2);
    1c58:	62 e0       	ldi	r22, 0x02	; 2
    1c5a:	85 e0       	ldi	r24, 0x05	; 5
    1c5c:	0e 94 a9 10 	call	0x2152	; 0x2152 <oled_pos>
	oled_print_string("CAL. JOYST.");
    1c60:	87 e8       	ldi	r24, 0x87	; 135
    1c62:	92 e0       	ldi	r25, 0x02	; 2
    1c64:	0e 94 f4 10 	call	0x21e8	; 0x21e8 <oled_print_string>
	oled_pos(6,2);
    1c68:	62 e0       	ldi	r22, 0x02	; 2
    1c6a:	86 e0       	ldi	r24, 0x06	; 6
    1c6c:	0e 94 a9 10 	call	0x2152	; 0x2152 <oled_pos>
	oled_print_string("DEBUGGING");
    1c70:	83 e9       	ldi	r24, 0x93	; 147
    1c72:	92 e0       	ldi	r25, 0x02	; 2
    1c74:	0e 94 f4 10 	call	0x21e8	; 0x21e8 <oled_print_string>
	oled_pos(7,2);
    1c78:	62 e0       	ldi	r22, 0x02	; 2
    1c7a:	87 e0       	ldi	r24, 0x07	; 7
    1c7c:	0e 94 a9 10 	call	0x2152	; 0x2152 <oled_pos>
	oled_print_string("RETURN");
    1c80:	80 e6       	ldi	r24, 0x60	; 96
    1c82:	92 e0       	ldi	r25, 0x02	; 2
    1c84:	0e 94 f4 10 	call	0x21e8	; 0x21e8 <oled_print_string>
}
    1c88:	df 91       	pop	r29
    1c8a:	cf 91       	pop	r28
    1c8c:	08 95       	ret

00001c8e <get_game_mode>:

int get_game_mode(){
    1c8e:	cf 93       	push	r28
    1c90:	df 93       	push	r29
    1c92:	cd b7       	in	r28, 0x3d	; 61
    1c94:	de b7       	in	r29, 0x3e	; 62
	return game_started;
    1c96:	80 91 9f 03 	lds	r24, 0x039F
    1c9a:	88 2f       	mov	r24, r24
    1c9c:	90 e0       	ldi	r25, 0x00	; 0
}
    1c9e:	df 91       	pop	r29
    1ca0:	cf 91       	pop	r28
    1ca2:	08 95       	ret

00001ca4 <restart_game_mode>:
void restart_game_mode(){
    1ca4:	cf 93       	push	r28
    1ca6:	df 93       	push	r29
    1ca8:	cd b7       	in	r28, 0x3d	; 61
    1caa:	de b7       	in	r29, 0x3e	; 62
	game_started = 0;
    1cac:	10 92 9f 03 	sts	0x039F, r1
}
    1cb0:	df 91       	pop	r29
    1cb2:	cf 91       	pop	r28
    1cb4:	08 95       	ret

00001cb6 <set_high_score_list>:

void set_high_score_list(int score)
{
    1cb6:	cf 93       	push	r28
    1cb8:	df 93       	push	r29
    1cba:	00 d0       	rcall	.+0      	; 0x1cbc <set_high_score_list+0x6>
    1cbc:	00 d0       	rcall	.+0      	; 0x1cbe <set_high_score_list+0x8>
    1cbe:	1f 92       	push	r1
    1cc0:	cd b7       	in	r28, 0x3d	; 61
    1cc2:	de b7       	in	r29, 0x3e	; 62
    1cc4:	9d 83       	std	Y+5, r25	; 0x05
    1cc6:	8c 83       	std	Y+4, r24	; 0x04
	for (uint8_t i=0; i < 3; i++)
    1cc8:	19 82       	std	Y+1, r1	; 0x01
    1cca:	55 c0       	rjmp	.+170    	; 0x1d76 <set_high_score_list+0xc0>
	{
		if (score > high_score[i])
    1ccc:	89 81       	ldd	r24, Y+1	; 0x01
    1cce:	88 2f       	mov	r24, r24
    1cd0:	90 e0       	ldi	r25, 0x00	; 0
    1cd2:	88 0f       	add	r24, r24
    1cd4:	99 1f       	adc	r25, r25
    1cd6:	8f 54       	subi	r24, 0x4F	; 79
    1cd8:	9c 4f       	sbci	r25, 0xFC	; 252
    1cda:	fc 01       	movw	r30, r24
    1cdc:	20 81       	ld	r18, Z
    1cde:	31 81       	ldd	r19, Z+1	; 0x01
    1ce0:	8c 81       	ldd	r24, Y+4	; 0x04
    1ce2:	9d 81       	ldd	r25, Y+5	; 0x05
    1ce4:	28 17       	cp	r18, r24
    1ce6:	39 07       	cpc	r19, r25
    1ce8:	0c f0       	brlt	.+2      	; 0x1cec <set_high_score_list+0x36>
    1cea:	42 c0       	rjmp	.+132    	; 0x1d70 <set_high_score_list+0xba>
		{
			if (i == 2)
    1cec:	89 81       	ldd	r24, Y+1	; 0x01
    1cee:	82 30       	cpi	r24, 0x02	; 2
    1cf0:	69 f4       	brne	.+26     	; 0x1d0c <set_high_score_list+0x56>
			{
				high_score[i] = score;
    1cf2:	89 81       	ldd	r24, Y+1	; 0x01
    1cf4:	88 2f       	mov	r24, r24
    1cf6:	90 e0       	ldi	r25, 0x00	; 0
    1cf8:	88 0f       	add	r24, r24
    1cfa:	99 1f       	adc	r25, r25
    1cfc:	8f 54       	subi	r24, 0x4F	; 79
    1cfe:	9c 4f       	sbci	r25, 0xFC	; 252
    1d00:	2c 81       	ldd	r18, Y+4	; 0x04
    1d02:	3d 81       	ldd	r19, Y+5	; 0x05
    1d04:	fc 01       	movw	r30, r24
    1d06:	31 83       	std	Z+1, r19	; 0x01
    1d08:	20 83       	st	Z, r18
					high_score[k] = high_score[k-1];
					k--;
				}
				high_score[i] = score;
			}
			break;
    1d0a:	39 c0       	rjmp	.+114    	; 0x1d7e <set_high_score_list+0xc8>
			if (i == 2)
			{
				high_score[i] = score;
			}
			else{
				int k = 2;
    1d0c:	82 e0       	ldi	r24, 0x02	; 2
    1d0e:	90 e0       	ldi	r25, 0x00	; 0
    1d10:	9b 83       	std	Y+3, r25	; 0x03
    1d12:	8a 83       	std	Y+2, r24	; 0x02
				while(k > i)
    1d14:	18 c0       	rjmp	.+48     	; 0x1d46 <set_high_score_list+0x90>
				{
					high_score[k] = high_score[k-1];
    1d16:	8a 81       	ldd	r24, Y+2	; 0x02
    1d18:	9b 81       	ldd	r25, Y+3	; 0x03
    1d1a:	01 97       	sbiw	r24, 0x01	; 1
    1d1c:	88 0f       	add	r24, r24
    1d1e:	99 1f       	adc	r25, r25
    1d20:	8f 54       	subi	r24, 0x4F	; 79
    1d22:	9c 4f       	sbci	r25, 0xFC	; 252
    1d24:	fc 01       	movw	r30, r24
    1d26:	20 81       	ld	r18, Z
    1d28:	31 81       	ldd	r19, Z+1	; 0x01
    1d2a:	8a 81       	ldd	r24, Y+2	; 0x02
    1d2c:	9b 81       	ldd	r25, Y+3	; 0x03
    1d2e:	88 0f       	add	r24, r24
    1d30:	99 1f       	adc	r25, r25
    1d32:	8f 54       	subi	r24, 0x4F	; 79
    1d34:	9c 4f       	sbci	r25, 0xFC	; 252
    1d36:	fc 01       	movw	r30, r24
    1d38:	31 83       	std	Z+1, r19	; 0x01
    1d3a:	20 83       	st	Z, r18
					k--;
    1d3c:	8a 81       	ldd	r24, Y+2	; 0x02
    1d3e:	9b 81       	ldd	r25, Y+3	; 0x03
    1d40:	01 97       	sbiw	r24, 0x01	; 1
    1d42:	9b 83       	std	Y+3, r25	; 0x03
    1d44:	8a 83       	std	Y+2, r24	; 0x02
			{
				high_score[i] = score;
			}
			else{
				int k = 2;
				while(k > i)
    1d46:	89 81       	ldd	r24, Y+1	; 0x01
    1d48:	28 2f       	mov	r18, r24
    1d4a:	30 e0       	ldi	r19, 0x00	; 0
    1d4c:	8a 81       	ldd	r24, Y+2	; 0x02
    1d4e:	9b 81       	ldd	r25, Y+3	; 0x03
    1d50:	28 17       	cp	r18, r24
    1d52:	39 07       	cpc	r19, r25
    1d54:	04 f3       	brlt	.-64     	; 0x1d16 <set_high_score_list+0x60>
				{
					high_score[k] = high_score[k-1];
					k--;
				}
				high_score[i] = score;
    1d56:	89 81       	ldd	r24, Y+1	; 0x01
    1d58:	88 2f       	mov	r24, r24
    1d5a:	90 e0       	ldi	r25, 0x00	; 0
    1d5c:	88 0f       	add	r24, r24
    1d5e:	99 1f       	adc	r25, r25
    1d60:	8f 54       	subi	r24, 0x4F	; 79
    1d62:	9c 4f       	sbci	r25, 0xFC	; 252
    1d64:	2c 81       	ldd	r18, Y+4	; 0x04
    1d66:	3d 81       	ldd	r19, Y+5	; 0x05
    1d68:	fc 01       	movw	r30, r24
    1d6a:	31 83       	std	Z+1, r19	; 0x01
    1d6c:	20 83       	st	Z, r18
			}
			break;
    1d6e:	07 c0       	rjmp	.+14     	; 0x1d7e <set_high_score_list+0xc8>
	game_started = 0;
}

void set_high_score_list(int score)
{
	for (uint8_t i=0; i < 3; i++)
    1d70:	89 81       	ldd	r24, Y+1	; 0x01
    1d72:	8f 5f       	subi	r24, 0xFF	; 255
    1d74:	89 83       	std	Y+1, r24	; 0x01
    1d76:	89 81       	ldd	r24, Y+1	; 0x01
    1d78:	83 30       	cpi	r24, 0x03	; 3
    1d7a:	08 f4       	brcc	.+2      	; 0x1d7e <set_high_score_list+0xc8>
    1d7c:	a7 cf       	rjmp	.-178    	; 0x1ccc <set_high_score_list+0x16>
			break;
		}
		
	}
	// Sort list just in case
	sort_list(high_score,3);
    1d7e:	63 e0       	ldi	r22, 0x03	; 3
    1d80:	70 e0       	ldi	r23, 0x00	; 0
    1d82:	81 eb       	ldi	r24, 0xB1	; 177
    1d84:	93 e0       	ldi	r25, 0x03	; 3
    1d86:	0e 94 eb 0e 	call	0x1dd6	; 0x1dd6 <sort_list>

	itoa(high_score[0], first_place,10);
    1d8a:	80 91 b1 03 	lds	r24, 0x03B1
    1d8e:	90 91 b2 03 	lds	r25, 0x03B2
    1d92:	4a e0       	ldi	r20, 0x0A	; 10
    1d94:	50 e0       	ldi	r21, 0x00	; 0
    1d96:	61 ed       	ldi	r22, 0xD1	; 209
    1d98:	73 e0       	ldi	r23, 0x03	; 3
    1d9a:	0e 94 d3 16 	call	0x2da6	; 0x2da6 <itoa>
	itoa(high_score[1], second_place,10);
    1d9e:	80 91 b3 03 	lds	r24, 0x03B3
    1da2:	90 91 b4 03 	lds	r25, 0x03B4
    1da6:	4a e0       	ldi	r20, 0x0A	; 10
    1da8:	50 e0       	ldi	r21, 0x00	; 0
    1daa:	62 e1       	ldi	r22, 0x12	; 18
    1dac:	74 e0       	ldi	r23, 0x04	; 4
    1dae:	0e 94 d3 16 	call	0x2da6	; 0x2da6 <itoa>
	itoa(high_score[2], third_place,10);
    1db2:	80 91 b5 03 	lds	r24, 0x03B5
    1db6:	90 91 b6 03 	lds	r25, 0x03B6
    1dba:	4a e0       	ldi	r20, 0x0A	; 10
    1dbc:	50 e0       	ldi	r21, 0x00	; 0
    1dbe:	65 ef       	ldi	r22, 0xF5	; 245
    1dc0:	73 e0       	ldi	r23, 0x03	; 3
    1dc2:	0e 94 d3 16 	call	0x2da6	; 0x2da6 <itoa>
	
	
}
    1dc6:	0f 90       	pop	r0
    1dc8:	0f 90       	pop	r0
    1dca:	0f 90       	pop	r0
    1dcc:	0f 90       	pop	r0
    1dce:	0f 90       	pop	r0
    1dd0:	df 91       	pop	r29
    1dd2:	cf 91       	pop	r28
    1dd4:	08 95       	ret

00001dd6 <sort_list>:



// Insertion sort in descending order
void sort_list(int * list[], int size)
{
    1dd6:	cf 93       	push	r28
    1dd8:	df 93       	push	r29
    1dda:	cd b7       	in	r28, 0x3d	; 61
    1ddc:	de b7       	in	r29, 0x3e	; 62
    1dde:	2a 97       	sbiw	r28, 0x0a	; 10
    1de0:	0f b6       	in	r0, 0x3f	; 63
    1de2:	f8 94       	cli
    1de4:	de bf       	out	0x3e, r29	; 62
    1de6:	0f be       	out	0x3f, r0	; 63
    1de8:	cd bf       	out	0x3d, r28	; 61
    1dea:	98 87       	std	Y+8, r25	; 0x08
    1dec:	8f 83       	std	Y+7, r24	; 0x07
    1dee:	7a 87       	std	Y+10, r23	; 0x0a
    1df0:	69 87       	std	Y+9, r22	; 0x09
	int length = size;
    1df2:	89 85       	ldd	r24, Y+9	; 0x09
    1df4:	9a 85       	ldd	r25, Y+10	; 0x0a
    1df6:	9c 83       	std	Y+4, r25	; 0x04
    1df8:	8b 83       	std	Y+3, r24	; 0x03
	uint8_t d;
	int t;
	for (uint8_t c = 1 ; c <= length - 1; c++) {
    1dfa:	81 e0       	ldi	r24, 0x01	; 1
    1dfc:	8a 83       	std	Y+2, r24	; 0x02
    1dfe:	62 c0       	rjmp	.+196    	; 0x1ec4 <sort_list+0xee>
		d = c;
    1e00:	8a 81       	ldd	r24, Y+2	; 0x02
    1e02:	89 83       	std	Y+1, r24	; 0x01
		
		while ( d > 0 && list[d] > list[d-1]) {
    1e04:	3b c0       	rjmp	.+118    	; 0x1e7c <sort_list+0xa6>
			t          = list[d];
    1e06:	89 81       	ldd	r24, Y+1	; 0x01
    1e08:	88 2f       	mov	r24, r24
    1e0a:	90 e0       	ldi	r25, 0x00	; 0
    1e0c:	88 0f       	add	r24, r24
    1e0e:	99 1f       	adc	r25, r25
    1e10:	2f 81       	ldd	r18, Y+7	; 0x07
    1e12:	38 85       	ldd	r19, Y+8	; 0x08
    1e14:	82 0f       	add	r24, r18
    1e16:	93 1f       	adc	r25, r19
    1e18:	fc 01       	movw	r30, r24
    1e1a:	80 81       	ld	r24, Z
    1e1c:	91 81       	ldd	r25, Z+1	; 0x01
    1e1e:	9e 83       	std	Y+6, r25	; 0x06
    1e20:	8d 83       	std	Y+5, r24	; 0x05
			list[d]    = list[d-1];
    1e22:	89 81       	ldd	r24, Y+1	; 0x01
    1e24:	88 2f       	mov	r24, r24
    1e26:	90 e0       	ldi	r25, 0x00	; 0
    1e28:	88 0f       	add	r24, r24
    1e2a:	99 1f       	adc	r25, r25
    1e2c:	2f 81       	ldd	r18, Y+7	; 0x07
    1e2e:	38 85       	ldd	r19, Y+8	; 0x08
    1e30:	82 0f       	add	r24, r18
    1e32:	93 1f       	adc	r25, r19
    1e34:	29 81       	ldd	r18, Y+1	; 0x01
    1e36:	22 2f       	mov	r18, r18
    1e38:	30 e0       	ldi	r19, 0x00	; 0
    1e3a:	21 50       	subi	r18, 0x01	; 1
    1e3c:	30 48       	sbci	r19, 0x80	; 128
    1e3e:	22 0f       	add	r18, r18
    1e40:	33 1f       	adc	r19, r19
    1e42:	4f 81       	ldd	r20, Y+7	; 0x07
    1e44:	58 85       	ldd	r21, Y+8	; 0x08
    1e46:	24 0f       	add	r18, r20
    1e48:	35 1f       	adc	r19, r21
    1e4a:	f9 01       	movw	r30, r18
    1e4c:	20 81       	ld	r18, Z
    1e4e:	31 81       	ldd	r19, Z+1	; 0x01
    1e50:	fc 01       	movw	r30, r24
    1e52:	31 83       	std	Z+1, r19	; 0x01
    1e54:	20 83       	st	Z, r18
			list[d-1]  = t;
    1e56:	89 81       	ldd	r24, Y+1	; 0x01
    1e58:	88 2f       	mov	r24, r24
    1e5a:	90 e0       	ldi	r25, 0x00	; 0
    1e5c:	81 50       	subi	r24, 0x01	; 1
    1e5e:	90 48       	sbci	r25, 0x80	; 128
    1e60:	88 0f       	add	r24, r24
    1e62:	99 1f       	adc	r25, r25
    1e64:	2f 81       	ldd	r18, Y+7	; 0x07
    1e66:	38 85       	ldd	r19, Y+8	; 0x08
    1e68:	82 0f       	add	r24, r18
    1e6a:	93 1f       	adc	r25, r19
    1e6c:	2d 81       	ldd	r18, Y+5	; 0x05
    1e6e:	3e 81       	ldd	r19, Y+6	; 0x06
    1e70:	fc 01       	movw	r30, r24
    1e72:	31 83       	std	Z+1, r19	; 0x01
    1e74:	20 83       	st	Z, r18
			
			d--;
    1e76:	89 81       	ldd	r24, Y+1	; 0x01
    1e78:	81 50       	subi	r24, 0x01	; 1
    1e7a:	89 83       	std	Y+1, r24	; 0x01
	uint8_t d;
	int t;
	for (uint8_t c = 1 ; c <= length - 1; c++) {
		d = c;
		
		while ( d > 0 && list[d] > list[d-1]) {
    1e7c:	89 81       	ldd	r24, Y+1	; 0x01
    1e7e:	88 23       	and	r24, r24
    1e80:	f1 f0       	breq	.+60     	; 0x1ebe <sort_list+0xe8>
    1e82:	89 81       	ldd	r24, Y+1	; 0x01
    1e84:	88 2f       	mov	r24, r24
    1e86:	90 e0       	ldi	r25, 0x00	; 0
    1e88:	88 0f       	add	r24, r24
    1e8a:	99 1f       	adc	r25, r25
    1e8c:	2f 81       	ldd	r18, Y+7	; 0x07
    1e8e:	38 85       	ldd	r19, Y+8	; 0x08
    1e90:	82 0f       	add	r24, r18
    1e92:	93 1f       	adc	r25, r19
    1e94:	fc 01       	movw	r30, r24
    1e96:	20 81       	ld	r18, Z
    1e98:	31 81       	ldd	r19, Z+1	; 0x01
    1e9a:	89 81       	ldd	r24, Y+1	; 0x01
    1e9c:	88 2f       	mov	r24, r24
    1e9e:	90 e0       	ldi	r25, 0x00	; 0
    1ea0:	81 50       	subi	r24, 0x01	; 1
    1ea2:	90 48       	sbci	r25, 0x80	; 128
    1ea4:	88 0f       	add	r24, r24
    1ea6:	99 1f       	adc	r25, r25
    1ea8:	4f 81       	ldd	r20, Y+7	; 0x07
    1eaa:	58 85       	ldd	r21, Y+8	; 0x08
    1eac:	84 0f       	add	r24, r20
    1eae:	95 1f       	adc	r25, r21
    1eb0:	fc 01       	movw	r30, r24
    1eb2:	80 81       	ld	r24, Z
    1eb4:	91 81       	ldd	r25, Z+1	; 0x01
    1eb6:	82 17       	cp	r24, r18
    1eb8:	93 07       	cpc	r25, r19
    1eba:	08 f4       	brcc	.+2      	; 0x1ebe <sort_list+0xe8>
    1ebc:	a4 cf       	rjmp	.-184    	; 0x1e06 <sort_list+0x30>
void sort_list(int * list[], int size)
{
	int length = size;
	uint8_t d;
	int t;
	for (uint8_t c = 1 ; c <= length - 1; c++) {
    1ebe:	8a 81       	ldd	r24, Y+2	; 0x02
    1ec0:	8f 5f       	subi	r24, 0xFF	; 255
    1ec2:	8a 83       	std	Y+2, r24	; 0x02
    1ec4:	8a 81       	ldd	r24, Y+2	; 0x02
    1ec6:	28 2f       	mov	r18, r24
    1ec8:	30 e0       	ldi	r19, 0x00	; 0
    1eca:	8b 81       	ldd	r24, Y+3	; 0x03
    1ecc:	9c 81       	ldd	r25, Y+4	; 0x04
    1ece:	01 97       	sbiw	r24, 0x01	; 1
    1ed0:	82 17       	cp	r24, r18
    1ed2:	93 07       	cpc	r25, r19
    1ed4:	0c f0       	brlt	.+2      	; 0x1ed8 <sort_list+0x102>
    1ed6:	94 cf       	rjmp	.-216    	; 0x1e00 <sort_list+0x2a>
			list[d-1]  = t;
			
			d--;
		}
	}
}
    1ed8:	2a 96       	adiw	r28, 0x0a	; 10
    1eda:	0f b6       	in	r0, 0x3f	; 63
    1edc:	f8 94       	cli
    1ede:	de bf       	out	0x3e, r29	; 62
    1ee0:	0f be       	out	0x3f, r0	; 63
    1ee2:	cd bf       	out	0x3d, r28	; 61
    1ee4:	df 91       	pop	r29
    1ee6:	cf 91       	pop	r28
    1ee8:	08 95       	ret

00001eea <menu_playing>:

void menu_playing(uint8_t lives)
{
    1eea:	cf 93       	push	r28
    1eec:	df 93       	push	r29
    1eee:	1f 92       	push	r1
    1ef0:	cd b7       	in	r28, 0x3d	; 61
    1ef2:	de b7       	in	r29, 0x3e	; 62
    1ef4:	89 83       	std	Y+1, r24	; 0x01
	oled_reset();
    1ef6:	0e 94 11 10 	call	0x2022	; 0x2022 <oled_reset>
	oled_home();
    1efa:	0e 94 2b 10 	call	0x2056	; 0x2056 <oled_home>
	oled_pos(3,2);
    1efe:	62 e0       	ldi	r22, 0x02	; 2
    1f00:	83 e0       	ldi	r24, 0x03	; 3
    1f02:	0e 94 a9 10 	call	0x2152	; 0x2152 <oled_pos>
	oled_print_string(playing);
    1f06:	82 e8       	ldi	r24, 0x82	; 130
    1f08:	93 e0       	ldi	r25, 0x03	; 3
    1f0a:	0e 94 f4 10 	call	0x21e8	; 0x21e8 <oled_print_string>
	oled_pos(5,2);
    1f0e:	62 e0       	ldi	r22, 0x02	; 2
    1f10:	85 e0       	ldi	r24, 0x05	; 5
    1f12:	0e 94 a9 10 	call	0x2152	; 0x2152 <oled_pos>
	oled_print_string(number_of_lives);
    1f16:	8f e8       	ldi	r24, 0x8F	; 143
    1f18:	93 e0       	ldi	r25, 0x03	; 3
    1f1a:	0e 94 f4 10 	call	0x21e8	; 0x21e8 <oled_print_string>
	oled_pos(5,sizeof(number_of_lives)+1);
    1f1e:	6d e0       	ldi	r22, 0x0D	; 13
    1f20:	85 e0       	ldi	r24, 0x05	; 5
    1f22:	0e 94 a9 10 	call	0x2152	; 0x2152 <oled_pos>
	oled_print_string(itoa(lives,lives_int,10));
    1f26:	89 81       	ldd	r24, Y+1	; 0x01
    1f28:	88 2f       	mov	r24, r24
    1f2a:	90 e0       	ldi	r25, 0x00	; 0
    1f2c:	4a e0       	ldi	r20, 0x0A	; 10
    1f2e:	50 e0       	ldi	r21, 0x00	; 0
    1f30:	6d ef       	ldi	r22, 0xFD	; 253
    1f32:	73 e0       	ldi	r23, 0x03	; 3
    1f34:	0e 94 d3 16 	call	0x2da6	; 0x2da6 <itoa>
    1f38:	0e 94 f4 10 	call	0x21e8	; 0x21e8 <oled_print_string>
}
    1f3c:	0f 90       	pop	r0
    1f3e:	df 91       	pop	r29
    1f40:	cf 91       	pop	r28
    1f42:	08 95       	ret

00001f44 <oled_init>:
uint8_t current_column;

uint8_t getCurrentLine(){
	return currentLine;
}
void oled_init(){
    1f44:	cf 93       	push	r28
    1f46:	df 93       	push	r29
    1f48:	cd b7       	in	r28, 0x3d	; 61
    1f4a:	de b7       	in	r29, 0x3e	; 62
	
	//SFIOR |= (1 << XMM2);
	
	write_c(0xae);        //  display  off
    1f4c:	8e ea       	ldi	r24, 0xAE	; 174
    1f4e:	0e 94 ef 0f 	call	0x1fde	; 0x1fde <write_c>
	write_c(0xa1);        //segment  remap
    1f52:	81 ea       	ldi	r24, 0xA1	; 161
    1f54:	0e 94 ef 0f 	call	0x1fde	; 0x1fde <write_c>
	write_c(0xda);        //common  pads  hardware:  alternative
    1f58:	8a ed       	ldi	r24, 0xDA	; 218
    1f5a:	0e 94 ef 0f 	call	0x1fde	; 0x1fde <write_c>
	write_c(0x12);
    1f5e:	82 e1       	ldi	r24, 0x12	; 18
    1f60:	0e 94 ef 0f 	call	0x1fde	; 0x1fde <write_c>
	write_c(0xc8);        //common output scan direction:com63~com0
    1f64:	88 ec       	ldi	r24, 0xC8	; 200
    1f66:	0e 94 ef 0f 	call	0x1fde	; 0x1fde <write_c>
	write_c(0xa8);        //multiplex  ration  mode:63
    1f6a:	88 ea       	ldi	r24, 0xA8	; 168
    1f6c:	0e 94 ef 0f 	call	0x1fde	; 0x1fde <write_c>
	write_c(0x3f);
    1f70:	8f e3       	ldi	r24, 0x3F	; 63
    1f72:	0e 94 ef 0f 	call	0x1fde	; 0x1fde <write_c>
	write_c(0xd5);        //display divide ratio/osc. freq. mode
    1f76:	85 ed       	ldi	r24, 0xD5	; 213
    1f78:	0e 94 ef 0f 	call	0x1fde	; 0x1fde <write_c>
	write_c(0x80);
    1f7c:	80 e8       	ldi	r24, 0x80	; 128
    1f7e:	0e 94 ef 0f 	call	0x1fde	; 0x1fde <write_c>
	write_c(0x81);        //contrast  control
    1f82:	81 e8       	ldi	r24, 0x81	; 129
    1f84:	0e 94 ef 0f 	call	0x1fde	; 0x1fde <write_c>
	write_c(0x50);
    1f88:	80 e5       	ldi	r24, 0x50	; 80
    1f8a:	0e 94 ef 0f 	call	0x1fde	; 0x1fde <write_c>
	write_c(0xd9);        //set  pre-charge  period
    1f8e:	89 ed       	ldi	r24, 0xD9	; 217
    1f90:	0e 94 ef 0f 	call	0x1fde	; 0x1fde <write_c>
	write_c(0x21);
    1f94:	81 e2       	ldi	r24, 0x21	; 33
    1f96:	0e 94 ef 0f 	call	0x1fde	; 0x1fde <write_c>
	write_c(0x20);        //Set  Memory  Addressing  Mode
    1f9a:	80 e2       	ldi	r24, 0x20	; 32
    1f9c:	0e 94 ef 0f 	call	0x1fde	; 0x1fde <write_c>
	write_c(0x02);
    1fa0:	82 e0       	ldi	r24, 0x02	; 2
    1fa2:	0e 94 ef 0f 	call	0x1fde	; 0x1fde <write_c>
	write_c(0xdb);        //VCOM  deselect  level  mode
    1fa6:	8b ed       	ldi	r24, 0xDB	; 219
    1fa8:	0e 94 ef 0f 	call	0x1fde	; 0x1fde <write_c>
	write_c(0x30);
    1fac:	80 e3       	ldi	r24, 0x30	; 48
    1fae:	0e 94 ef 0f 	call	0x1fde	; 0x1fde <write_c>
	write_c(0xad);        //master  configuration
    1fb2:	8d ea       	ldi	r24, 0xAD	; 173
    1fb4:	0e 94 ef 0f 	call	0x1fde	; 0x1fde <write_c>
	write_c(0x00);
    1fb8:	80 e0       	ldi	r24, 0x00	; 0
    1fba:	0e 94 ef 0f 	call	0x1fde	; 0x1fde <write_c>
	write_c(0xa4);        //out  follows  RAM  content
    1fbe:	84 ea       	ldi	r24, 0xA4	; 164
    1fc0:	0e 94 ef 0f 	call	0x1fde	; 0x1fde <write_c>
	write_c(0xa6);        //set  normal  display
    1fc4:	86 ea       	ldi	r24, 0xA6	; 166
    1fc6:	0e 94 ef 0f 	call	0x1fde	; 0x1fde <write_c>
	write_c(0xaf);        //  display  on
    1fca:	8f ea       	ldi	r24, 0xAF	; 175
    1fcc:	0e 94 ef 0f 	call	0x1fde	; 0x1fde <write_c>
	oled_reset();
    1fd0:	0e 94 11 10 	call	0x2022	; 0x2022 <oled_reset>
	oled_home();
    1fd4:	0e 94 2b 10 	call	0x2056	; 0x2056 <oled_home>
	
}
    1fd8:	df 91       	pop	r29
    1fda:	cf 91       	pop	r28
    1fdc:	08 95       	ret

00001fde <write_c>:

void write_c(unsigned char char_command){
    1fde:	cf 93       	push	r28
    1fe0:	df 93       	push	r29
    1fe2:	1f 92       	push	r1
    1fe4:	cd b7       	in	r28, 0x3d	; 61
    1fe6:	de b7       	in	r29, 0x3e	; 62
    1fe8:	89 83       	std	Y+1, r24	; 0x01
	*command_address= char_command;
    1fea:	80 91 0f 01 	lds	r24, 0x010F
    1fee:	90 91 10 01 	lds	r25, 0x0110
    1ff2:	29 81       	ldd	r18, Y+1	; 0x01
    1ff4:	fc 01       	movw	r30, r24
    1ff6:	20 83       	st	Z, r18
}
    1ff8:	0f 90       	pop	r0
    1ffa:	df 91       	pop	r29
    1ffc:	cf 91       	pop	r28
    1ffe:	08 95       	ret

00002000 <write_d>:

void write_d(unsigned char char_data){
    2000:	cf 93       	push	r28
    2002:	df 93       	push	r29
    2004:	1f 92       	push	r1
    2006:	cd b7       	in	r28, 0x3d	; 61
    2008:	de b7       	in	r29, 0x3e	; 62
    200a:	89 83       	std	Y+1, r24	; 0x01
	*data_address = char_data;
    200c:	80 91 11 01 	lds	r24, 0x0111
    2010:	90 91 12 01 	lds	r25, 0x0112
    2014:	29 81       	ldd	r18, Y+1	; 0x01
    2016:	fc 01       	movw	r30, r24
    2018:	20 83       	st	Z, r18
}
    201a:	0f 90       	pop	r0
    201c:	df 91       	pop	r29
    201e:	cf 91       	pop	r28
    2020:	08 95       	ret

00002022 <oled_reset>:

void oled_reset(){
    2022:	cf 93       	push	r28
    2024:	df 93       	push	r29
    2026:	00 d0       	rcall	.+0      	; 0x2028 <oled_reset+0x6>
    2028:	cd b7       	in	r28, 0x3d	; 61
    202a:	de b7       	in	r29, 0x3e	; 62
	for (int i = 0; i<8;i++){
    202c:	1a 82       	std	Y+2, r1	; 0x02
    202e:	19 82       	std	Y+1, r1	; 0x01
    2030:	08 c0       	rjmp	.+16     	; 0x2042 <oled_reset+0x20>
		oled_clear_line(i);
    2032:	89 81       	ldd	r24, Y+1	; 0x01
    2034:	0e 94 89 10 	call	0x2112	; 0x2112 <oled_clear_line>
void write_d(unsigned char char_data){
	*data_address = char_data;
}

void oled_reset(){
	for (int i = 0; i<8;i++){
    2038:	89 81       	ldd	r24, Y+1	; 0x01
    203a:	9a 81       	ldd	r25, Y+2	; 0x02
    203c:	01 96       	adiw	r24, 0x01	; 1
    203e:	9a 83       	std	Y+2, r25	; 0x02
    2040:	89 83       	std	Y+1, r24	; 0x01
    2042:	89 81       	ldd	r24, Y+1	; 0x01
    2044:	9a 81       	ldd	r25, Y+2	; 0x02
    2046:	88 30       	cpi	r24, 0x08	; 8
    2048:	91 05       	cpc	r25, r1
    204a:	9c f3       	brlt	.-26     	; 0x2032 <oled_reset+0x10>
		oled_clear_line(i);
	}
}
    204c:	0f 90       	pop	r0
    204e:	0f 90       	pop	r0
    2050:	df 91       	pop	r29
    2052:	cf 91       	pop	r28
    2054:	08 95       	ret

00002056 <oled_home>:

void oled_home(){
    2056:	cf 93       	push	r28
    2058:	df 93       	push	r29
    205a:	cd b7       	in	r28, 0x3d	; 61
    205c:	de b7       	in	r29, 0x3e	; 62
	write_c(0x21);//starting command(set column address)
    205e:	81 e2       	ldi	r24, 0x21	; 33
    2060:	0e 94 ef 0f 	call	0x1fde	; 0x1fde <write_c>
	write_c(0x00);//start of column address
    2064:	80 e0       	ldi	r24, 0x00	; 0
    2066:	0e 94 ef 0f 	call	0x1fde	; 0x1fde <write_c>
	write_c(0x7F);//end of column address
    206a:	8f e7       	ldi	r24, 0x7F	; 127
    206c:	0e 94 ef 0f 	call	0x1fde	; 0x1fde <write_c>
	
	write_c(0x22);//starting command (set page address)
    2070:	82 e2       	ldi	r24, 0x22	; 34
    2072:	0e 94 ef 0f 	call	0x1fde	; 0x1fde <write_c>
	write_c(0x00);// start of page address
    2076:	80 e0       	ldi	r24, 0x00	; 0
    2078:	0e 94 ef 0f 	call	0x1fde	; 0x1fde <write_c>
	write_c(0x07);//end of page address
    207c:	87 e0       	ldi	r24, 0x07	; 7
    207e:	0e 94 ef 0f 	call	0x1fde	; 0x1fde <write_c>
	currentLine=0;
    2082:	10 92 1a 04 	sts	0x041A, r1
}
    2086:	df 91       	pop	r29
    2088:	cf 91       	pop	r28
    208a:	08 95       	ret

0000208c <oled_goto_line>:
void oled_goto_line(uint8_t line){
    208c:	cf 93       	push	r28
    208e:	df 93       	push	r29
    2090:	1f 92       	push	r1
    2092:	cd b7       	in	r28, 0x3d	; 61
    2094:	de b7       	in	r29, 0x3e	; 62
    2096:	89 83       	std	Y+1, r24	; 0x01
	if (line < 8){
    2098:	89 81       	ldd	r24, Y+1	; 0x01
    209a:	88 30       	cpi	r24, 0x08	; 8
    209c:	38 f4       	brcc	.+14     	; 0x20ac <oled_goto_line+0x20>
		currentLine=line;
    209e:	89 81       	ldd	r24, Y+1	; 0x01
    20a0:	80 93 1a 04 	sts	0x041A, r24
		write_c(0xb0 + line);
    20a4:	89 81       	ldd	r24, Y+1	; 0x01
    20a6:	80 55       	subi	r24, 0x50	; 80
    20a8:	0e 94 ef 0f 	call	0x1fde	; 0x1fde <write_c>
	}
}
    20ac:	0f 90       	pop	r0
    20ae:	df 91       	pop	r29
    20b0:	cf 91       	pop	r28
    20b2:	08 95       	ret

000020b4 <oled_goto_column>:
void oled_goto_column(uint8_t column){
    20b4:	cf 93       	push	r28
    20b6:	df 93       	push	r29
    20b8:	00 d0       	rcall	.+0      	; 0x20ba <oled_goto_column+0x6>
    20ba:	1f 92       	push	r1
    20bc:	cd b7       	in	r28, 0x3d	; 61
    20be:	de b7       	in	r29, 0x3e	; 62
    20c0:	8b 83       	std	Y+3, r24	; 0x03
	//oled_goto_line(currentLine);
	
	if(column*FONTWIDTH <= 127)
    20c2:	8b 81       	ldd	r24, Y+3	; 0x03
    20c4:	88 2f       	mov	r24, r24
    20c6:	90 e0       	ldi	r25, 0x00	; 0
    20c8:	88 0f       	add	r24, r24
    20ca:	99 1f       	adc	r25, r25
    20cc:	88 0f       	add	r24, r24
    20ce:	99 1f       	adc	r25, r25
    20d0:	88 0f       	add	r24, r24
    20d2:	99 1f       	adc	r25, r25
    20d4:	80 38       	cpi	r24, 0x80	; 128
    20d6:	91 05       	cpc	r25, r1
    20d8:	b4 f4       	brge	.+44     	; 0x2106 <oled_goto_column+0x52>
	{
		column = column*FONTWIDTH;
    20da:	8b 81       	ldd	r24, Y+3	; 0x03
    20dc:	88 0f       	add	r24, r24
    20de:	88 0f       	add	r24, r24
    20e0:	88 0f       	add	r24, r24
    20e2:	8b 83       	std	Y+3, r24	; 0x03
		current_column = column;
    20e4:	8b 81       	ldd	r24, Y+3	; 0x03
    20e6:	80 93 1b 04 	sts	0x041B, r24
		char c1 = 0x00 + (column & 0x0F);
    20ea:	8b 81       	ldd	r24, Y+3	; 0x03
    20ec:	8f 70       	andi	r24, 0x0F	; 15
    20ee:	89 83       	std	Y+1, r24	; 0x01
		char c2 = 0x10 + ((column & 0xF0)>>4);
    20f0:	8b 81       	ldd	r24, Y+3	; 0x03
    20f2:	82 95       	swap	r24
    20f4:	8f 70       	andi	r24, 0x0F	; 15
    20f6:	80 5f       	subi	r24, 0xF0	; 240
    20f8:	8a 83       	std	Y+2, r24	; 0x02
		write_c(c1);
    20fa:	89 81       	ldd	r24, Y+1	; 0x01
    20fc:	0e 94 ef 0f 	call	0x1fde	; 0x1fde <write_c>
		write_c(c2);
    2100:	8a 81       	ldd	r24, Y+2	; 0x02
    2102:	0e 94 ef 0f 	call	0x1fde	; 0x1fde <write_c>
	}
}
    2106:	0f 90       	pop	r0
    2108:	0f 90       	pop	r0
    210a:	0f 90       	pop	r0
    210c:	df 91       	pop	r29
    210e:	cf 91       	pop	r28
    2110:	08 95       	ret

00002112 <oled_clear_line>:
void oled_clear_line(uint8_t line){
    2112:	cf 93       	push	r28
    2114:	df 93       	push	r29
    2116:	00 d0       	rcall	.+0      	; 0x2118 <oled_clear_line+0x6>
    2118:	1f 92       	push	r1
    211a:	cd b7       	in	r28, 0x3d	; 61
    211c:	de b7       	in	r29, 0x3e	; 62
    211e:	8b 83       	std	Y+3, r24	; 0x03
	oled_goto_line(line);
    2120:	8b 81       	ldd	r24, Y+3	; 0x03
    2122:	0e 94 46 10 	call	0x208c	; 0x208c <oled_goto_line>
	for (int i = 0; i<128;i++)
    2126:	1a 82       	std	Y+2, r1	; 0x02
    2128:	19 82       	std	Y+1, r1	; 0x01
    212a:	08 c0       	rjmp	.+16     	; 0x213c <oled_clear_line+0x2a>
	{
		write_d(0x00);
    212c:	80 e0       	ldi	r24, 0x00	; 0
    212e:	0e 94 00 10 	call	0x2000	; 0x2000 <write_d>
		write_c(c2);
	}
}
void oled_clear_line(uint8_t line){
	oled_goto_line(line);
	for (int i = 0; i<128;i++)
    2132:	89 81       	ldd	r24, Y+1	; 0x01
    2134:	9a 81       	ldd	r25, Y+2	; 0x02
    2136:	01 96       	adiw	r24, 0x01	; 1
    2138:	9a 83       	std	Y+2, r25	; 0x02
    213a:	89 83       	std	Y+1, r24	; 0x01
    213c:	89 81       	ldd	r24, Y+1	; 0x01
    213e:	9a 81       	ldd	r25, Y+2	; 0x02
    2140:	80 38       	cpi	r24, 0x80	; 128
    2142:	91 05       	cpc	r25, r1
    2144:	9c f3       	brlt	.-26     	; 0x212c <oled_clear_line+0x1a>
	{
		write_d(0x00);
	}
}
    2146:	0f 90       	pop	r0
    2148:	0f 90       	pop	r0
    214a:	0f 90       	pop	r0
    214c:	df 91       	pop	r29
    214e:	cf 91       	pop	r28
    2150:	08 95       	ret

00002152 <oled_pos>:
void oled_pos(uint8_t row, uint8_t column){
    2152:	cf 93       	push	r28
    2154:	df 93       	push	r29
    2156:	00 d0       	rcall	.+0      	; 0x2158 <oled_pos+0x6>
    2158:	cd b7       	in	r28, 0x3d	; 61
    215a:	de b7       	in	r29, 0x3e	; 62
    215c:	89 83       	std	Y+1, r24	; 0x01
    215e:	6a 83       	std	Y+2, r22	; 0x02
	oled_goto_line(row);
    2160:	89 81       	ldd	r24, Y+1	; 0x01
    2162:	0e 94 46 10 	call	0x208c	; 0x208c <oled_goto_line>
	oled_goto_column(column);
    2166:	8a 81       	ldd	r24, Y+2	; 0x02
    2168:	0e 94 5a 10 	call	0x20b4	; 0x20b4 <oled_goto_column>
}
    216c:	0f 90       	pop	r0
    216e:	0f 90       	pop	r0
    2170:	df 91       	pop	r29
    2172:	cf 91       	pop	r28
    2174:	08 95       	ret

00002176 <oled_print_char>:
void oled_print_char(char character){
    2176:	cf 93       	push	r28
    2178:	df 93       	push	r29
    217a:	00 d0       	rcall	.+0      	; 0x217c <oled_print_char+0x6>
    217c:	00 d0       	rcall	.+0      	; 0x217e <oled_print_char+0x8>
    217e:	00 d0       	rcall	.+0      	; 0x2180 <oled_print_char+0xa>
    2180:	cd b7       	in	r28, 0x3d	; 61
    2182:	de b7       	in	r29, 0x3e	; 62
    2184:	8e 83       	std	Y+6, r24	; 0x06
	
	for (int i = 0; i<FONTWIDTH;i++)
    2186:	1a 82       	std	Y+2, r1	; 0x02
    2188:	19 82       	std	Y+1, r1	; 0x01
    218a:	20 c0       	rjmp	.+64     	; 0x21cc <oled_print_char+0x56>
	{
		write_d(pgm_read_byte(&font[character - ' '][i]));
    218c:	8e 81       	ldd	r24, Y+6	; 0x06
    218e:	88 2f       	mov	r24, r24
    2190:	90 e0       	ldi	r25, 0x00	; 0
    2192:	80 97       	sbiw	r24, 0x20	; 32
    2194:	9c 01       	movw	r18, r24
    2196:	22 0f       	add	r18, r18
    2198:	33 1f       	adc	r19, r19
    219a:	22 0f       	add	r18, r18
    219c:	33 1f       	adc	r19, r19
    219e:	22 0f       	add	r18, r18
    21a0:	33 1f       	adc	r19, r19
    21a2:	89 81       	ldd	r24, Y+1	; 0x01
    21a4:	9a 81       	ldd	r25, Y+2	; 0x02
    21a6:	82 0f       	add	r24, r18
    21a8:	93 1f       	adc	r25, r19
    21aa:	80 59       	subi	r24, 0x90	; 144
    21ac:	9f 4f       	sbci	r25, 0xFF	; 255
    21ae:	9c 83       	std	Y+4, r25	; 0x04
    21b0:	8b 83       	std	Y+3, r24	; 0x03
    21b2:	8b 81       	ldd	r24, Y+3	; 0x03
    21b4:	9c 81       	ldd	r25, Y+4	; 0x04
    21b6:	fc 01       	movw	r30, r24
    21b8:	84 91       	lpm	r24, Z
    21ba:	8d 83       	std	Y+5, r24	; 0x05
    21bc:	8d 81       	ldd	r24, Y+5	; 0x05
    21be:	0e 94 00 10 	call	0x2000	; 0x2000 <write_d>
	oled_goto_line(row);
	oled_goto_column(column);
}
void oled_print_char(char character){
	
	for (int i = 0; i<FONTWIDTH;i++)
    21c2:	89 81       	ldd	r24, Y+1	; 0x01
    21c4:	9a 81       	ldd	r25, Y+2	; 0x02
    21c6:	01 96       	adiw	r24, 0x01	; 1
    21c8:	9a 83       	std	Y+2, r25	; 0x02
    21ca:	89 83       	std	Y+1, r24	; 0x01
    21cc:	89 81       	ldd	r24, Y+1	; 0x01
    21ce:	9a 81       	ldd	r25, Y+2	; 0x02
    21d0:	88 30       	cpi	r24, 0x08	; 8
    21d2:	91 05       	cpc	r25, r1
    21d4:	dc f2       	brlt	.-74     	; 0x218c <oled_print_char+0x16>
	{
		write_d(pgm_read_byte(&font[character - ' '][i]));
	}
}
    21d6:	26 96       	adiw	r28, 0x06	; 6
    21d8:	0f b6       	in	r0, 0x3f	; 63
    21da:	f8 94       	cli
    21dc:	de bf       	out	0x3e, r29	; 62
    21de:	0f be       	out	0x3f, r0	; 63
    21e0:	cd bf       	out	0x3d, r28	; 61
    21e2:	df 91       	pop	r29
    21e4:	cf 91       	pop	r28
    21e6:	08 95       	ret

000021e8 <oled_print_string>:

void oled_print_string(char* data)
{
    21e8:	cf 93       	push	r28
    21ea:	df 93       	push	r29
    21ec:	00 d0       	rcall	.+0      	; 0x21ee <oled_print_string+0x6>
    21ee:	00 d0       	rcall	.+0      	; 0x21f0 <oled_print_string+0x8>
    21f0:	cd b7       	in	r28, 0x3d	; 61
    21f2:	de b7       	in	r29, 0x3e	; 62
    21f4:	9c 83       	std	Y+4, r25	; 0x04
    21f6:	8b 83       	std	Y+3, r24	; 0x03
	int i = 0;
    21f8:	1a 82       	std	Y+2, r1	; 0x02
    21fa:	19 82       	std	Y+1, r1	; 0x01
	while(data[i] != '\0') {
    21fc:	1e c0       	rjmp	.+60     	; 0x223a <oled_print_string+0x52>
		oled_print_char(data[i]);
    21fe:	89 81       	ldd	r24, Y+1	; 0x01
    2200:	9a 81       	ldd	r25, Y+2	; 0x02
    2202:	2b 81       	ldd	r18, Y+3	; 0x03
    2204:	3c 81       	ldd	r19, Y+4	; 0x04
    2206:	82 0f       	add	r24, r18
    2208:	93 1f       	adc	r25, r19
    220a:	fc 01       	movw	r30, r24
    220c:	80 81       	ld	r24, Z
    220e:	0e 94 bb 10 	call	0x2176	; 0x2176 <oled_print_char>
		i++;
    2212:	89 81       	ldd	r24, Y+1	; 0x01
    2214:	9a 81       	ldd	r25, Y+2	; 0x02
    2216:	01 96       	adiw	r24, 0x01	; 1
    2218:	9a 83       	std	Y+2, r25	; 0x02
    221a:	89 83       	std	Y+1, r24	; 0x01
		if (i==16 || i==32)
    221c:	89 81       	ldd	r24, Y+1	; 0x01
    221e:	9a 81       	ldd	r25, Y+2	; 0x02
    2220:	80 31       	cpi	r24, 0x10	; 16
    2222:	91 05       	cpc	r25, r1
    2224:	29 f0       	breq	.+10     	; 0x2230 <oled_print_string+0x48>
    2226:	89 81       	ldd	r24, Y+1	; 0x01
    2228:	9a 81       	ldd	r25, Y+2	; 0x02
    222a:	80 32       	cpi	r24, 0x20	; 32
    222c:	91 05       	cpc	r25, r1
    222e:	29 f4       	brne	.+10     	; 0x223a <oled_print_string+0x52>
		{
			oled_goto_line(currentLine+1);
    2230:	80 91 1a 04 	lds	r24, 0x041A
    2234:	8f 5f       	subi	r24, 0xFF	; 255
    2236:	0e 94 46 10 	call	0x208c	; 0x208c <oled_goto_line>
}

void oled_print_string(char* data)
{
	int i = 0;
	while(data[i] != '\0') {
    223a:	89 81       	ldd	r24, Y+1	; 0x01
    223c:	9a 81       	ldd	r25, Y+2	; 0x02
    223e:	2b 81       	ldd	r18, Y+3	; 0x03
    2240:	3c 81       	ldd	r19, Y+4	; 0x04
    2242:	82 0f       	add	r24, r18
    2244:	93 1f       	adc	r25, r19
    2246:	fc 01       	movw	r30, r24
    2248:	80 81       	ld	r24, Z
    224a:	88 23       	and	r24, r24
    224c:	c1 f6       	brne	.-80     	; 0x21fe <oled_print_string+0x16>
		if (i==16 || i==32)
		{
			oled_goto_line(currentLine+1);
		}
	}
}
    224e:	0f 90       	pop	r0
    2250:	0f 90       	pop	r0
    2252:	0f 90       	pop	r0
    2254:	0f 90       	pop	r0
    2256:	df 91       	pop	r29
    2258:	cf 91       	pop	r28
    225a:	08 95       	ret

0000225c <oled_print_arrow>:

void oled_print_arrow(uint8_t row,uint8_t col)
{
    225c:	cf 93       	push	r28
    225e:	df 93       	push	r29
    2260:	00 d0       	rcall	.+0      	; 0x2262 <oled_print_arrow+0x6>
    2262:	cd b7       	in	r28, 0x3d	; 61
    2264:	de b7       	in	r29, 0x3e	; 62
    2266:	89 83       	std	Y+1, r24	; 0x01
    2268:	6a 83       	std	Y+2, r22	; 0x02
	oled_pos(row, col);
    226a:	6a 81       	ldd	r22, Y+2	; 0x02
    226c:	89 81       	ldd	r24, Y+1	; 0x01
    226e:	0e 94 a9 10 	call	0x2152	; 0x2152 <oled_pos>
	write_d(0b00011000);
    2272:	88 e1       	ldi	r24, 0x18	; 24
    2274:	0e 94 00 10 	call	0x2000	; 0x2000 <write_d>
	write_d(0b00011000);
    2278:	88 e1       	ldi	r24, 0x18	; 24
    227a:	0e 94 00 10 	call	0x2000	; 0x2000 <write_d>
	write_d(0b01111110);
    227e:	8e e7       	ldi	r24, 0x7E	; 126
    2280:	0e 94 00 10 	call	0x2000	; 0x2000 <write_d>
	write_d(0b00111100);
    2284:	8c e3       	ldi	r24, 0x3C	; 60
    2286:	0e 94 00 10 	call	0x2000	; 0x2000 <write_d>
	write_d(0b00011000);
    228a:	88 e1       	ldi	r24, 0x18	; 24
    228c:	0e 94 00 10 	call	0x2000	; 0x2000 <write_d>
}
    2290:	0f 90       	pop	r0
    2292:	0f 90       	pop	r0
    2294:	df 91       	pop	r29
    2296:	cf 91       	pop	r28
    2298:	08 95       	ret

0000229a <spi_init>:
#include "spi.h"
#include "setup.h"


void spi_init()
{
    229a:	cf 93       	push	r28
    229c:	df 93       	push	r29
    229e:	00 d0       	rcall	.+0      	; 0x22a0 <spi_init+0x6>
    22a0:	cd b7       	in	r28, 0x3d	; 61
    22a2:	de b7       	in	r29, 0x3e	; 62
	/* Set MOSI and SCK output, all others input */
	// PB4 = !SS, PB5 = MOSI, PB6 = MISO, PB7 = SCK
	DDRB = (1<<MOSI)|(1<<SCK)|(1<<SPI_SS);
    22a4:	87 e3       	ldi	r24, 0x37	; 55
    22a6:	90 e0       	ldi	r25, 0x00	; 0
    22a8:	20 eb       	ldi	r18, 0xB0	; 176
    22aa:	fc 01       	movw	r30, r24
    22ac:	20 83       	st	Z, r18
	 
	/* Enable SPI, Master, set clock rate fck/16 */
	SPCR = (1<<SPE)|(1<<MSTR)|(1<<SPR0);
    22ae:	8d e2       	ldi	r24, 0x2D	; 45
    22b0:	90 e0       	ldi	r25, 0x00	; 0
    22b2:	21 e5       	ldi	r18, 0x51	; 81
    22b4:	fc 01       	movw	r30, r24
    22b6:	20 83       	st	Z, r18
	// Read SPSR and SPDR to clear interrupt flag
	char c1 = SPSR;
    22b8:	8e e2       	ldi	r24, 0x2E	; 46
    22ba:	90 e0       	ldi	r25, 0x00	; 0
    22bc:	fc 01       	movw	r30, r24
    22be:	80 81       	ld	r24, Z
    22c0:	89 83       	std	Y+1, r24	; 0x01
	char c2 = SPDR;
    22c2:	8f e2       	ldi	r24, 0x2F	; 47
    22c4:	90 e0       	ldi	r25, 0x00	; 0
    22c6:	fc 01       	movw	r30, r24
    22c8:	80 81       	ld	r24, Z
    22ca:	8a 83       	std	Y+2, r24	; 0x02
}
    22cc:	0f 90       	pop	r0
    22ce:	0f 90       	pop	r0
    22d0:	df 91       	pop	r29
    22d2:	cf 91       	pop	r28
    22d4:	08 95       	ret

000022d6 <spi_send>:
void spi_send(char cData)
{
    22d6:	cf 93       	push	r28
    22d8:	df 93       	push	r29
    22da:	1f 92       	push	r1
    22dc:	cd b7       	in	r28, 0x3d	; 61
    22de:	de b7       	in	r29, 0x3e	; 62
    22e0:	89 83       	std	Y+1, r24	; 0x01
	/* Start transmission */
	SPDR = cData;
    22e2:	8f e2       	ldi	r24, 0x2F	; 47
    22e4:	90 e0       	ldi	r25, 0x00	; 0
    22e6:	29 81       	ldd	r18, Y+1	; 0x01
    22e8:	fc 01       	movw	r30, r24
    22ea:	20 83       	st	Z, r18
	/* Wait for transmission complete */
	while(!(SPSR & (1<<SPIF)));
    22ec:	00 00       	nop
    22ee:	8e e2       	ldi	r24, 0x2E	; 46
    22f0:	90 e0       	ldi	r25, 0x00	; 0
    22f2:	fc 01       	movw	r30, r24
    22f4:	80 81       	ld	r24, Z
    22f6:	88 23       	and	r24, r24
    22f8:	d4 f7       	brge	.-12     	; 0x22ee <spi_send+0x18>
}
    22fa:	0f 90       	pop	r0
    22fc:	df 91       	pop	r29
    22fe:	cf 91       	pop	r28
    2300:	08 95       	ret

00002302 <spi_read>:

char spi_read() 
{
    2302:	cf 93       	push	r28
    2304:	df 93       	push	r29
    2306:	cd b7       	in	r28, 0x3d	; 61
    2308:	de b7       	in	r29, 0x3e	; 62

	SPDR = 0x00; // send dummy data
    230a:	8f e2       	ldi	r24, 0x2F	; 47
    230c:	90 e0       	ldi	r25, 0x00	; 0
    230e:	fc 01       	movw	r30, r24
    2310:	10 82       	st	Z, r1
	while(!(SPSR & (1<<SPIF))); // Wait until data is shifted into SPDR
    2312:	00 00       	nop
    2314:	8e e2       	ldi	r24, 0x2E	; 46
    2316:	90 e0       	ldi	r25, 0x00	; 0
    2318:	fc 01       	movw	r30, r24
    231a:	80 81       	ld	r24, Z
    231c:	88 23       	and	r24, r24
    231e:	d4 f7       	brge	.-12     	; 0x2314 <spi_read+0x12>
	return SPDR;
    2320:	8f e2       	ldi	r24, 0x2F	; 47
    2322:	90 e0       	ldi	r25, 0x00	; 0
    2324:	fc 01       	movw	r30, r24
    2326:	80 81       	ld	r24, Z
}
    2328:	df 91       	pop	r29
    232a:	cf 91       	pop	r28
    232c:	08 95       	ret

0000232e <spi_enable>:

void spi_enable()
{
    232e:	cf 93       	push	r28
    2330:	df 93       	push	r29
    2332:	cd b7       	in	r28, 0x3d	; 61
    2334:	de b7       	in	r29, 0x3e	; 62
	clear_bit(PORTB,SPI_SS);
    2336:	88 e3       	ldi	r24, 0x38	; 56
    2338:	90 e0       	ldi	r25, 0x00	; 0
    233a:	28 e3       	ldi	r18, 0x38	; 56
    233c:	30 e0       	ldi	r19, 0x00	; 0
    233e:	f9 01       	movw	r30, r18
    2340:	20 81       	ld	r18, Z
    2342:	2f 7e       	andi	r18, 0xEF	; 239
    2344:	fc 01       	movw	r30, r24
    2346:	20 83       	st	Z, r18
}
    2348:	df 91       	pop	r29
    234a:	cf 91       	pop	r28
    234c:	08 95       	ret

0000234e <spi_disable>:

void spi_disable()
{
    234e:	cf 93       	push	r28
    2350:	df 93       	push	r29
    2352:	cd b7       	in	r28, 0x3d	; 61
    2354:	de b7       	in	r29, 0x3e	; 62
	set_bit(PORTB,SPI_SS);
    2356:	88 e3       	ldi	r24, 0x38	; 56
    2358:	90 e0       	ldi	r25, 0x00	; 0
    235a:	28 e3       	ldi	r18, 0x38	; 56
    235c:	30 e0       	ldi	r19, 0x00	; 0
    235e:	f9 01       	movw	r30, r18
    2360:	20 81       	ld	r18, Z
    2362:	20 61       	ori	r18, 0x10	; 16
    2364:	fc 01       	movw	r30, r24
    2366:	20 83       	st	Z, r18
    2368:	df 91       	pop	r29
    236a:	cf 91       	pop	r28
    236c:	08 95       	ret

0000236e <sram_setup>:
 #include <stdio.h>
 #include "setup.h"
 #include "USART.h"
 #include "sram.h"

int sram_setup(void) {
    236e:	cf 93       	push	r28
    2370:	df 93       	push	r29
    2372:	cd b7       	in	r28, 0x3d	; 61
    2374:	de b7       	in	r29, 0x3e	; 62
	// Enable external memory
	//set_bit(MCUCR,SRE);
	// Mask PC7-PC4
	//set_bit(SFIOR,XMM2);
	//SFIOR |= (1 << XMM2);
	return 0;
    2376:	80 e0       	ldi	r24, 0x00	; 0
    2378:	90 e0       	ldi	r25, 0x00	; 0
}
    237a:	df 91       	pop	r29
    237c:	cf 91       	pop	r28
    237e:	08 95       	ret

00002380 <SRAM_test>:

uint8_t sram_read_from_address(unsigned int address) {
	volatile char *sram_address = (char *) 0x1800;
	return sram_address[address];
}
void SRAM_test(void) { 
    2380:	cf 93       	push	r28
    2382:	df 93       	push	r29
    2384:	cd b7       	in	r28, 0x3d	; 61
    2386:	de b7       	in	r29, 0x3e	; 62
    2388:	62 97       	sbiw	r28, 0x12	; 18
    238a:	0f b6       	in	r0, 0x3f	; 63
    238c:	f8 94       	cli
    238e:	de bf       	out	0x3e, r29	; 62
    2390:	0f be       	out	0x3f, r0	; 63
    2392:	cd bf       	out	0x3d, r28	; 61
	volatile char *ext_ram = (char *) 0x1800; // Start address for the SRAM 
    2394:	80 e0       	ldi	r24, 0x00	; 0
    2396:	98 e1       	ldi	r25, 0x18	; 24
    2398:	9a 87       	std	Y+10, r25	; 0x0a
    239a:	89 87       	std	Y+9, r24	; 0x09
	uint16_t ext_ram_size = 0x800; 
    239c:	80 e0       	ldi	r24, 0x00	; 0
    239e:	98 e0       	ldi	r25, 0x08	; 8
    23a0:	9c 87       	std	Y+12, r25	; 0x0c
    23a2:	8b 87       	std	Y+11, r24	; 0x0b
	uint16_t write_errors = 0; 
    23a4:	1a 82       	std	Y+2, r1	; 0x02
    23a6:	19 82       	std	Y+1, r1	; 0x01
	uint16_t retrieval_errors = 0;
    23a8:	1c 82       	std	Y+4, r1	; 0x04
    23aa:	1b 82       	std	Y+3, r1	; 0x03
	printf("Starting SRAM test...\n");
    23ac:	8d e9       	ldi	r24, 0x9D	; 157
    23ae:	92 e0       	ldi	r25, 0x02	; 2
    23b0:	0e 94 69 17 	call	0x2ed2	; 0x2ed2 <puts>
	// rand() stores some internal state, so calling this function in a loop will 
	// yield different seeds each time (unless srand() is called before this function)
	// rand() stores some internal state, so calling this function in a loop will 
	// yield different seeds each time (unless srand() is called before this function)
	uint16_t seed = rand();
    23b4:	0e 94 ba 16 	call	0x2d74	; 0x2d74 <rand>
    23b8:	9e 87       	std	Y+14, r25	; 0x0e
    23ba:	8d 87       	std	Y+13, r24	; 0x0d
	// Write phase: Immediately check that the correct value was stored 
	srand(seed);
    23bc:	8d 85       	ldd	r24, Y+13	; 0x0d
    23be:	9e 85       	ldd	r25, Y+14	; 0x0e
    23c0:	0e 94 bf 16 	call	0x2d7e	; 0x2d7e <srand>
	for (uint16_t i = 0; i < ext_ram_size; i++) 
    23c4:	1e 82       	std	Y+6, r1	; 0x06
    23c6:	1d 82       	std	Y+5, r1	; 0x05
    23c8:	44 c0       	rjmp	.+136    	; 0x2452 <SRAM_test+0xd2>
	{ 
		uint8_t some_value = rand(); 
    23ca:	0e 94 ba 16 	call	0x2d74	; 0x2d74 <rand>
    23ce:	8f 87       	std	Y+15, r24	; 0x0f
		ext_ram[i] = some_value; 
    23d0:	29 85       	ldd	r18, Y+9	; 0x09
    23d2:	3a 85       	ldd	r19, Y+10	; 0x0a
    23d4:	8d 81       	ldd	r24, Y+5	; 0x05
    23d6:	9e 81       	ldd	r25, Y+6	; 0x06
    23d8:	82 0f       	add	r24, r18
    23da:	93 1f       	adc	r25, r19
    23dc:	2f 85       	ldd	r18, Y+15	; 0x0f
    23de:	fc 01       	movw	r30, r24
    23e0:	20 83       	st	Z, r18
		uint8_t retreived_value = ext_ram[i]; 
    23e2:	29 85       	ldd	r18, Y+9	; 0x09
    23e4:	3a 85       	ldd	r19, Y+10	; 0x0a
    23e6:	8d 81       	ldd	r24, Y+5	; 0x05
    23e8:	9e 81       	ldd	r25, Y+6	; 0x06
    23ea:	82 0f       	add	r24, r18
    23ec:	93 1f       	adc	r25, r19
    23ee:	fc 01       	movw	r30, r24
    23f0:	80 81       	ld	r24, Z
    23f2:	88 8b       	std	Y+16, r24	; 0x10
		if (retreived_value != some_value) 
    23f4:	98 89       	ldd	r25, Y+16	; 0x10
    23f6:	8f 85       	ldd	r24, Y+15	; 0x0f
    23f8:	98 17       	cp	r25, r24
    23fa:	31 f1       	breq	.+76     	; 0x2448 <SRAM_test+0xc8>
		{ 
			printf("Write phase error: ext_ram[%4d] = %02X (should be %02X)\n", i, retreived_value, some_value); 
    23fc:	8f 85       	ldd	r24, Y+15	; 0x0f
    23fe:	28 2f       	mov	r18, r24
    2400:	30 e0       	ldi	r19, 0x00	; 0
    2402:	88 89       	ldd	r24, Y+16	; 0x10
    2404:	88 2f       	mov	r24, r24
    2406:	90 e0       	ldi	r25, 0x00	; 0
    2408:	43 2f       	mov	r20, r19
    240a:	4f 93       	push	r20
    240c:	2f 93       	push	r18
    240e:	29 2f       	mov	r18, r25
    2410:	2f 93       	push	r18
    2412:	8f 93       	push	r24
    2414:	8e 81       	ldd	r24, Y+6	; 0x06
    2416:	8f 93       	push	r24
    2418:	8d 81       	ldd	r24, Y+5	; 0x05
    241a:	8f 93       	push	r24
    241c:	83 eb       	ldi	r24, 0xB3	; 179
    241e:	92 e0       	ldi	r25, 0x02	; 2
    2420:	89 2f       	mov	r24, r25
    2422:	8f 93       	push	r24
    2424:	83 eb       	ldi	r24, 0xB3	; 179
    2426:	92 e0       	ldi	r25, 0x02	; 2
    2428:	8f 93       	push	r24
    242a:	0e 94 4e 17 	call	0x2e9c	; 0x2e9c <printf>
    242e:	8d b7       	in	r24, 0x3d	; 61
    2430:	9e b7       	in	r25, 0x3e	; 62
    2432:	08 96       	adiw	r24, 0x08	; 8
    2434:	0f b6       	in	r0, 0x3f	; 63
    2436:	f8 94       	cli
    2438:	de bf       	out	0x3e, r29	; 62
    243a:	0f be       	out	0x3f, r0	; 63
    243c:	cd bf       	out	0x3d, r28	; 61
			write_errors++; 
    243e:	89 81       	ldd	r24, Y+1	; 0x01
    2440:	9a 81       	ldd	r25, Y+2	; 0x02
    2442:	01 96       	adiw	r24, 0x01	; 1
    2444:	9a 83       	std	Y+2, r25	; 0x02
    2446:	89 83       	std	Y+1, r24	; 0x01
	// rand() stores some internal state, so calling this function in a loop will 
	// yield different seeds each time (unless srand() is called before this function)
	uint16_t seed = rand();
	// Write phase: Immediately check that the correct value was stored 
	srand(seed);
	for (uint16_t i = 0; i < ext_ram_size; i++) 
    2448:	8d 81       	ldd	r24, Y+5	; 0x05
    244a:	9e 81       	ldd	r25, Y+6	; 0x06
    244c:	01 96       	adiw	r24, 0x01	; 1
    244e:	9e 83       	std	Y+6, r25	; 0x06
    2450:	8d 83       	std	Y+5, r24	; 0x05
    2452:	2d 81       	ldd	r18, Y+5	; 0x05
    2454:	3e 81       	ldd	r19, Y+6	; 0x06
    2456:	8b 85       	ldd	r24, Y+11	; 0x0b
    2458:	9c 85       	ldd	r25, Y+12	; 0x0c
    245a:	28 17       	cp	r18, r24
    245c:	39 07       	cpc	r19, r25
    245e:	08 f4       	brcc	.+2      	; 0x2462 <SRAM_test+0xe2>
    2460:	b4 cf       	rjmp	.-152    	; 0x23ca <SRAM_test+0x4a>
			printf("Write phase error: ext_ram[%4d] = %02X (should be %02X)\n", i, retreived_value, some_value); 
			write_errors++; 
		} 
	}
	// Retrieval phase: Check that no values were changed during or after the write phase 
	srand(seed); // reset the PRNG to the state it had before the write phase 
    2462:	8d 85       	ldd	r24, Y+13	; 0x0d
    2464:	9e 85       	ldd	r25, Y+14	; 0x0e
    2466:	0e 94 bf 16 	call	0x2d7e	; 0x2d7e <srand>
	for (uint16_t i = 0; i < ext_ram_size; i++) 
    246a:	18 86       	std	Y+8, r1	; 0x08
    246c:	1f 82       	std	Y+7, r1	; 0x07
    246e:	3b c0       	rjmp	.+118    	; 0x24e6 <SRAM_test+0x166>
		{ 
			uint8_t some_value = rand(); 
    2470:	0e 94 ba 16 	call	0x2d74	; 0x2d74 <rand>
    2474:	89 8b       	std	Y+17, r24	; 0x11
			uint8_t retreived_value = ext_ram[i]; 
    2476:	29 85       	ldd	r18, Y+9	; 0x09
    2478:	3a 85       	ldd	r19, Y+10	; 0x0a
    247a:	8f 81       	ldd	r24, Y+7	; 0x07
    247c:	98 85       	ldd	r25, Y+8	; 0x08
    247e:	82 0f       	add	r24, r18
    2480:	93 1f       	adc	r25, r19
    2482:	fc 01       	movw	r30, r24
    2484:	80 81       	ld	r24, Z
    2486:	8a 8b       	std	Y+18, r24	; 0x12
			if (retreived_value != some_value) 
    2488:	9a 89       	ldd	r25, Y+18	; 0x12
    248a:	89 89       	ldd	r24, Y+17	; 0x11
    248c:	98 17       	cp	r25, r24
    248e:	31 f1       	breq	.+76     	; 0x24dc <SRAM_test+0x15c>
			{ 
				printf("Retrieval phase error: ext_ram[%4d] = %02X (should be %02X)\n", i, retreived_value, some_value); 
    2490:	89 89       	ldd	r24, Y+17	; 0x11
    2492:	28 2f       	mov	r18, r24
    2494:	30 e0       	ldi	r19, 0x00	; 0
    2496:	8a 89       	ldd	r24, Y+18	; 0x12
    2498:	88 2f       	mov	r24, r24
    249a:	90 e0       	ldi	r25, 0x00	; 0
    249c:	43 2f       	mov	r20, r19
    249e:	4f 93       	push	r20
    24a0:	2f 93       	push	r18
    24a2:	29 2f       	mov	r18, r25
    24a4:	2f 93       	push	r18
    24a6:	8f 93       	push	r24
    24a8:	88 85       	ldd	r24, Y+8	; 0x08
    24aa:	8f 93       	push	r24
    24ac:	8f 81       	ldd	r24, Y+7	; 0x07
    24ae:	8f 93       	push	r24
    24b0:	8c ee       	ldi	r24, 0xEC	; 236
    24b2:	92 e0       	ldi	r25, 0x02	; 2
    24b4:	89 2f       	mov	r24, r25
    24b6:	8f 93       	push	r24
    24b8:	8c ee       	ldi	r24, 0xEC	; 236
    24ba:	92 e0       	ldi	r25, 0x02	; 2
    24bc:	8f 93       	push	r24
    24be:	0e 94 4e 17 	call	0x2e9c	; 0x2e9c <printf>
    24c2:	8d b7       	in	r24, 0x3d	; 61
    24c4:	9e b7       	in	r25, 0x3e	; 62
    24c6:	08 96       	adiw	r24, 0x08	; 8
    24c8:	0f b6       	in	r0, 0x3f	; 63
    24ca:	f8 94       	cli
    24cc:	de bf       	out	0x3e, r29	; 62
    24ce:	0f be       	out	0x3f, r0	; 63
    24d0:	cd bf       	out	0x3d, r28	; 61
				retrieval_errors++; 
    24d2:	8b 81       	ldd	r24, Y+3	; 0x03
    24d4:	9c 81       	ldd	r25, Y+4	; 0x04
    24d6:	01 96       	adiw	r24, 0x01	; 1
    24d8:	9c 83       	std	Y+4, r25	; 0x04
    24da:	8b 83       	std	Y+3, r24	; 0x03
			write_errors++; 
		} 
	}
	// Retrieval phase: Check that no values were changed during or after the write phase 
	srand(seed); // reset the PRNG to the state it had before the write phase 
	for (uint16_t i = 0; i < ext_ram_size; i++) 
    24dc:	8f 81       	ldd	r24, Y+7	; 0x07
    24de:	98 85       	ldd	r25, Y+8	; 0x08
    24e0:	01 96       	adiw	r24, 0x01	; 1
    24e2:	98 87       	std	Y+8, r25	; 0x08
    24e4:	8f 83       	std	Y+7, r24	; 0x07
    24e6:	2f 81       	ldd	r18, Y+7	; 0x07
    24e8:	38 85       	ldd	r19, Y+8	; 0x08
    24ea:	8b 85       	ldd	r24, Y+11	; 0x0b
    24ec:	9c 85       	ldd	r25, Y+12	; 0x0c
    24ee:	28 17       	cp	r18, r24
    24f0:	39 07       	cpc	r19, r25
    24f2:	08 f4       	brcc	.+2      	; 0x24f6 <SRAM_test+0x176>
    24f4:	bd cf       	rjmp	.-134    	; 0x2470 <SRAM_test+0xf0>
			{ 
				printf("Retrieval phase error: ext_ram[%4d] = %02X (should be %02X)\n", i, retreived_value, some_value); 
				retrieval_errors++; 
			} 
		} 
		printf("SRAM test completed with \n%4d errors in write phase and \n%4d errors in retrieval phase\n\n", write_errors, retrieval_errors); 
    24f6:	8c 81       	ldd	r24, Y+4	; 0x04
    24f8:	8f 93       	push	r24
    24fa:	8b 81       	ldd	r24, Y+3	; 0x03
    24fc:	8f 93       	push	r24
    24fe:	8a 81       	ldd	r24, Y+2	; 0x02
    2500:	8f 93       	push	r24
    2502:	89 81       	ldd	r24, Y+1	; 0x01
    2504:	8f 93       	push	r24
    2506:	89 e2       	ldi	r24, 0x29	; 41
    2508:	93 e0       	ldi	r25, 0x03	; 3
    250a:	89 2f       	mov	r24, r25
    250c:	8f 93       	push	r24
    250e:	89 e2       	ldi	r24, 0x29	; 41
    2510:	93 e0       	ldi	r25, 0x03	; 3
    2512:	8f 93       	push	r24
    2514:	0e 94 4e 17 	call	0x2e9c	; 0x2e9c <printf>
    2518:	0f 90       	pop	r0
    251a:	0f 90       	pop	r0
    251c:	0f 90       	pop	r0
    251e:	0f 90       	pop	r0
    2520:	0f 90       	pop	r0
    2522:	0f 90       	pop	r0
	}
    2524:	62 96       	adiw	r28, 0x12	; 18
    2526:	0f b6       	in	r0, 0x3f	; 63
    2528:	f8 94       	cli
    252a:	de bf       	out	0x3e, r29	; 62
    252c:	0f be       	out	0x3f, r0	; 63
    252e:	cd bf       	out	0x3d, r28	; 61
    2530:	df 91       	pop	r29
    2532:	cf 91       	pop	r28
    2534:	08 95       	ret

00002536 <USART_Init>:

FILE *uart;


void USART_Init(unsigned int ubrr)
{
    2536:	cf 93       	push	r28
    2538:	df 93       	push	r29
    253a:	00 d0       	rcall	.+0      	; 0x253c <USART_Init+0x6>
    253c:	cd b7       	in	r28, 0x3d	; 61
    253e:	de b7       	in	r29, 0x3e	; 62
    2540:	9a 83       	std	Y+2, r25	; 0x02
    2542:	89 83       	std	Y+1, r24	; 0x01
    
	UBRR0H =(unsigned char) (ubrr>>8); // Flytt ubrr 8 bits til høyre, lagre i register UBRR0H
    2544:	80 e4       	ldi	r24, 0x40	; 64
    2546:	90 e0       	ldi	r25, 0x00	; 0
    2548:	29 81       	ldd	r18, Y+1	; 0x01
    254a:	3a 81       	ldd	r19, Y+2	; 0x02
    254c:	23 2f       	mov	r18, r19
    254e:	33 27       	eor	r19, r19
    2550:	fc 01       	movw	r30, r24
    2552:	20 83       	st	Z, r18
	UBRR0L =(unsigned char) (ubrr); // Lagre første 8 bits i UBRR0L
    2554:	89 e2       	ldi	r24, 0x29	; 41
    2556:	90 e0       	ldi	r25, 0x00	; 0
    2558:	29 81       	ldd	r18, Y+1	; 0x01
    255a:	fc 01       	movw	r30, r24
    255c:	20 83       	st	Z, r18
	// Enable mottaker og sender (sett bitt RXEN0 og TXEN0 =1)
	UCSR0B = (1<<RXEN0)|(1<<TXEN0);
    255e:	8a e2       	ldi	r24, 0x2A	; 42
    2560:	90 e0       	ldi	r25, 0x00	; 0
    2562:	28 e1       	ldi	r18, 0x18	; 24
    2564:	fc 01       	movw	r30, r24
    2566:	20 83       	st	Z, r18
    // 
	UCSR0C = (1<<URSEL0)|(1<<USBS0)|(3<<UCSZ00);
    2568:	80 e4       	ldi	r24, 0x40	; 64
    256a:	90 e0       	ldi	r25, 0x00	; 0
    256c:	2e e8       	ldi	r18, 0x8E	; 142
    256e:	fc 01       	movw	r30, r24
    2570:	20 83       	st	Z, r18
    
	//Breakpoint
    uart = fdevopen(&USART_Transmit,&USART_Recieve);
    2572:	69 ee       	ldi	r22, 0xE9	; 233
    2574:	72 e1       	ldi	r23, 0x12	; 18
    2576:	88 ec       	ldi	r24, 0xC8	; 200
    2578:	92 e1       	ldi	r25, 0x12	; 18
    257a:	0e 94 03 17 	call	0x2e06	; 0x2e06 <fdevopen>
    257e:	90 93 1d 04 	sts	0x041D, r25
    2582:	80 93 1c 04 	sts	0x041C, r24
}
    2586:	0f 90       	pop	r0
    2588:	0f 90       	pop	r0
    258a:	df 91       	pop	r29
    258c:	cf 91       	pop	r28
    258e:	08 95       	ret

00002590 <USART_Transmit>:

int USART_Transmit(char data, struct __file* dummy)
{
    2590:	cf 93       	push	r28
    2592:	df 93       	push	r29
    2594:	00 d0       	rcall	.+0      	; 0x2596 <USART_Transmit+0x6>
    2596:	1f 92       	push	r1
    2598:	cd b7       	in	r28, 0x3d	; 61
    259a:	de b7       	in	r29, 0x3e	; 62
    259c:	89 83       	std	Y+1, r24	; 0x01
    259e:	7b 83       	std	Y+3, r23	; 0x03
    25a0:	6a 83       	std	Y+2, r22	; 0x02
    //if(data == '\n') USART_Transmit('\r', dummy);
	// Sjekk om bit UDRE0 i register UCSR0A er satt
	// UDRE0 = usart data register empty
	while(!(UCSR0A & (1<<UDRE0)))
    25a2:	00 00       	nop
    25a4:	8b e2       	ldi	r24, 0x2B	; 43
    25a6:	90 e0       	ldi	r25, 0x00	; 0
    25a8:	fc 01       	movw	r30, r24
    25aa:	80 81       	ld	r24, Z
    25ac:	88 2f       	mov	r24, r24
    25ae:	90 e0       	ldi	r25, 0x00	; 0
    25b0:	80 72       	andi	r24, 0x20	; 32
    25b2:	99 27       	eor	r25, r25
    25b4:	00 97       	sbiw	r24, 0x00	; 0
    25b6:	b1 f3       	breq	.-20     	; 0x25a4 <USART_Transmit+0x14>
		;
	UDR0=data;
    25b8:	8c e2       	ldi	r24, 0x2C	; 44
    25ba:	90 e0       	ldi	r25, 0x00	; 0
    25bc:	29 81       	ldd	r18, Y+1	; 0x01
    25be:	fc 01       	movw	r30, r24
    25c0:	20 83       	st	Z, r18
    return 0;
    25c2:	80 e0       	ldi	r24, 0x00	; 0
    25c4:	90 e0       	ldi	r25, 0x00	; 0
}
    25c6:	0f 90       	pop	r0
    25c8:	0f 90       	pop	r0
    25ca:	0f 90       	pop	r0
    25cc:	df 91       	pop	r29
    25ce:	cf 91       	pop	r28
    25d0:	08 95       	ret

000025d2 <USART_Recieve>:

int USART_Recieve(struct __file* dummy)
{
    25d2:	cf 93       	push	r28
    25d4:	df 93       	push	r29
    25d6:	00 d0       	rcall	.+0      	; 0x25d8 <USART_Recieve+0x6>
    25d8:	cd b7       	in	r28, 0x3d	; 61
    25da:	de b7       	in	r29, 0x3e	; 62
    25dc:	9a 83       	std	Y+2, r25	; 0x02
    25de:	89 83       	std	Y+1, r24	; 0x01
	// Sjekk om bit RXC0 i register UCSR0A
	while (!(UCSR0A & (1<<RXC0)))
    25e0:	00 00       	nop
    25e2:	8b e2       	ldi	r24, 0x2B	; 43
    25e4:	90 e0       	ldi	r25, 0x00	; 0
    25e6:	fc 01       	movw	r30, r24
    25e8:	80 81       	ld	r24, Z
    25ea:	88 23       	and	r24, r24
    25ec:	d4 f7       	brge	.-12     	; 0x25e2 <USART_Recieve+0x10>
		;
	return UDR0;
    25ee:	8c e2       	ldi	r24, 0x2C	; 44
    25f0:	90 e0       	ldi	r25, 0x00	; 0
    25f2:	fc 01       	movw	r30, r24
    25f4:	80 81       	ld	r24, Z
    25f6:	88 2f       	mov	r24, r24
    25f8:	90 e0       	ldi	r25, 0x00	; 0
}
    25fa:	0f 90       	pop	r0
    25fc:	0f 90       	pop	r0
    25fe:	df 91       	pop	r29
    2600:	cf 91       	pop	r28
    2602:	08 95       	ret

00002604 <__subsf3>:
    2604:	50 58       	subi	r21, 0x80	; 128

00002606 <__addsf3>:
    2606:	bb 27       	eor	r27, r27
    2608:	aa 27       	eor	r26, r26
    260a:	0e d0       	rcall	.+28     	; 0x2628 <__addsf3x>
    260c:	75 c1       	rjmp	.+746    	; 0x28f8 <__fp_round>
    260e:	66 d1       	rcall	.+716    	; 0x28dc <__fp_pscA>
    2610:	30 f0       	brcs	.+12     	; 0x261e <__addsf3+0x18>
    2612:	6b d1       	rcall	.+726    	; 0x28ea <__fp_pscB>
    2614:	20 f0       	brcs	.+8      	; 0x261e <__addsf3+0x18>
    2616:	31 f4       	brne	.+12     	; 0x2624 <__addsf3+0x1e>
    2618:	9f 3f       	cpi	r25, 0xFF	; 255
    261a:	11 f4       	brne	.+4      	; 0x2620 <__addsf3+0x1a>
    261c:	1e f4       	brtc	.+6      	; 0x2624 <__addsf3+0x1e>
    261e:	5b c1       	rjmp	.+694    	; 0x28d6 <__fp_nan>
    2620:	0e f4       	brtc	.+2      	; 0x2624 <__addsf3+0x1e>
    2622:	e0 95       	com	r30
    2624:	e7 fb       	bst	r30, 7
    2626:	51 c1       	rjmp	.+674    	; 0x28ca <__fp_inf>

00002628 <__addsf3x>:
    2628:	e9 2f       	mov	r30, r25
    262a:	77 d1       	rcall	.+750    	; 0x291a <__fp_split3>
    262c:	80 f3       	brcs	.-32     	; 0x260e <__addsf3+0x8>
    262e:	ba 17       	cp	r27, r26
    2630:	62 07       	cpc	r22, r18
    2632:	73 07       	cpc	r23, r19
    2634:	84 07       	cpc	r24, r20
    2636:	95 07       	cpc	r25, r21
    2638:	18 f0       	brcs	.+6      	; 0x2640 <__addsf3x+0x18>
    263a:	71 f4       	brne	.+28     	; 0x2658 <__addsf3x+0x30>
    263c:	9e f5       	brtc	.+102    	; 0x26a4 <__addsf3x+0x7c>
    263e:	8f c1       	rjmp	.+798    	; 0x295e <__fp_zero>
    2640:	0e f4       	brtc	.+2      	; 0x2644 <__addsf3x+0x1c>
    2642:	e0 95       	com	r30
    2644:	0b 2e       	mov	r0, r27
    2646:	ba 2f       	mov	r27, r26
    2648:	a0 2d       	mov	r26, r0
    264a:	0b 01       	movw	r0, r22
    264c:	b9 01       	movw	r22, r18
    264e:	90 01       	movw	r18, r0
    2650:	0c 01       	movw	r0, r24
    2652:	ca 01       	movw	r24, r20
    2654:	a0 01       	movw	r20, r0
    2656:	11 24       	eor	r1, r1
    2658:	ff 27       	eor	r31, r31
    265a:	59 1b       	sub	r21, r25
    265c:	99 f0       	breq	.+38     	; 0x2684 <__addsf3x+0x5c>
    265e:	59 3f       	cpi	r21, 0xF9	; 249
    2660:	50 f4       	brcc	.+20     	; 0x2676 <__addsf3x+0x4e>
    2662:	50 3e       	cpi	r21, 0xE0	; 224
    2664:	68 f1       	brcs	.+90     	; 0x26c0 <__addsf3x+0x98>
    2666:	1a 16       	cp	r1, r26
    2668:	f0 40       	sbci	r31, 0x00	; 0
    266a:	a2 2f       	mov	r26, r18
    266c:	23 2f       	mov	r18, r19
    266e:	34 2f       	mov	r19, r20
    2670:	44 27       	eor	r20, r20
    2672:	58 5f       	subi	r21, 0xF8	; 248
    2674:	f3 cf       	rjmp	.-26     	; 0x265c <__addsf3x+0x34>
    2676:	46 95       	lsr	r20
    2678:	37 95       	ror	r19
    267a:	27 95       	ror	r18
    267c:	a7 95       	ror	r26
    267e:	f0 40       	sbci	r31, 0x00	; 0
    2680:	53 95       	inc	r21
    2682:	c9 f7       	brne	.-14     	; 0x2676 <__addsf3x+0x4e>
    2684:	7e f4       	brtc	.+30     	; 0x26a4 <__addsf3x+0x7c>
    2686:	1f 16       	cp	r1, r31
    2688:	ba 0b       	sbc	r27, r26
    268a:	62 0b       	sbc	r22, r18
    268c:	73 0b       	sbc	r23, r19
    268e:	84 0b       	sbc	r24, r20
    2690:	ba f0       	brmi	.+46     	; 0x26c0 <__addsf3x+0x98>
    2692:	91 50       	subi	r25, 0x01	; 1
    2694:	a1 f0       	breq	.+40     	; 0x26be <__addsf3x+0x96>
    2696:	ff 0f       	add	r31, r31
    2698:	bb 1f       	adc	r27, r27
    269a:	66 1f       	adc	r22, r22
    269c:	77 1f       	adc	r23, r23
    269e:	88 1f       	adc	r24, r24
    26a0:	c2 f7       	brpl	.-16     	; 0x2692 <__addsf3x+0x6a>
    26a2:	0e c0       	rjmp	.+28     	; 0x26c0 <__addsf3x+0x98>
    26a4:	ba 0f       	add	r27, r26
    26a6:	62 1f       	adc	r22, r18
    26a8:	73 1f       	adc	r23, r19
    26aa:	84 1f       	adc	r24, r20
    26ac:	48 f4       	brcc	.+18     	; 0x26c0 <__addsf3x+0x98>
    26ae:	87 95       	ror	r24
    26b0:	77 95       	ror	r23
    26b2:	67 95       	ror	r22
    26b4:	b7 95       	ror	r27
    26b6:	f7 95       	ror	r31
    26b8:	9e 3f       	cpi	r25, 0xFE	; 254
    26ba:	08 f0       	brcs	.+2      	; 0x26be <__addsf3x+0x96>
    26bc:	b3 cf       	rjmp	.-154    	; 0x2624 <__addsf3+0x1e>
    26be:	93 95       	inc	r25
    26c0:	88 0f       	add	r24, r24
    26c2:	08 f0       	brcs	.+2      	; 0x26c6 <__addsf3x+0x9e>
    26c4:	99 27       	eor	r25, r25
    26c6:	ee 0f       	add	r30, r30
    26c8:	97 95       	ror	r25
    26ca:	87 95       	ror	r24
    26cc:	08 95       	ret

000026ce <__cmpsf2>:
    26ce:	d9 d0       	rcall	.+434    	; 0x2882 <__fp_cmp>
    26d0:	08 f4       	brcc	.+2      	; 0x26d4 <__cmpsf2+0x6>
    26d2:	81 e0       	ldi	r24, 0x01	; 1
    26d4:	08 95       	ret

000026d6 <__divsf3>:
    26d6:	0c d0       	rcall	.+24     	; 0x26f0 <__divsf3x>
    26d8:	0f c1       	rjmp	.+542    	; 0x28f8 <__fp_round>
    26da:	07 d1       	rcall	.+526    	; 0x28ea <__fp_pscB>
    26dc:	40 f0       	brcs	.+16     	; 0x26ee <__divsf3+0x18>
    26de:	fe d0       	rcall	.+508    	; 0x28dc <__fp_pscA>
    26e0:	30 f0       	brcs	.+12     	; 0x26ee <__divsf3+0x18>
    26e2:	21 f4       	brne	.+8      	; 0x26ec <__divsf3+0x16>
    26e4:	5f 3f       	cpi	r21, 0xFF	; 255
    26e6:	19 f0       	breq	.+6      	; 0x26ee <__divsf3+0x18>
    26e8:	f0 c0       	rjmp	.+480    	; 0x28ca <__fp_inf>
    26ea:	51 11       	cpse	r21, r1
    26ec:	39 c1       	rjmp	.+626    	; 0x2960 <__fp_szero>
    26ee:	f3 c0       	rjmp	.+486    	; 0x28d6 <__fp_nan>

000026f0 <__divsf3x>:
    26f0:	14 d1       	rcall	.+552    	; 0x291a <__fp_split3>
    26f2:	98 f3       	brcs	.-26     	; 0x26da <__divsf3+0x4>

000026f4 <__divsf3_pse>:
    26f4:	99 23       	and	r25, r25
    26f6:	c9 f3       	breq	.-14     	; 0x26ea <__divsf3+0x14>
    26f8:	55 23       	and	r21, r21
    26fa:	b1 f3       	breq	.-20     	; 0x26e8 <__divsf3+0x12>
    26fc:	95 1b       	sub	r25, r21
    26fe:	55 0b       	sbc	r21, r21
    2700:	bb 27       	eor	r27, r27
    2702:	aa 27       	eor	r26, r26
    2704:	62 17       	cp	r22, r18
    2706:	73 07       	cpc	r23, r19
    2708:	84 07       	cpc	r24, r20
    270a:	38 f0       	brcs	.+14     	; 0x271a <__divsf3_pse+0x26>
    270c:	9f 5f       	subi	r25, 0xFF	; 255
    270e:	5f 4f       	sbci	r21, 0xFF	; 255
    2710:	22 0f       	add	r18, r18
    2712:	33 1f       	adc	r19, r19
    2714:	44 1f       	adc	r20, r20
    2716:	aa 1f       	adc	r26, r26
    2718:	a9 f3       	breq	.-22     	; 0x2704 <__divsf3_pse+0x10>
    271a:	33 d0       	rcall	.+102    	; 0x2782 <__divsf3_pse+0x8e>
    271c:	0e 2e       	mov	r0, r30
    271e:	3a f0       	brmi	.+14     	; 0x272e <__divsf3_pse+0x3a>
    2720:	e0 e8       	ldi	r30, 0x80	; 128
    2722:	30 d0       	rcall	.+96     	; 0x2784 <__divsf3_pse+0x90>
    2724:	91 50       	subi	r25, 0x01	; 1
    2726:	50 40       	sbci	r21, 0x00	; 0
    2728:	e6 95       	lsr	r30
    272a:	00 1c       	adc	r0, r0
    272c:	ca f7       	brpl	.-14     	; 0x2720 <__divsf3_pse+0x2c>
    272e:	29 d0       	rcall	.+82     	; 0x2782 <__divsf3_pse+0x8e>
    2730:	fe 2f       	mov	r31, r30
    2732:	27 d0       	rcall	.+78     	; 0x2782 <__divsf3_pse+0x8e>
    2734:	66 0f       	add	r22, r22
    2736:	77 1f       	adc	r23, r23
    2738:	88 1f       	adc	r24, r24
    273a:	bb 1f       	adc	r27, r27
    273c:	26 17       	cp	r18, r22
    273e:	37 07       	cpc	r19, r23
    2740:	48 07       	cpc	r20, r24
    2742:	ab 07       	cpc	r26, r27
    2744:	b0 e8       	ldi	r27, 0x80	; 128
    2746:	09 f0       	breq	.+2      	; 0x274a <__divsf3_pse+0x56>
    2748:	bb 0b       	sbc	r27, r27
    274a:	80 2d       	mov	r24, r0
    274c:	bf 01       	movw	r22, r30
    274e:	ff 27       	eor	r31, r31
    2750:	93 58       	subi	r25, 0x83	; 131
    2752:	5f 4f       	sbci	r21, 0xFF	; 255
    2754:	2a f0       	brmi	.+10     	; 0x2760 <__divsf3_pse+0x6c>
    2756:	9e 3f       	cpi	r25, 0xFE	; 254
    2758:	51 05       	cpc	r21, r1
    275a:	68 f0       	brcs	.+26     	; 0x2776 <__divsf3_pse+0x82>
    275c:	b6 c0       	rjmp	.+364    	; 0x28ca <__fp_inf>
    275e:	00 c1       	rjmp	.+512    	; 0x2960 <__fp_szero>
    2760:	5f 3f       	cpi	r21, 0xFF	; 255
    2762:	ec f3       	brlt	.-6      	; 0x275e <__divsf3_pse+0x6a>
    2764:	98 3e       	cpi	r25, 0xE8	; 232
    2766:	dc f3       	brlt	.-10     	; 0x275e <__divsf3_pse+0x6a>
    2768:	86 95       	lsr	r24
    276a:	77 95       	ror	r23
    276c:	67 95       	ror	r22
    276e:	b7 95       	ror	r27
    2770:	f7 95       	ror	r31
    2772:	9f 5f       	subi	r25, 0xFF	; 255
    2774:	c9 f7       	brne	.-14     	; 0x2768 <__divsf3_pse+0x74>
    2776:	88 0f       	add	r24, r24
    2778:	91 1d       	adc	r25, r1
    277a:	96 95       	lsr	r25
    277c:	87 95       	ror	r24
    277e:	97 f9       	bld	r25, 7
    2780:	08 95       	ret
    2782:	e1 e0       	ldi	r30, 0x01	; 1
    2784:	66 0f       	add	r22, r22
    2786:	77 1f       	adc	r23, r23
    2788:	88 1f       	adc	r24, r24
    278a:	bb 1f       	adc	r27, r27
    278c:	62 17       	cp	r22, r18
    278e:	73 07       	cpc	r23, r19
    2790:	84 07       	cpc	r24, r20
    2792:	ba 07       	cpc	r27, r26
    2794:	20 f0       	brcs	.+8      	; 0x279e <__divsf3_pse+0xaa>
    2796:	62 1b       	sub	r22, r18
    2798:	73 0b       	sbc	r23, r19
    279a:	84 0b       	sbc	r24, r20
    279c:	ba 0b       	sbc	r27, r26
    279e:	ee 1f       	adc	r30, r30
    27a0:	88 f7       	brcc	.-30     	; 0x2784 <__divsf3_pse+0x90>
    27a2:	e0 95       	com	r30
    27a4:	08 95       	ret

000027a6 <__fixsfsi>:
    27a6:	04 d0       	rcall	.+8      	; 0x27b0 <__fixunssfsi>
    27a8:	68 94       	set
    27aa:	b1 11       	cpse	r27, r1
    27ac:	d9 c0       	rjmp	.+434    	; 0x2960 <__fp_szero>
    27ae:	08 95       	ret

000027b0 <__fixunssfsi>:
    27b0:	bc d0       	rcall	.+376    	; 0x292a <__fp_splitA>
    27b2:	88 f0       	brcs	.+34     	; 0x27d6 <__fixunssfsi+0x26>
    27b4:	9f 57       	subi	r25, 0x7F	; 127
    27b6:	90 f0       	brcs	.+36     	; 0x27dc <__fixunssfsi+0x2c>
    27b8:	b9 2f       	mov	r27, r25
    27ba:	99 27       	eor	r25, r25
    27bc:	b7 51       	subi	r27, 0x17	; 23
    27be:	a0 f0       	brcs	.+40     	; 0x27e8 <__fixunssfsi+0x38>
    27c0:	d1 f0       	breq	.+52     	; 0x27f6 <__fixunssfsi+0x46>
    27c2:	66 0f       	add	r22, r22
    27c4:	77 1f       	adc	r23, r23
    27c6:	88 1f       	adc	r24, r24
    27c8:	99 1f       	adc	r25, r25
    27ca:	1a f0       	brmi	.+6      	; 0x27d2 <__fixunssfsi+0x22>
    27cc:	ba 95       	dec	r27
    27ce:	c9 f7       	brne	.-14     	; 0x27c2 <__fixunssfsi+0x12>
    27d0:	12 c0       	rjmp	.+36     	; 0x27f6 <__fixunssfsi+0x46>
    27d2:	b1 30       	cpi	r27, 0x01	; 1
    27d4:	81 f0       	breq	.+32     	; 0x27f6 <__fixunssfsi+0x46>
    27d6:	c3 d0       	rcall	.+390    	; 0x295e <__fp_zero>
    27d8:	b1 e0       	ldi	r27, 0x01	; 1
    27da:	08 95       	ret
    27dc:	c0 c0       	rjmp	.+384    	; 0x295e <__fp_zero>
    27de:	67 2f       	mov	r22, r23
    27e0:	78 2f       	mov	r23, r24
    27e2:	88 27       	eor	r24, r24
    27e4:	b8 5f       	subi	r27, 0xF8	; 248
    27e6:	39 f0       	breq	.+14     	; 0x27f6 <__fixunssfsi+0x46>
    27e8:	b9 3f       	cpi	r27, 0xF9	; 249
    27ea:	cc f3       	brlt	.-14     	; 0x27de <__fixunssfsi+0x2e>
    27ec:	86 95       	lsr	r24
    27ee:	77 95       	ror	r23
    27f0:	67 95       	ror	r22
    27f2:	b3 95       	inc	r27
    27f4:	d9 f7       	brne	.-10     	; 0x27ec <__fixunssfsi+0x3c>
    27f6:	3e f4       	brtc	.+14     	; 0x2806 <__fixunssfsi+0x56>
    27f8:	90 95       	com	r25
    27fa:	80 95       	com	r24
    27fc:	70 95       	com	r23
    27fe:	61 95       	neg	r22
    2800:	7f 4f       	sbci	r23, 0xFF	; 255
    2802:	8f 4f       	sbci	r24, 0xFF	; 255
    2804:	9f 4f       	sbci	r25, 0xFF	; 255
    2806:	08 95       	ret

00002808 <__floatunsisf>:
    2808:	e8 94       	clt
    280a:	09 c0       	rjmp	.+18     	; 0x281e <__floatsisf+0x12>

0000280c <__floatsisf>:
    280c:	97 fb       	bst	r25, 7
    280e:	3e f4       	brtc	.+14     	; 0x281e <__floatsisf+0x12>
    2810:	90 95       	com	r25
    2812:	80 95       	com	r24
    2814:	70 95       	com	r23
    2816:	61 95       	neg	r22
    2818:	7f 4f       	sbci	r23, 0xFF	; 255
    281a:	8f 4f       	sbci	r24, 0xFF	; 255
    281c:	9f 4f       	sbci	r25, 0xFF	; 255
    281e:	99 23       	and	r25, r25
    2820:	a9 f0       	breq	.+42     	; 0x284c <__floatsisf+0x40>
    2822:	f9 2f       	mov	r31, r25
    2824:	96 e9       	ldi	r25, 0x96	; 150
    2826:	bb 27       	eor	r27, r27
    2828:	93 95       	inc	r25
    282a:	f6 95       	lsr	r31
    282c:	87 95       	ror	r24
    282e:	77 95       	ror	r23
    2830:	67 95       	ror	r22
    2832:	b7 95       	ror	r27
    2834:	f1 11       	cpse	r31, r1
    2836:	f8 cf       	rjmp	.-16     	; 0x2828 <__floatsisf+0x1c>
    2838:	fa f4       	brpl	.+62     	; 0x2878 <__floatsisf+0x6c>
    283a:	bb 0f       	add	r27, r27
    283c:	11 f4       	brne	.+4      	; 0x2842 <__floatsisf+0x36>
    283e:	60 ff       	sbrs	r22, 0
    2840:	1b c0       	rjmp	.+54     	; 0x2878 <__floatsisf+0x6c>
    2842:	6f 5f       	subi	r22, 0xFF	; 255
    2844:	7f 4f       	sbci	r23, 0xFF	; 255
    2846:	8f 4f       	sbci	r24, 0xFF	; 255
    2848:	9f 4f       	sbci	r25, 0xFF	; 255
    284a:	16 c0       	rjmp	.+44     	; 0x2878 <__floatsisf+0x6c>
    284c:	88 23       	and	r24, r24
    284e:	11 f0       	breq	.+4      	; 0x2854 <__floatsisf+0x48>
    2850:	96 e9       	ldi	r25, 0x96	; 150
    2852:	11 c0       	rjmp	.+34     	; 0x2876 <__floatsisf+0x6a>
    2854:	77 23       	and	r23, r23
    2856:	21 f0       	breq	.+8      	; 0x2860 <__floatsisf+0x54>
    2858:	9e e8       	ldi	r25, 0x8E	; 142
    285a:	87 2f       	mov	r24, r23
    285c:	76 2f       	mov	r23, r22
    285e:	05 c0       	rjmp	.+10     	; 0x286a <__floatsisf+0x5e>
    2860:	66 23       	and	r22, r22
    2862:	71 f0       	breq	.+28     	; 0x2880 <__floatsisf+0x74>
    2864:	96 e8       	ldi	r25, 0x86	; 134
    2866:	86 2f       	mov	r24, r22
    2868:	70 e0       	ldi	r23, 0x00	; 0
    286a:	60 e0       	ldi	r22, 0x00	; 0
    286c:	2a f0       	brmi	.+10     	; 0x2878 <__floatsisf+0x6c>
    286e:	9a 95       	dec	r25
    2870:	66 0f       	add	r22, r22
    2872:	77 1f       	adc	r23, r23
    2874:	88 1f       	adc	r24, r24
    2876:	da f7       	brpl	.-10     	; 0x286e <__floatsisf+0x62>
    2878:	88 0f       	add	r24, r24
    287a:	96 95       	lsr	r25
    287c:	87 95       	ror	r24
    287e:	97 f9       	bld	r25, 7
    2880:	08 95       	ret

00002882 <__fp_cmp>:
    2882:	99 0f       	add	r25, r25
    2884:	00 08       	sbc	r0, r0
    2886:	55 0f       	add	r21, r21
    2888:	aa 0b       	sbc	r26, r26
    288a:	e0 e8       	ldi	r30, 0x80	; 128
    288c:	fe ef       	ldi	r31, 0xFE	; 254
    288e:	16 16       	cp	r1, r22
    2890:	17 06       	cpc	r1, r23
    2892:	e8 07       	cpc	r30, r24
    2894:	f9 07       	cpc	r31, r25
    2896:	c0 f0       	brcs	.+48     	; 0x28c8 <__fp_cmp+0x46>
    2898:	12 16       	cp	r1, r18
    289a:	13 06       	cpc	r1, r19
    289c:	e4 07       	cpc	r30, r20
    289e:	f5 07       	cpc	r31, r21
    28a0:	98 f0       	brcs	.+38     	; 0x28c8 <__fp_cmp+0x46>
    28a2:	62 1b       	sub	r22, r18
    28a4:	73 0b       	sbc	r23, r19
    28a6:	84 0b       	sbc	r24, r20
    28a8:	95 0b       	sbc	r25, r21
    28aa:	39 f4       	brne	.+14     	; 0x28ba <__fp_cmp+0x38>
    28ac:	0a 26       	eor	r0, r26
    28ae:	61 f0       	breq	.+24     	; 0x28c8 <__fp_cmp+0x46>
    28b0:	23 2b       	or	r18, r19
    28b2:	24 2b       	or	r18, r20
    28b4:	25 2b       	or	r18, r21
    28b6:	21 f4       	brne	.+8      	; 0x28c0 <__fp_cmp+0x3e>
    28b8:	08 95       	ret
    28ba:	0a 26       	eor	r0, r26
    28bc:	09 f4       	brne	.+2      	; 0x28c0 <__fp_cmp+0x3e>
    28be:	a1 40       	sbci	r26, 0x01	; 1
    28c0:	a6 95       	lsr	r26
    28c2:	8f ef       	ldi	r24, 0xFF	; 255
    28c4:	81 1d       	adc	r24, r1
    28c6:	81 1d       	adc	r24, r1
    28c8:	08 95       	ret

000028ca <__fp_inf>:
    28ca:	97 f9       	bld	r25, 7
    28cc:	9f 67       	ori	r25, 0x7F	; 127
    28ce:	80 e8       	ldi	r24, 0x80	; 128
    28d0:	70 e0       	ldi	r23, 0x00	; 0
    28d2:	60 e0       	ldi	r22, 0x00	; 0
    28d4:	08 95       	ret

000028d6 <__fp_nan>:
    28d6:	9f ef       	ldi	r25, 0xFF	; 255
    28d8:	80 ec       	ldi	r24, 0xC0	; 192
    28da:	08 95       	ret

000028dc <__fp_pscA>:
    28dc:	00 24       	eor	r0, r0
    28de:	0a 94       	dec	r0
    28e0:	16 16       	cp	r1, r22
    28e2:	17 06       	cpc	r1, r23
    28e4:	18 06       	cpc	r1, r24
    28e6:	09 06       	cpc	r0, r25
    28e8:	08 95       	ret

000028ea <__fp_pscB>:
    28ea:	00 24       	eor	r0, r0
    28ec:	0a 94       	dec	r0
    28ee:	12 16       	cp	r1, r18
    28f0:	13 06       	cpc	r1, r19
    28f2:	14 06       	cpc	r1, r20
    28f4:	05 06       	cpc	r0, r21
    28f6:	08 95       	ret

000028f8 <__fp_round>:
    28f8:	09 2e       	mov	r0, r25
    28fa:	03 94       	inc	r0
    28fc:	00 0c       	add	r0, r0
    28fe:	11 f4       	brne	.+4      	; 0x2904 <__fp_round+0xc>
    2900:	88 23       	and	r24, r24
    2902:	52 f0       	brmi	.+20     	; 0x2918 <__fp_round+0x20>
    2904:	bb 0f       	add	r27, r27
    2906:	40 f4       	brcc	.+16     	; 0x2918 <__fp_round+0x20>
    2908:	bf 2b       	or	r27, r31
    290a:	11 f4       	brne	.+4      	; 0x2910 <__fp_round+0x18>
    290c:	60 ff       	sbrs	r22, 0
    290e:	04 c0       	rjmp	.+8      	; 0x2918 <__fp_round+0x20>
    2910:	6f 5f       	subi	r22, 0xFF	; 255
    2912:	7f 4f       	sbci	r23, 0xFF	; 255
    2914:	8f 4f       	sbci	r24, 0xFF	; 255
    2916:	9f 4f       	sbci	r25, 0xFF	; 255
    2918:	08 95       	ret

0000291a <__fp_split3>:
    291a:	57 fd       	sbrc	r21, 7
    291c:	90 58       	subi	r25, 0x80	; 128
    291e:	44 0f       	add	r20, r20
    2920:	55 1f       	adc	r21, r21
    2922:	59 f0       	breq	.+22     	; 0x293a <__fp_splitA+0x10>
    2924:	5f 3f       	cpi	r21, 0xFF	; 255
    2926:	71 f0       	breq	.+28     	; 0x2944 <__fp_splitA+0x1a>
    2928:	47 95       	ror	r20

0000292a <__fp_splitA>:
    292a:	88 0f       	add	r24, r24
    292c:	97 fb       	bst	r25, 7
    292e:	99 1f       	adc	r25, r25
    2930:	61 f0       	breq	.+24     	; 0x294a <__fp_splitA+0x20>
    2932:	9f 3f       	cpi	r25, 0xFF	; 255
    2934:	79 f0       	breq	.+30     	; 0x2954 <__fp_splitA+0x2a>
    2936:	87 95       	ror	r24
    2938:	08 95       	ret
    293a:	12 16       	cp	r1, r18
    293c:	13 06       	cpc	r1, r19
    293e:	14 06       	cpc	r1, r20
    2940:	55 1f       	adc	r21, r21
    2942:	f2 cf       	rjmp	.-28     	; 0x2928 <__fp_split3+0xe>
    2944:	46 95       	lsr	r20
    2946:	f1 df       	rcall	.-30     	; 0x292a <__fp_splitA>
    2948:	08 c0       	rjmp	.+16     	; 0x295a <__fp_splitA+0x30>
    294a:	16 16       	cp	r1, r22
    294c:	17 06       	cpc	r1, r23
    294e:	18 06       	cpc	r1, r24
    2950:	99 1f       	adc	r25, r25
    2952:	f1 cf       	rjmp	.-30     	; 0x2936 <__fp_splitA+0xc>
    2954:	86 95       	lsr	r24
    2956:	71 05       	cpc	r23, r1
    2958:	61 05       	cpc	r22, r1
    295a:	08 94       	sec
    295c:	08 95       	ret

0000295e <__fp_zero>:
    295e:	e8 94       	clt

00002960 <__fp_szero>:
    2960:	bb 27       	eor	r27, r27
    2962:	66 27       	eor	r22, r22
    2964:	77 27       	eor	r23, r23
    2966:	cb 01       	movw	r24, r22
    2968:	97 f9       	bld	r25, 7
    296a:	08 95       	ret

0000296c <__gesf2>:
    296c:	8a df       	rcall	.-236    	; 0x2882 <__fp_cmp>
    296e:	08 f4       	brcc	.+2      	; 0x2972 <__gesf2+0x6>
    2970:	8f ef       	ldi	r24, 0xFF	; 255
    2972:	08 95       	ret

00002974 <__mulsf3>:
    2974:	0b d0       	rcall	.+22     	; 0x298c <__mulsf3x>
    2976:	c0 cf       	rjmp	.-128    	; 0x28f8 <__fp_round>
    2978:	b1 df       	rcall	.-158    	; 0x28dc <__fp_pscA>
    297a:	28 f0       	brcs	.+10     	; 0x2986 <__mulsf3+0x12>
    297c:	b6 df       	rcall	.-148    	; 0x28ea <__fp_pscB>
    297e:	18 f0       	brcs	.+6      	; 0x2986 <__mulsf3+0x12>
    2980:	95 23       	and	r25, r21
    2982:	09 f0       	breq	.+2      	; 0x2986 <__mulsf3+0x12>
    2984:	a2 cf       	rjmp	.-188    	; 0x28ca <__fp_inf>
    2986:	a7 cf       	rjmp	.-178    	; 0x28d6 <__fp_nan>
    2988:	11 24       	eor	r1, r1
    298a:	ea cf       	rjmp	.-44     	; 0x2960 <__fp_szero>

0000298c <__mulsf3x>:
    298c:	c6 df       	rcall	.-116    	; 0x291a <__fp_split3>
    298e:	a0 f3       	brcs	.-24     	; 0x2978 <__mulsf3+0x4>

00002990 <__mulsf3_pse>:
    2990:	95 9f       	mul	r25, r21
    2992:	d1 f3       	breq	.-12     	; 0x2988 <__mulsf3+0x14>
    2994:	95 0f       	add	r25, r21
    2996:	50 e0       	ldi	r21, 0x00	; 0
    2998:	55 1f       	adc	r21, r21
    299a:	62 9f       	mul	r22, r18
    299c:	f0 01       	movw	r30, r0
    299e:	72 9f       	mul	r23, r18
    29a0:	bb 27       	eor	r27, r27
    29a2:	f0 0d       	add	r31, r0
    29a4:	b1 1d       	adc	r27, r1
    29a6:	63 9f       	mul	r22, r19
    29a8:	aa 27       	eor	r26, r26
    29aa:	f0 0d       	add	r31, r0
    29ac:	b1 1d       	adc	r27, r1
    29ae:	aa 1f       	adc	r26, r26
    29b0:	64 9f       	mul	r22, r20
    29b2:	66 27       	eor	r22, r22
    29b4:	b0 0d       	add	r27, r0
    29b6:	a1 1d       	adc	r26, r1
    29b8:	66 1f       	adc	r22, r22
    29ba:	82 9f       	mul	r24, r18
    29bc:	22 27       	eor	r18, r18
    29be:	b0 0d       	add	r27, r0
    29c0:	a1 1d       	adc	r26, r1
    29c2:	62 1f       	adc	r22, r18
    29c4:	73 9f       	mul	r23, r19
    29c6:	b0 0d       	add	r27, r0
    29c8:	a1 1d       	adc	r26, r1
    29ca:	62 1f       	adc	r22, r18
    29cc:	83 9f       	mul	r24, r19
    29ce:	a0 0d       	add	r26, r0
    29d0:	61 1d       	adc	r22, r1
    29d2:	22 1f       	adc	r18, r18
    29d4:	74 9f       	mul	r23, r20
    29d6:	33 27       	eor	r19, r19
    29d8:	a0 0d       	add	r26, r0
    29da:	61 1d       	adc	r22, r1
    29dc:	23 1f       	adc	r18, r19
    29de:	84 9f       	mul	r24, r20
    29e0:	60 0d       	add	r22, r0
    29e2:	21 1d       	adc	r18, r1
    29e4:	82 2f       	mov	r24, r18
    29e6:	76 2f       	mov	r23, r22
    29e8:	6a 2f       	mov	r22, r26
    29ea:	11 24       	eor	r1, r1
    29ec:	9f 57       	subi	r25, 0x7F	; 127
    29ee:	50 40       	sbci	r21, 0x00	; 0
    29f0:	8a f0       	brmi	.+34     	; 0x2a14 <__mulsf3_pse+0x84>
    29f2:	e1 f0       	breq	.+56     	; 0x2a2c <__mulsf3_pse+0x9c>
    29f4:	88 23       	and	r24, r24
    29f6:	4a f0       	brmi	.+18     	; 0x2a0a <__mulsf3_pse+0x7a>
    29f8:	ee 0f       	add	r30, r30
    29fa:	ff 1f       	adc	r31, r31
    29fc:	bb 1f       	adc	r27, r27
    29fe:	66 1f       	adc	r22, r22
    2a00:	77 1f       	adc	r23, r23
    2a02:	88 1f       	adc	r24, r24
    2a04:	91 50       	subi	r25, 0x01	; 1
    2a06:	50 40       	sbci	r21, 0x00	; 0
    2a08:	a9 f7       	brne	.-22     	; 0x29f4 <__mulsf3_pse+0x64>
    2a0a:	9e 3f       	cpi	r25, 0xFE	; 254
    2a0c:	51 05       	cpc	r21, r1
    2a0e:	70 f0       	brcs	.+28     	; 0x2a2c <__mulsf3_pse+0x9c>
    2a10:	5c cf       	rjmp	.-328    	; 0x28ca <__fp_inf>
    2a12:	a6 cf       	rjmp	.-180    	; 0x2960 <__fp_szero>
    2a14:	5f 3f       	cpi	r21, 0xFF	; 255
    2a16:	ec f3       	brlt	.-6      	; 0x2a12 <__mulsf3_pse+0x82>
    2a18:	98 3e       	cpi	r25, 0xE8	; 232
    2a1a:	dc f3       	brlt	.-10     	; 0x2a12 <__mulsf3_pse+0x82>
    2a1c:	86 95       	lsr	r24
    2a1e:	77 95       	ror	r23
    2a20:	67 95       	ror	r22
    2a22:	b7 95       	ror	r27
    2a24:	f7 95       	ror	r31
    2a26:	e7 95       	ror	r30
    2a28:	9f 5f       	subi	r25, 0xFF	; 255
    2a2a:	c1 f7       	brne	.-16     	; 0x2a1c <__mulsf3_pse+0x8c>
    2a2c:	fe 2b       	or	r31, r30
    2a2e:	88 0f       	add	r24, r24
    2a30:	91 1d       	adc	r25, r1
    2a32:	96 95       	lsr	r25
    2a34:	87 95       	ror	r24
    2a36:	97 f9       	bld	r25, 7
    2a38:	08 95       	ret

00002a3a <__divmodhi4>:
    2a3a:	97 fb       	bst	r25, 7
    2a3c:	07 2e       	mov	r0, r23
    2a3e:	16 f4       	brtc	.+4      	; 0x2a44 <__divmodhi4+0xa>
    2a40:	00 94       	com	r0
    2a42:	07 d0       	rcall	.+14     	; 0x2a52 <__divmodhi4_neg1>
    2a44:	77 fd       	sbrc	r23, 7
    2a46:	09 d0       	rcall	.+18     	; 0x2a5a <__divmodhi4_neg2>
    2a48:	0e 94 31 15 	call	0x2a62	; 0x2a62 <__udivmodhi4>
    2a4c:	07 fc       	sbrc	r0, 7
    2a4e:	05 d0       	rcall	.+10     	; 0x2a5a <__divmodhi4_neg2>
    2a50:	3e f4       	brtc	.+14     	; 0x2a60 <__divmodhi4_exit>

00002a52 <__divmodhi4_neg1>:
    2a52:	90 95       	com	r25
    2a54:	81 95       	neg	r24
    2a56:	9f 4f       	sbci	r25, 0xFF	; 255
    2a58:	08 95       	ret

00002a5a <__divmodhi4_neg2>:
    2a5a:	70 95       	com	r23
    2a5c:	61 95       	neg	r22
    2a5e:	7f 4f       	sbci	r23, 0xFF	; 255

00002a60 <__divmodhi4_exit>:
    2a60:	08 95       	ret

00002a62 <__udivmodhi4>:
    2a62:	aa 1b       	sub	r26, r26
    2a64:	bb 1b       	sub	r27, r27
    2a66:	51 e1       	ldi	r21, 0x11	; 17
    2a68:	07 c0       	rjmp	.+14     	; 0x2a78 <__udivmodhi4_ep>

00002a6a <__udivmodhi4_loop>:
    2a6a:	aa 1f       	adc	r26, r26
    2a6c:	bb 1f       	adc	r27, r27
    2a6e:	a6 17       	cp	r26, r22
    2a70:	b7 07       	cpc	r27, r23
    2a72:	10 f0       	brcs	.+4      	; 0x2a78 <__udivmodhi4_ep>
    2a74:	a6 1b       	sub	r26, r22
    2a76:	b7 0b       	sbc	r27, r23

00002a78 <__udivmodhi4_ep>:
    2a78:	88 1f       	adc	r24, r24
    2a7a:	99 1f       	adc	r25, r25
    2a7c:	5a 95       	dec	r21
    2a7e:	a9 f7       	brne	.-22     	; 0x2a6a <__udivmodhi4_loop>
    2a80:	80 95       	com	r24
    2a82:	90 95       	com	r25
    2a84:	bc 01       	movw	r22, r24
    2a86:	cd 01       	movw	r24, r26
    2a88:	08 95       	ret

00002a8a <malloc>:
    2a8a:	cf 93       	push	r28
    2a8c:	df 93       	push	r29
    2a8e:	82 30       	cpi	r24, 0x02	; 2
    2a90:	91 05       	cpc	r25, r1
    2a92:	10 f4       	brcc	.+4      	; 0x2a98 <malloc+0xe>
    2a94:	82 e0       	ldi	r24, 0x02	; 2
    2a96:	90 e0       	ldi	r25, 0x00	; 0
    2a98:	e0 91 20 04 	lds	r30, 0x0420
    2a9c:	f0 91 21 04 	lds	r31, 0x0421
    2aa0:	20 e0       	ldi	r18, 0x00	; 0
    2aa2:	30 e0       	ldi	r19, 0x00	; 0
    2aa4:	a0 e0       	ldi	r26, 0x00	; 0
    2aa6:	b0 e0       	ldi	r27, 0x00	; 0
    2aa8:	30 97       	sbiw	r30, 0x00	; 0
    2aaa:	39 f1       	breq	.+78     	; 0x2afa <malloc+0x70>
    2aac:	40 81       	ld	r20, Z
    2aae:	51 81       	ldd	r21, Z+1	; 0x01
    2ab0:	48 17       	cp	r20, r24
    2ab2:	59 07       	cpc	r21, r25
    2ab4:	b8 f0       	brcs	.+46     	; 0x2ae4 <malloc+0x5a>
    2ab6:	48 17       	cp	r20, r24
    2ab8:	59 07       	cpc	r21, r25
    2aba:	71 f4       	brne	.+28     	; 0x2ad8 <malloc+0x4e>
    2abc:	82 81       	ldd	r24, Z+2	; 0x02
    2abe:	93 81       	ldd	r25, Z+3	; 0x03
    2ac0:	10 97       	sbiw	r26, 0x00	; 0
    2ac2:	29 f0       	breq	.+10     	; 0x2ace <malloc+0x44>
    2ac4:	13 96       	adiw	r26, 0x03	; 3
    2ac6:	9c 93       	st	X, r25
    2ac8:	8e 93       	st	-X, r24
    2aca:	12 97       	sbiw	r26, 0x02	; 2
    2acc:	2c c0       	rjmp	.+88     	; 0x2b26 <malloc+0x9c>
    2ace:	90 93 21 04 	sts	0x0421, r25
    2ad2:	80 93 20 04 	sts	0x0420, r24
    2ad6:	27 c0       	rjmp	.+78     	; 0x2b26 <malloc+0x9c>
    2ad8:	21 15       	cp	r18, r1
    2ada:	31 05       	cpc	r19, r1
    2adc:	31 f0       	breq	.+12     	; 0x2aea <malloc+0x60>
    2ade:	42 17       	cp	r20, r18
    2ae0:	53 07       	cpc	r21, r19
    2ae2:	18 f0       	brcs	.+6      	; 0x2aea <malloc+0x60>
    2ae4:	a9 01       	movw	r20, r18
    2ae6:	db 01       	movw	r26, r22
    2ae8:	01 c0       	rjmp	.+2      	; 0x2aec <malloc+0x62>
    2aea:	ef 01       	movw	r28, r30
    2aec:	9a 01       	movw	r18, r20
    2aee:	bd 01       	movw	r22, r26
    2af0:	df 01       	movw	r26, r30
    2af2:	02 80       	ldd	r0, Z+2	; 0x02
    2af4:	f3 81       	ldd	r31, Z+3	; 0x03
    2af6:	e0 2d       	mov	r30, r0
    2af8:	d7 cf       	rjmp	.-82     	; 0x2aa8 <malloc+0x1e>
    2afa:	21 15       	cp	r18, r1
    2afc:	31 05       	cpc	r19, r1
    2afe:	f9 f0       	breq	.+62     	; 0x2b3e <malloc+0xb4>
    2b00:	28 1b       	sub	r18, r24
    2b02:	39 0b       	sbc	r19, r25
    2b04:	24 30       	cpi	r18, 0x04	; 4
    2b06:	31 05       	cpc	r19, r1
    2b08:	80 f4       	brcc	.+32     	; 0x2b2a <malloc+0xa0>
    2b0a:	8a 81       	ldd	r24, Y+2	; 0x02
    2b0c:	9b 81       	ldd	r25, Y+3	; 0x03
    2b0e:	61 15       	cp	r22, r1
    2b10:	71 05       	cpc	r23, r1
    2b12:	21 f0       	breq	.+8      	; 0x2b1c <malloc+0x92>
    2b14:	fb 01       	movw	r30, r22
    2b16:	93 83       	std	Z+3, r25	; 0x03
    2b18:	82 83       	std	Z+2, r24	; 0x02
    2b1a:	04 c0       	rjmp	.+8      	; 0x2b24 <malloc+0x9a>
    2b1c:	90 93 21 04 	sts	0x0421, r25
    2b20:	80 93 20 04 	sts	0x0420, r24
    2b24:	fe 01       	movw	r30, r28
    2b26:	32 96       	adiw	r30, 0x02	; 2
    2b28:	44 c0       	rjmp	.+136    	; 0x2bb2 <malloc+0x128>
    2b2a:	fe 01       	movw	r30, r28
    2b2c:	e2 0f       	add	r30, r18
    2b2e:	f3 1f       	adc	r31, r19
    2b30:	81 93       	st	Z+, r24
    2b32:	91 93       	st	Z+, r25
    2b34:	22 50       	subi	r18, 0x02	; 2
    2b36:	31 09       	sbc	r19, r1
    2b38:	39 83       	std	Y+1, r19	; 0x01
    2b3a:	28 83       	st	Y, r18
    2b3c:	3a c0       	rjmp	.+116    	; 0x2bb2 <malloc+0x128>
    2b3e:	20 91 1e 04 	lds	r18, 0x041E
    2b42:	30 91 1f 04 	lds	r19, 0x041F
    2b46:	23 2b       	or	r18, r19
    2b48:	41 f4       	brne	.+16     	; 0x2b5a <malloc+0xd0>
    2b4a:	20 91 02 01 	lds	r18, 0x0102
    2b4e:	30 91 03 01 	lds	r19, 0x0103
    2b52:	30 93 1f 04 	sts	0x041F, r19
    2b56:	20 93 1e 04 	sts	0x041E, r18
    2b5a:	20 91 00 01 	lds	r18, 0x0100
    2b5e:	30 91 01 01 	lds	r19, 0x0101
    2b62:	21 15       	cp	r18, r1
    2b64:	31 05       	cpc	r19, r1
    2b66:	41 f4       	brne	.+16     	; 0x2b78 <malloc+0xee>
    2b68:	2d b7       	in	r18, 0x3d	; 61
    2b6a:	3e b7       	in	r19, 0x3e	; 62
    2b6c:	40 91 04 01 	lds	r20, 0x0104
    2b70:	50 91 05 01 	lds	r21, 0x0105
    2b74:	24 1b       	sub	r18, r20
    2b76:	35 0b       	sbc	r19, r21
    2b78:	e0 91 1e 04 	lds	r30, 0x041E
    2b7c:	f0 91 1f 04 	lds	r31, 0x041F
    2b80:	e2 17       	cp	r30, r18
    2b82:	f3 07       	cpc	r31, r19
    2b84:	a0 f4       	brcc	.+40     	; 0x2bae <malloc+0x124>
    2b86:	2e 1b       	sub	r18, r30
    2b88:	3f 0b       	sbc	r19, r31
    2b8a:	28 17       	cp	r18, r24
    2b8c:	39 07       	cpc	r19, r25
    2b8e:	78 f0       	brcs	.+30     	; 0x2bae <malloc+0x124>
    2b90:	ac 01       	movw	r20, r24
    2b92:	4e 5f       	subi	r20, 0xFE	; 254
    2b94:	5f 4f       	sbci	r21, 0xFF	; 255
    2b96:	24 17       	cp	r18, r20
    2b98:	35 07       	cpc	r19, r21
    2b9a:	48 f0       	brcs	.+18     	; 0x2bae <malloc+0x124>
    2b9c:	4e 0f       	add	r20, r30
    2b9e:	5f 1f       	adc	r21, r31
    2ba0:	50 93 1f 04 	sts	0x041F, r21
    2ba4:	40 93 1e 04 	sts	0x041E, r20
    2ba8:	81 93       	st	Z+, r24
    2baa:	91 93       	st	Z+, r25
    2bac:	02 c0       	rjmp	.+4      	; 0x2bb2 <malloc+0x128>
    2bae:	e0 e0       	ldi	r30, 0x00	; 0
    2bb0:	f0 e0       	ldi	r31, 0x00	; 0
    2bb2:	cf 01       	movw	r24, r30
    2bb4:	df 91       	pop	r29
    2bb6:	cf 91       	pop	r28
    2bb8:	08 95       	ret

00002bba <free>:
    2bba:	cf 93       	push	r28
    2bbc:	df 93       	push	r29
    2bbe:	00 97       	sbiw	r24, 0x00	; 0
    2bc0:	09 f4       	brne	.+2      	; 0x2bc4 <free+0xa>
    2bc2:	87 c0       	rjmp	.+270    	; 0x2cd2 <free+0x118>
    2bc4:	fc 01       	movw	r30, r24
    2bc6:	32 97       	sbiw	r30, 0x02	; 2
    2bc8:	13 82       	std	Z+3, r1	; 0x03
    2bca:	12 82       	std	Z+2, r1	; 0x02
    2bcc:	c0 91 20 04 	lds	r28, 0x0420
    2bd0:	d0 91 21 04 	lds	r29, 0x0421
    2bd4:	20 97       	sbiw	r28, 0x00	; 0
    2bd6:	81 f4       	brne	.+32     	; 0x2bf8 <free+0x3e>
    2bd8:	20 81       	ld	r18, Z
    2bda:	31 81       	ldd	r19, Z+1	; 0x01
    2bdc:	28 0f       	add	r18, r24
    2bde:	39 1f       	adc	r19, r25
    2be0:	80 91 1e 04 	lds	r24, 0x041E
    2be4:	90 91 1f 04 	lds	r25, 0x041F
    2be8:	82 17       	cp	r24, r18
    2bea:	93 07       	cpc	r25, r19
    2bec:	79 f5       	brne	.+94     	; 0x2c4c <free+0x92>
    2bee:	f0 93 1f 04 	sts	0x041F, r31
    2bf2:	e0 93 1e 04 	sts	0x041E, r30
    2bf6:	6d c0       	rjmp	.+218    	; 0x2cd2 <free+0x118>
    2bf8:	de 01       	movw	r26, r28
    2bfa:	20 e0       	ldi	r18, 0x00	; 0
    2bfc:	30 e0       	ldi	r19, 0x00	; 0
    2bfe:	ae 17       	cp	r26, r30
    2c00:	bf 07       	cpc	r27, r31
    2c02:	50 f4       	brcc	.+20     	; 0x2c18 <free+0x5e>
    2c04:	12 96       	adiw	r26, 0x02	; 2
    2c06:	4d 91       	ld	r20, X+
    2c08:	5c 91       	ld	r21, X
    2c0a:	13 97       	sbiw	r26, 0x03	; 3
    2c0c:	9d 01       	movw	r18, r26
    2c0e:	41 15       	cp	r20, r1
    2c10:	51 05       	cpc	r21, r1
    2c12:	09 f1       	breq	.+66     	; 0x2c56 <free+0x9c>
    2c14:	da 01       	movw	r26, r20
    2c16:	f3 cf       	rjmp	.-26     	; 0x2bfe <free+0x44>
    2c18:	b3 83       	std	Z+3, r27	; 0x03
    2c1a:	a2 83       	std	Z+2, r26	; 0x02
    2c1c:	40 81       	ld	r20, Z
    2c1e:	51 81       	ldd	r21, Z+1	; 0x01
    2c20:	84 0f       	add	r24, r20
    2c22:	95 1f       	adc	r25, r21
    2c24:	8a 17       	cp	r24, r26
    2c26:	9b 07       	cpc	r25, r27
    2c28:	71 f4       	brne	.+28     	; 0x2c46 <free+0x8c>
    2c2a:	8d 91       	ld	r24, X+
    2c2c:	9c 91       	ld	r25, X
    2c2e:	11 97       	sbiw	r26, 0x01	; 1
    2c30:	84 0f       	add	r24, r20
    2c32:	95 1f       	adc	r25, r21
    2c34:	02 96       	adiw	r24, 0x02	; 2
    2c36:	91 83       	std	Z+1, r25	; 0x01
    2c38:	80 83       	st	Z, r24
    2c3a:	12 96       	adiw	r26, 0x02	; 2
    2c3c:	8d 91       	ld	r24, X+
    2c3e:	9c 91       	ld	r25, X
    2c40:	13 97       	sbiw	r26, 0x03	; 3
    2c42:	93 83       	std	Z+3, r25	; 0x03
    2c44:	82 83       	std	Z+2, r24	; 0x02
    2c46:	21 15       	cp	r18, r1
    2c48:	31 05       	cpc	r19, r1
    2c4a:	29 f4       	brne	.+10     	; 0x2c56 <free+0x9c>
    2c4c:	f0 93 21 04 	sts	0x0421, r31
    2c50:	e0 93 20 04 	sts	0x0420, r30
    2c54:	3e c0       	rjmp	.+124    	; 0x2cd2 <free+0x118>
    2c56:	d9 01       	movw	r26, r18
    2c58:	13 96       	adiw	r26, 0x03	; 3
    2c5a:	fc 93       	st	X, r31
    2c5c:	ee 93       	st	-X, r30
    2c5e:	12 97       	sbiw	r26, 0x02	; 2
    2c60:	4d 91       	ld	r20, X+
    2c62:	5d 91       	ld	r21, X+
    2c64:	a4 0f       	add	r26, r20
    2c66:	b5 1f       	adc	r27, r21
    2c68:	ea 17       	cp	r30, r26
    2c6a:	fb 07       	cpc	r31, r27
    2c6c:	79 f4       	brne	.+30     	; 0x2c8c <free+0xd2>
    2c6e:	80 81       	ld	r24, Z
    2c70:	91 81       	ldd	r25, Z+1	; 0x01
    2c72:	84 0f       	add	r24, r20
    2c74:	95 1f       	adc	r25, r21
    2c76:	02 96       	adiw	r24, 0x02	; 2
    2c78:	d9 01       	movw	r26, r18
    2c7a:	11 96       	adiw	r26, 0x01	; 1
    2c7c:	9c 93       	st	X, r25
    2c7e:	8e 93       	st	-X, r24
    2c80:	82 81       	ldd	r24, Z+2	; 0x02
    2c82:	93 81       	ldd	r25, Z+3	; 0x03
    2c84:	13 96       	adiw	r26, 0x03	; 3
    2c86:	9c 93       	st	X, r25
    2c88:	8e 93       	st	-X, r24
    2c8a:	12 97       	sbiw	r26, 0x02	; 2
    2c8c:	e0 e0       	ldi	r30, 0x00	; 0
    2c8e:	f0 e0       	ldi	r31, 0x00	; 0
    2c90:	8a 81       	ldd	r24, Y+2	; 0x02
    2c92:	9b 81       	ldd	r25, Y+3	; 0x03
    2c94:	00 97       	sbiw	r24, 0x00	; 0
    2c96:	19 f0       	breq	.+6      	; 0x2c9e <free+0xe4>
    2c98:	fe 01       	movw	r30, r28
    2c9a:	ec 01       	movw	r28, r24
    2c9c:	f9 cf       	rjmp	.-14     	; 0x2c90 <free+0xd6>
    2c9e:	ce 01       	movw	r24, r28
    2ca0:	02 96       	adiw	r24, 0x02	; 2
    2ca2:	28 81       	ld	r18, Y
    2ca4:	39 81       	ldd	r19, Y+1	; 0x01
    2ca6:	82 0f       	add	r24, r18
    2ca8:	93 1f       	adc	r25, r19
    2caa:	20 91 1e 04 	lds	r18, 0x041E
    2cae:	30 91 1f 04 	lds	r19, 0x041F
    2cb2:	28 17       	cp	r18, r24
    2cb4:	39 07       	cpc	r19, r25
    2cb6:	69 f4       	brne	.+26     	; 0x2cd2 <free+0x118>
    2cb8:	30 97       	sbiw	r30, 0x00	; 0
    2cba:	29 f4       	brne	.+10     	; 0x2cc6 <free+0x10c>
    2cbc:	10 92 21 04 	sts	0x0421, r1
    2cc0:	10 92 20 04 	sts	0x0420, r1
    2cc4:	02 c0       	rjmp	.+4      	; 0x2cca <free+0x110>
    2cc6:	13 82       	std	Z+3, r1	; 0x03
    2cc8:	12 82       	std	Z+2, r1	; 0x02
    2cca:	d0 93 1f 04 	sts	0x041F, r29
    2cce:	c0 93 1e 04 	sts	0x041E, r28
    2cd2:	df 91       	pop	r29
    2cd4:	cf 91       	pop	r28
    2cd6:	08 95       	ret

00002cd8 <do_rand>:
    2cd8:	8f 92       	push	r8
    2cda:	9f 92       	push	r9
    2cdc:	af 92       	push	r10
    2cde:	bf 92       	push	r11
    2ce0:	cf 92       	push	r12
    2ce2:	df 92       	push	r13
    2ce4:	ef 92       	push	r14
    2ce6:	ff 92       	push	r15
    2ce8:	cf 93       	push	r28
    2cea:	df 93       	push	r29
    2cec:	ec 01       	movw	r28, r24
    2cee:	68 81       	ld	r22, Y
    2cf0:	79 81       	ldd	r23, Y+1	; 0x01
    2cf2:	8a 81       	ldd	r24, Y+2	; 0x02
    2cf4:	9b 81       	ldd	r25, Y+3	; 0x03
    2cf6:	61 15       	cp	r22, r1
    2cf8:	71 05       	cpc	r23, r1
    2cfa:	81 05       	cpc	r24, r1
    2cfc:	91 05       	cpc	r25, r1
    2cfe:	21 f4       	brne	.+8      	; 0x2d08 <do_rand+0x30>
    2d00:	64 e2       	ldi	r22, 0x24	; 36
    2d02:	79 ed       	ldi	r23, 0xD9	; 217
    2d04:	8b e5       	ldi	r24, 0x5B	; 91
    2d06:	97 e0       	ldi	r25, 0x07	; 7
    2d08:	2d e1       	ldi	r18, 0x1D	; 29
    2d0a:	33 ef       	ldi	r19, 0xF3	; 243
    2d0c:	41 e0       	ldi	r20, 0x01	; 1
    2d0e:	50 e0       	ldi	r21, 0x00	; 0
    2d10:	0e 94 41 1a 	call	0x3482	; 0x3482 <__divmodsi4>
    2d14:	49 01       	movw	r8, r18
    2d16:	5a 01       	movw	r10, r20
    2d18:	9b 01       	movw	r18, r22
    2d1a:	ac 01       	movw	r20, r24
    2d1c:	a7 ea       	ldi	r26, 0xA7	; 167
    2d1e:	b1 e4       	ldi	r27, 0x41	; 65
    2d20:	0e 94 60 1a 	call	0x34c0	; 0x34c0 <__muluhisi3>
    2d24:	6b 01       	movw	r12, r22
    2d26:	7c 01       	movw	r14, r24
    2d28:	ac ee       	ldi	r26, 0xEC	; 236
    2d2a:	b4 ef       	ldi	r27, 0xF4	; 244
    2d2c:	a5 01       	movw	r20, r10
    2d2e:	94 01       	movw	r18, r8
    2d30:	0e 94 6e 1a 	call	0x34dc	; 0x34dc <__mulohisi3>
    2d34:	c6 0e       	add	r12, r22
    2d36:	d7 1e       	adc	r13, r23
    2d38:	e8 1e       	adc	r14, r24
    2d3a:	f9 1e       	adc	r15, r25
    2d3c:	f7 fe       	sbrs	r15, 7
    2d3e:	06 c0       	rjmp	.+12     	; 0x2d4c <do_rand+0x74>
    2d40:	81 e0       	ldi	r24, 0x01	; 1
    2d42:	c8 1a       	sub	r12, r24
    2d44:	d1 08       	sbc	r13, r1
    2d46:	e1 08       	sbc	r14, r1
    2d48:	80 e8       	ldi	r24, 0x80	; 128
    2d4a:	f8 0a       	sbc	r15, r24
    2d4c:	c8 82       	st	Y, r12
    2d4e:	d9 82       	std	Y+1, r13	; 0x01
    2d50:	ea 82       	std	Y+2, r14	; 0x02
    2d52:	fb 82       	std	Y+3, r15	; 0x03
    2d54:	c6 01       	movw	r24, r12
    2d56:	9f 77       	andi	r25, 0x7F	; 127
    2d58:	df 91       	pop	r29
    2d5a:	cf 91       	pop	r28
    2d5c:	ff 90       	pop	r15
    2d5e:	ef 90       	pop	r14
    2d60:	df 90       	pop	r13
    2d62:	cf 90       	pop	r12
    2d64:	bf 90       	pop	r11
    2d66:	af 90       	pop	r10
    2d68:	9f 90       	pop	r9
    2d6a:	8f 90       	pop	r8
    2d6c:	08 95       	ret

00002d6e <rand_r>:
    2d6e:	0e 94 6c 16 	call	0x2cd8	; 0x2cd8 <do_rand>
    2d72:	08 95       	ret

00002d74 <rand>:
    2d74:	86 e0       	ldi	r24, 0x06	; 6
    2d76:	91 e0       	ldi	r25, 0x01	; 1
    2d78:	0e 94 6c 16 	call	0x2cd8	; 0x2cd8 <do_rand>
    2d7c:	08 95       	ret

00002d7e <srand>:
    2d7e:	a0 e0       	ldi	r26, 0x00	; 0
    2d80:	b0 e0       	ldi	r27, 0x00	; 0
    2d82:	80 93 06 01 	sts	0x0106, r24
    2d86:	90 93 07 01 	sts	0x0107, r25
    2d8a:	a0 93 08 01 	sts	0x0108, r26
    2d8e:	b0 93 09 01 	sts	0x0109, r27
    2d92:	08 95       	ret

00002d94 <strcmp>:
    2d94:	fb 01       	movw	r30, r22
    2d96:	dc 01       	movw	r26, r24
    2d98:	8d 91       	ld	r24, X+
    2d9a:	01 90       	ld	r0, Z+
    2d9c:	80 19       	sub	r24, r0
    2d9e:	01 10       	cpse	r0, r1
    2da0:	d9 f3       	breq	.-10     	; 0x2d98 <strcmp+0x4>
    2da2:	99 0b       	sbc	r25, r25
    2da4:	08 95       	ret

00002da6 <itoa>:
    2da6:	45 32       	cpi	r20, 0x25	; 37
    2da8:	51 05       	cpc	r21, r1
    2daa:	20 f4       	brcc	.+8      	; 0x2db4 <itoa+0xe>
    2dac:	42 30       	cpi	r20, 0x02	; 2
    2dae:	10 f0       	brcs	.+4      	; 0x2db4 <itoa+0xe>
    2db0:	0c 94 de 16 	jmp	0x2dbc	; 0x2dbc <__itoa_ncheck>
    2db4:	fb 01       	movw	r30, r22
    2db6:	10 82       	st	Z, r1
    2db8:	cb 01       	movw	r24, r22
    2dba:	08 95       	ret

00002dbc <__itoa_ncheck>:
    2dbc:	bb 27       	eor	r27, r27
    2dbe:	4a 30       	cpi	r20, 0x0A	; 10
    2dc0:	31 f4       	brne	.+12     	; 0x2dce <__itoa_ncheck+0x12>
    2dc2:	99 23       	and	r25, r25
    2dc4:	22 f4       	brpl	.+8      	; 0x2dce <__itoa_ncheck+0x12>
    2dc6:	bd e2       	ldi	r27, 0x2D	; 45
    2dc8:	90 95       	com	r25
    2dca:	81 95       	neg	r24
    2dcc:	9f 4f       	sbci	r25, 0xFF	; 255
    2dce:	0c 94 ea 16 	jmp	0x2dd4	; 0x2dd4 <__utoa_common>

00002dd2 <__utoa_ncheck>:
    2dd2:	bb 27       	eor	r27, r27

00002dd4 <__utoa_common>:
    2dd4:	fb 01       	movw	r30, r22
    2dd6:	55 27       	eor	r21, r21
    2dd8:	aa 27       	eor	r26, r26
    2dda:	88 0f       	add	r24, r24
    2ddc:	99 1f       	adc	r25, r25
    2dde:	aa 1f       	adc	r26, r26
    2de0:	a4 17       	cp	r26, r20
    2de2:	10 f0       	brcs	.+4      	; 0x2de8 <__utoa_common+0x14>
    2de4:	a4 1b       	sub	r26, r20
    2de6:	83 95       	inc	r24
    2de8:	50 51       	subi	r21, 0x10	; 16
    2dea:	b9 f7       	brne	.-18     	; 0x2dda <__utoa_common+0x6>
    2dec:	a0 5d       	subi	r26, 0xD0	; 208
    2dee:	aa 33       	cpi	r26, 0x3A	; 58
    2df0:	08 f0       	brcs	.+2      	; 0x2df4 <__utoa_common+0x20>
    2df2:	a9 5d       	subi	r26, 0xD9	; 217
    2df4:	a1 93       	st	Z+, r26
    2df6:	00 97       	sbiw	r24, 0x00	; 0
    2df8:	79 f7       	brne	.-34     	; 0x2dd8 <__utoa_common+0x4>
    2dfa:	b1 11       	cpse	r27, r1
    2dfc:	b1 93       	st	Z+, r27
    2dfe:	11 92       	st	Z+, r1
    2e00:	cb 01       	movw	r24, r22
    2e02:	0c 94 a1 19 	jmp	0x3342	; 0x3342 <strrev>

00002e06 <fdevopen>:
    2e06:	0f 93       	push	r16
    2e08:	1f 93       	push	r17
    2e0a:	cf 93       	push	r28
    2e0c:	df 93       	push	r29
    2e0e:	ec 01       	movw	r28, r24
    2e10:	8b 01       	movw	r16, r22
    2e12:	00 97       	sbiw	r24, 0x00	; 0
    2e14:	31 f4       	brne	.+12     	; 0x2e22 <fdevopen+0x1c>
    2e16:	61 15       	cp	r22, r1
    2e18:	71 05       	cpc	r23, r1
    2e1a:	19 f4       	brne	.+6      	; 0x2e22 <fdevopen+0x1c>
    2e1c:	80 e0       	ldi	r24, 0x00	; 0
    2e1e:	90 e0       	ldi	r25, 0x00	; 0
    2e20:	38 c0       	rjmp	.+112    	; 0x2e92 <fdevopen+0x8c>
    2e22:	6e e0       	ldi	r22, 0x0E	; 14
    2e24:	70 e0       	ldi	r23, 0x00	; 0
    2e26:	81 e0       	ldi	r24, 0x01	; 1
    2e28:	90 e0       	ldi	r25, 0x00	; 0
    2e2a:	0e 94 68 19 	call	0x32d0	; 0x32d0 <calloc>
    2e2e:	fc 01       	movw	r30, r24
    2e30:	00 97       	sbiw	r24, 0x00	; 0
    2e32:	a1 f3       	breq	.-24     	; 0x2e1c <fdevopen+0x16>
    2e34:	80 e8       	ldi	r24, 0x80	; 128
    2e36:	83 83       	std	Z+3, r24	; 0x03
    2e38:	01 15       	cp	r16, r1
    2e3a:	11 05       	cpc	r17, r1
    2e3c:	71 f0       	breq	.+28     	; 0x2e5a <fdevopen+0x54>
    2e3e:	13 87       	std	Z+11, r17	; 0x0b
    2e40:	02 87       	std	Z+10, r16	; 0x0a
    2e42:	81 e8       	ldi	r24, 0x81	; 129
    2e44:	83 83       	std	Z+3, r24	; 0x03
    2e46:	80 91 22 04 	lds	r24, 0x0422
    2e4a:	90 91 23 04 	lds	r25, 0x0423
    2e4e:	89 2b       	or	r24, r25
    2e50:	21 f4       	brne	.+8      	; 0x2e5a <fdevopen+0x54>
    2e52:	f0 93 23 04 	sts	0x0423, r31
    2e56:	e0 93 22 04 	sts	0x0422, r30
    2e5a:	20 97       	sbiw	r28, 0x00	; 0
    2e5c:	c9 f0       	breq	.+50     	; 0x2e90 <fdevopen+0x8a>
    2e5e:	d1 87       	std	Z+9, r29	; 0x09
    2e60:	c0 87       	std	Z+8, r28	; 0x08
    2e62:	83 81       	ldd	r24, Z+3	; 0x03
    2e64:	82 60       	ori	r24, 0x02	; 2
    2e66:	83 83       	std	Z+3, r24	; 0x03
    2e68:	80 91 24 04 	lds	r24, 0x0424
    2e6c:	90 91 25 04 	lds	r25, 0x0425
    2e70:	89 2b       	or	r24, r25
    2e72:	71 f4       	brne	.+28     	; 0x2e90 <fdevopen+0x8a>
    2e74:	f0 93 25 04 	sts	0x0425, r31
    2e78:	e0 93 24 04 	sts	0x0424, r30
    2e7c:	80 91 26 04 	lds	r24, 0x0426
    2e80:	90 91 27 04 	lds	r25, 0x0427
    2e84:	89 2b       	or	r24, r25
    2e86:	21 f4       	brne	.+8      	; 0x2e90 <fdevopen+0x8a>
    2e88:	f0 93 27 04 	sts	0x0427, r31
    2e8c:	e0 93 26 04 	sts	0x0426, r30
    2e90:	cf 01       	movw	r24, r30
    2e92:	df 91       	pop	r29
    2e94:	cf 91       	pop	r28
    2e96:	1f 91       	pop	r17
    2e98:	0f 91       	pop	r16
    2e9a:	08 95       	ret

00002e9c <printf>:
    2e9c:	a0 e0       	ldi	r26, 0x00	; 0
    2e9e:	b0 e0       	ldi	r27, 0x00	; 0
    2ea0:	e4 e5       	ldi	r30, 0x54	; 84
    2ea2:	f7 e1       	ldi	r31, 0x17	; 23
    2ea4:	0c 94 83 1a 	jmp	0x3506	; 0x3506 <__prologue_saves__+0x20>
    2ea8:	fe 01       	movw	r30, r28
    2eaa:	35 96       	adiw	r30, 0x05	; 5
    2eac:	61 91       	ld	r22, Z+
    2eae:	71 91       	ld	r23, Z+
    2eb0:	af 01       	movw	r20, r30
    2eb2:	80 91 24 04 	lds	r24, 0x0424
    2eb6:	90 91 25 04 	lds	r25, 0x0425
    2eba:	0e 94 96 17 	call	0x2f2c	; 0x2f2c <vfprintf>
    2ebe:	e2 e0       	ldi	r30, 0x02	; 2
    2ec0:	0c 94 9f 1a 	jmp	0x353e	; 0x353e <__epilogue_restores__+0x20>

00002ec4 <putchar>:
    2ec4:	60 91 24 04 	lds	r22, 0x0424
    2ec8:	70 91 25 04 	lds	r23, 0x0425
    2ecc:	0e 94 b1 19 	call	0x3362	; 0x3362 <fputc>
    2ed0:	08 95       	ret

00002ed2 <puts>:
    2ed2:	0f 93       	push	r16
    2ed4:	1f 93       	push	r17
    2ed6:	cf 93       	push	r28
    2ed8:	df 93       	push	r29
    2eda:	e0 91 24 04 	lds	r30, 0x0424
    2ede:	f0 91 25 04 	lds	r31, 0x0425
    2ee2:	23 81       	ldd	r18, Z+3	; 0x03
    2ee4:	21 ff       	sbrs	r18, 1
    2ee6:	1b c0       	rjmp	.+54     	; 0x2f1e <puts+0x4c>
    2ee8:	ec 01       	movw	r28, r24
    2eea:	00 e0       	ldi	r16, 0x00	; 0
    2eec:	10 e0       	ldi	r17, 0x00	; 0
    2eee:	89 91       	ld	r24, Y+
    2ef0:	60 91 24 04 	lds	r22, 0x0424
    2ef4:	70 91 25 04 	lds	r23, 0x0425
    2ef8:	db 01       	movw	r26, r22
    2efa:	18 96       	adiw	r26, 0x08	; 8
    2efc:	ed 91       	ld	r30, X+
    2efe:	fc 91       	ld	r31, X
    2f00:	19 97       	sbiw	r26, 0x09	; 9
    2f02:	88 23       	and	r24, r24
    2f04:	31 f0       	breq	.+12     	; 0x2f12 <puts+0x40>
    2f06:	09 95       	icall
    2f08:	89 2b       	or	r24, r25
    2f0a:	89 f3       	breq	.-30     	; 0x2eee <puts+0x1c>
    2f0c:	0f ef       	ldi	r16, 0xFF	; 255
    2f0e:	1f ef       	ldi	r17, 0xFF	; 255
    2f10:	ee cf       	rjmp	.-36     	; 0x2eee <puts+0x1c>
    2f12:	8a e0       	ldi	r24, 0x0A	; 10
    2f14:	09 95       	icall
    2f16:	89 2b       	or	r24, r25
    2f18:	11 f4       	brne	.+4      	; 0x2f1e <puts+0x4c>
    2f1a:	c8 01       	movw	r24, r16
    2f1c:	02 c0       	rjmp	.+4      	; 0x2f22 <puts+0x50>
    2f1e:	8f ef       	ldi	r24, 0xFF	; 255
    2f20:	9f ef       	ldi	r25, 0xFF	; 255
    2f22:	df 91       	pop	r29
    2f24:	cf 91       	pop	r28
    2f26:	1f 91       	pop	r17
    2f28:	0f 91       	pop	r16
    2f2a:	08 95       	ret

00002f2c <vfprintf>:
    2f2c:	ac e0       	ldi	r26, 0x0C	; 12
    2f2e:	b0 e0       	ldi	r27, 0x00	; 0
    2f30:	ec e9       	ldi	r30, 0x9C	; 156
    2f32:	f7 e1       	ldi	r31, 0x17	; 23
    2f34:	0c 94 73 1a 	jmp	0x34e6	; 0x34e6 <__prologue_saves__>
    2f38:	7c 01       	movw	r14, r24
    2f3a:	6b 01       	movw	r12, r22
    2f3c:	8a 01       	movw	r16, r20
    2f3e:	fc 01       	movw	r30, r24
    2f40:	17 82       	std	Z+7, r1	; 0x07
    2f42:	16 82       	std	Z+6, r1	; 0x06
    2f44:	83 81       	ldd	r24, Z+3	; 0x03
    2f46:	81 ff       	sbrs	r24, 1
    2f48:	bd c1       	rjmp	.+890    	; 0x32c4 <vfprintf+0x398>
    2f4a:	ce 01       	movw	r24, r28
    2f4c:	01 96       	adiw	r24, 0x01	; 1
    2f4e:	4c 01       	movw	r8, r24
    2f50:	f7 01       	movw	r30, r14
    2f52:	93 81       	ldd	r25, Z+3	; 0x03
    2f54:	f6 01       	movw	r30, r12
    2f56:	93 fd       	sbrc	r25, 3
    2f58:	85 91       	lpm	r24, Z+
    2f5a:	93 ff       	sbrs	r25, 3
    2f5c:	81 91       	ld	r24, Z+
    2f5e:	6f 01       	movw	r12, r30
    2f60:	88 23       	and	r24, r24
    2f62:	09 f4       	brne	.+2      	; 0x2f66 <vfprintf+0x3a>
    2f64:	ab c1       	rjmp	.+854    	; 0x32bc <vfprintf+0x390>
    2f66:	85 32       	cpi	r24, 0x25	; 37
    2f68:	39 f4       	brne	.+14     	; 0x2f78 <vfprintf+0x4c>
    2f6a:	93 fd       	sbrc	r25, 3
    2f6c:	85 91       	lpm	r24, Z+
    2f6e:	93 ff       	sbrs	r25, 3
    2f70:	81 91       	ld	r24, Z+
    2f72:	6f 01       	movw	r12, r30
    2f74:	85 32       	cpi	r24, 0x25	; 37
    2f76:	29 f4       	brne	.+10     	; 0x2f82 <vfprintf+0x56>
    2f78:	b7 01       	movw	r22, r14
    2f7a:	90 e0       	ldi	r25, 0x00	; 0
    2f7c:	0e 94 b1 19 	call	0x3362	; 0x3362 <fputc>
    2f80:	e7 cf       	rjmp	.-50     	; 0x2f50 <vfprintf+0x24>
    2f82:	51 2c       	mov	r5, r1
    2f84:	31 2c       	mov	r3, r1
    2f86:	20 e0       	ldi	r18, 0x00	; 0
    2f88:	20 32       	cpi	r18, 0x20	; 32
    2f8a:	a0 f4       	brcc	.+40     	; 0x2fb4 <vfprintf+0x88>
    2f8c:	8b 32       	cpi	r24, 0x2B	; 43
    2f8e:	69 f0       	breq	.+26     	; 0x2faa <vfprintf+0x7e>
    2f90:	30 f4       	brcc	.+12     	; 0x2f9e <vfprintf+0x72>
    2f92:	80 32       	cpi	r24, 0x20	; 32
    2f94:	59 f0       	breq	.+22     	; 0x2fac <vfprintf+0x80>
    2f96:	83 32       	cpi	r24, 0x23	; 35
    2f98:	69 f4       	brne	.+26     	; 0x2fb4 <vfprintf+0x88>
    2f9a:	20 61       	ori	r18, 0x10	; 16
    2f9c:	2c c0       	rjmp	.+88     	; 0x2ff6 <vfprintf+0xca>
    2f9e:	8d 32       	cpi	r24, 0x2D	; 45
    2fa0:	39 f0       	breq	.+14     	; 0x2fb0 <vfprintf+0x84>
    2fa2:	80 33       	cpi	r24, 0x30	; 48
    2fa4:	39 f4       	brne	.+14     	; 0x2fb4 <vfprintf+0x88>
    2fa6:	21 60       	ori	r18, 0x01	; 1
    2fa8:	26 c0       	rjmp	.+76     	; 0x2ff6 <vfprintf+0xca>
    2faa:	22 60       	ori	r18, 0x02	; 2
    2fac:	24 60       	ori	r18, 0x04	; 4
    2fae:	23 c0       	rjmp	.+70     	; 0x2ff6 <vfprintf+0xca>
    2fb0:	28 60       	ori	r18, 0x08	; 8
    2fb2:	21 c0       	rjmp	.+66     	; 0x2ff6 <vfprintf+0xca>
    2fb4:	27 fd       	sbrc	r18, 7
    2fb6:	27 c0       	rjmp	.+78     	; 0x3006 <vfprintf+0xda>
    2fb8:	30 ed       	ldi	r19, 0xD0	; 208
    2fba:	38 0f       	add	r19, r24
    2fbc:	3a 30       	cpi	r19, 0x0A	; 10
    2fbe:	78 f4       	brcc	.+30     	; 0x2fde <vfprintf+0xb2>
    2fc0:	26 ff       	sbrs	r18, 6
    2fc2:	06 c0       	rjmp	.+12     	; 0x2fd0 <vfprintf+0xa4>
    2fc4:	fa e0       	ldi	r31, 0x0A	; 10
    2fc6:	5f 9e       	mul	r5, r31
    2fc8:	30 0d       	add	r19, r0
    2fca:	11 24       	eor	r1, r1
    2fcc:	53 2e       	mov	r5, r19
    2fce:	13 c0       	rjmp	.+38     	; 0x2ff6 <vfprintf+0xca>
    2fd0:	8a e0       	ldi	r24, 0x0A	; 10
    2fd2:	38 9e       	mul	r3, r24
    2fd4:	30 0d       	add	r19, r0
    2fd6:	11 24       	eor	r1, r1
    2fd8:	33 2e       	mov	r3, r19
    2fda:	20 62       	ori	r18, 0x20	; 32
    2fdc:	0c c0       	rjmp	.+24     	; 0x2ff6 <vfprintf+0xca>
    2fde:	8e 32       	cpi	r24, 0x2E	; 46
    2fe0:	21 f4       	brne	.+8      	; 0x2fea <vfprintf+0xbe>
    2fe2:	26 fd       	sbrc	r18, 6
    2fe4:	6b c1       	rjmp	.+726    	; 0x32bc <vfprintf+0x390>
    2fe6:	20 64       	ori	r18, 0x40	; 64
    2fe8:	06 c0       	rjmp	.+12     	; 0x2ff6 <vfprintf+0xca>
    2fea:	8c 36       	cpi	r24, 0x6C	; 108
    2fec:	11 f4       	brne	.+4      	; 0x2ff2 <vfprintf+0xc6>
    2fee:	20 68       	ori	r18, 0x80	; 128
    2ff0:	02 c0       	rjmp	.+4      	; 0x2ff6 <vfprintf+0xca>
    2ff2:	88 36       	cpi	r24, 0x68	; 104
    2ff4:	41 f4       	brne	.+16     	; 0x3006 <vfprintf+0xda>
    2ff6:	f6 01       	movw	r30, r12
    2ff8:	93 fd       	sbrc	r25, 3
    2ffa:	85 91       	lpm	r24, Z+
    2ffc:	93 ff       	sbrs	r25, 3
    2ffe:	81 91       	ld	r24, Z+
    3000:	6f 01       	movw	r12, r30
    3002:	81 11       	cpse	r24, r1
    3004:	c1 cf       	rjmp	.-126    	; 0x2f88 <vfprintf+0x5c>
    3006:	98 2f       	mov	r25, r24
    3008:	9f 7d       	andi	r25, 0xDF	; 223
    300a:	95 54       	subi	r25, 0x45	; 69
    300c:	93 30       	cpi	r25, 0x03	; 3
    300e:	28 f4       	brcc	.+10     	; 0x301a <vfprintf+0xee>
    3010:	0c 5f       	subi	r16, 0xFC	; 252
    3012:	1f 4f       	sbci	r17, 0xFF	; 255
    3014:	ff e3       	ldi	r31, 0x3F	; 63
    3016:	f9 83       	std	Y+1, r31	; 0x01
    3018:	0d c0       	rjmp	.+26     	; 0x3034 <vfprintf+0x108>
    301a:	83 36       	cpi	r24, 0x63	; 99
    301c:	31 f0       	breq	.+12     	; 0x302a <vfprintf+0xfe>
    301e:	83 37       	cpi	r24, 0x73	; 115
    3020:	71 f0       	breq	.+28     	; 0x303e <vfprintf+0x112>
    3022:	83 35       	cpi	r24, 0x53	; 83
    3024:	09 f0       	breq	.+2      	; 0x3028 <vfprintf+0xfc>
    3026:	5b c0       	rjmp	.+182    	; 0x30de <vfprintf+0x1b2>
    3028:	22 c0       	rjmp	.+68     	; 0x306e <vfprintf+0x142>
    302a:	f8 01       	movw	r30, r16
    302c:	80 81       	ld	r24, Z
    302e:	89 83       	std	Y+1, r24	; 0x01
    3030:	0e 5f       	subi	r16, 0xFE	; 254
    3032:	1f 4f       	sbci	r17, 0xFF	; 255
    3034:	44 24       	eor	r4, r4
    3036:	43 94       	inc	r4
    3038:	51 2c       	mov	r5, r1
    303a:	54 01       	movw	r10, r8
    303c:	15 c0       	rjmp	.+42     	; 0x3068 <vfprintf+0x13c>
    303e:	38 01       	movw	r6, r16
    3040:	f2 e0       	ldi	r31, 0x02	; 2
    3042:	6f 0e       	add	r6, r31
    3044:	71 1c       	adc	r7, r1
    3046:	f8 01       	movw	r30, r16
    3048:	a0 80       	ld	r10, Z
    304a:	b1 80       	ldd	r11, Z+1	; 0x01
    304c:	26 ff       	sbrs	r18, 6
    304e:	03 c0       	rjmp	.+6      	; 0x3056 <vfprintf+0x12a>
    3050:	65 2d       	mov	r22, r5
    3052:	70 e0       	ldi	r23, 0x00	; 0
    3054:	02 c0       	rjmp	.+4      	; 0x305a <vfprintf+0x12e>
    3056:	6f ef       	ldi	r22, 0xFF	; 255
    3058:	7f ef       	ldi	r23, 0xFF	; 255
    305a:	c5 01       	movw	r24, r10
    305c:	2c 87       	std	Y+12, r18	; 0x0c
    305e:	0e 94 96 19 	call	0x332c	; 0x332c <strnlen>
    3062:	2c 01       	movw	r4, r24
    3064:	83 01       	movw	r16, r6
    3066:	2c 85       	ldd	r18, Y+12	; 0x0c
    3068:	2f 77       	andi	r18, 0x7F	; 127
    306a:	22 2e       	mov	r2, r18
    306c:	17 c0       	rjmp	.+46     	; 0x309c <vfprintf+0x170>
    306e:	38 01       	movw	r6, r16
    3070:	f2 e0       	ldi	r31, 0x02	; 2
    3072:	6f 0e       	add	r6, r31
    3074:	71 1c       	adc	r7, r1
    3076:	f8 01       	movw	r30, r16
    3078:	a0 80       	ld	r10, Z
    307a:	b1 80       	ldd	r11, Z+1	; 0x01
    307c:	26 ff       	sbrs	r18, 6
    307e:	03 c0       	rjmp	.+6      	; 0x3086 <vfprintf+0x15a>
    3080:	65 2d       	mov	r22, r5
    3082:	70 e0       	ldi	r23, 0x00	; 0
    3084:	02 c0       	rjmp	.+4      	; 0x308a <vfprintf+0x15e>
    3086:	6f ef       	ldi	r22, 0xFF	; 255
    3088:	7f ef       	ldi	r23, 0xFF	; 255
    308a:	c5 01       	movw	r24, r10
    308c:	2c 87       	std	Y+12, r18	; 0x0c
    308e:	0e 94 84 19 	call	0x3308	; 0x3308 <strnlen_P>
    3092:	2c 01       	movw	r4, r24
    3094:	2c 85       	ldd	r18, Y+12	; 0x0c
    3096:	20 68       	ori	r18, 0x80	; 128
    3098:	22 2e       	mov	r2, r18
    309a:	83 01       	movw	r16, r6
    309c:	23 fc       	sbrc	r2, 3
    309e:	1b c0       	rjmp	.+54     	; 0x30d6 <vfprintf+0x1aa>
    30a0:	83 2d       	mov	r24, r3
    30a2:	90 e0       	ldi	r25, 0x00	; 0
    30a4:	48 16       	cp	r4, r24
    30a6:	59 06       	cpc	r5, r25
    30a8:	b0 f4       	brcc	.+44     	; 0x30d6 <vfprintf+0x1aa>
    30aa:	b7 01       	movw	r22, r14
    30ac:	80 e2       	ldi	r24, 0x20	; 32
    30ae:	90 e0       	ldi	r25, 0x00	; 0
    30b0:	0e 94 b1 19 	call	0x3362	; 0x3362 <fputc>
    30b4:	3a 94       	dec	r3
    30b6:	f4 cf       	rjmp	.-24     	; 0x30a0 <vfprintf+0x174>
    30b8:	f5 01       	movw	r30, r10
    30ba:	27 fc       	sbrc	r2, 7
    30bc:	85 91       	lpm	r24, Z+
    30be:	27 fe       	sbrs	r2, 7
    30c0:	81 91       	ld	r24, Z+
    30c2:	5f 01       	movw	r10, r30
    30c4:	b7 01       	movw	r22, r14
    30c6:	90 e0       	ldi	r25, 0x00	; 0
    30c8:	0e 94 b1 19 	call	0x3362	; 0x3362 <fputc>
    30cc:	31 10       	cpse	r3, r1
    30ce:	3a 94       	dec	r3
    30d0:	f1 e0       	ldi	r31, 0x01	; 1
    30d2:	4f 1a       	sub	r4, r31
    30d4:	51 08       	sbc	r5, r1
    30d6:	41 14       	cp	r4, r1
    30d8:	51 04       	cpc	r5, r1
    30da:	71 f7       	brne	.-36     	; 0x30b8 <vfprintf+0x18c>
    30dc:	e5 c0       	rjmp	.+458    	; 0x32a8 <vfprintf+0x37c>
    30de:	84 36       	cpi	r24, 0x64	; 100
    30e0:	11 f0       	breq	.+4      	; 0x30e6 <vfprintf+0x1ba>
    30e2:	89 36       	cpi	r24, 0x69	; 105
    30e4:	39 f5       	brne	.+78     	; 0x3134 <vfprintf+0x208>
    30e6:	f8 01       	movw	r30, r16
    30e8:	27 ff       	sbrs	r18, 7
    30ea:	07 c0       	rjmp	.+14     	; 0x30fa <vfprintf+0x1ce>
    30ec:	60 81       	ld	r22, Z
    30ee:	71 81       	ldd	r23, Z+1	; 0x01
    30f0:	82 81       	ldd	r24, Z+2	; 0x02
    30f2:	93 81       	ldd	r25, Z+3	; 0x03
    30f4:	0c 5f       	subi	r16, 0xFC	; 252
    30f6:	1f 4f       	sbci	r17, 0xFF	; 255
    30f8:	08 c0       	rjmp	.+16     	; 0x310a <vfprintf+0x1de>
    30fa:	60 81       	ld	r22, Z
    30fc:	71 81       	ldd	r23, Z+1	; 0x01
    30fe:	88 27       	eor	r24, r24
    3100:	77 fd       	sbrc	r23, 7
    3102:	80 95       	com	r24
    3104:	98 2f       	mov	r25, r24
    3106:	0e 5f       	subi	r16, 0xFE	; 254
    3108:	1f 4f       	sbci	r17, 0xFF	; 255
    310a:	2f 76       	andi	r18, 0x6F	; 111
    310c:	b2 2e       	mov	r11, r18
    310e:	97 ff       	sbrs	r25, 7
    3110:	09 c0       	rjmp	.+18     	; 0x3124 <vfprintf+0x1f8>
    3112:	90 95       	com	r25
    3114:	80 95       	com	r24
    3116:	70 95       	com	r23
    3118:	61 95       	neg	r22
    311a:	7f 4f       	sbci	r23, 0xFF	; 255
    311c:	8f 4f       	sbci	r24, 0xFF	; 255
    311e:	9f 4f       	sbci	r25, 0xFF	; 255
    3120:	20 68       	ori	r18, 0x80	; 128
    3122:	b2 2e       	mov	r11, r18
    3124:	2a e0       	ldi	r18, 0x0A	; 10
    3126:	30 e0       	ldi	r19, 0x00	; 0
    3128:	a4 01       	movw	r20, r8
    312a:	0e 94 e3 19 	call	0x33c6	; 0x33c6 <__ultoa_invert>
    312e:	a8 2e       	mov	r10, r24
    3130:	a8 18       	sub	r10, r8
    3132:	44 c0       	rjmp	.+136    	; 0x31bc <vfprintf+0x290>
    3134:	85 37       	cpi	r24, 0x75	; 117
    3136:	29 f4       	brne	.+10     	; 0x3142 <vfprintf+0x216>
    3138:	2f 7e       	andi	r18, 0xEF	; 239
    313a:	b2 2e       	mov	r11, r18
    313c:	2a e0       	ldi	r18, 0x0A	; 10
    313e:	30 e0       	ldi	r19, 0x00	; 0
    3140:	25 c0       	rjmp	.+74     	; 0x318c <vfprintf+0x260>
    3142:	f2 2f       	mov	r31, r18
    3144:	f9 7f       	andi	r31, 0xF9	; 249
    3146:	bf 2e       	mov	r11, r31
    3148:	8f 36       	cpi	r24, 0x6F	; 111
    314a:	c1 f0       	breq	.+48     	; 0x317c <vfprintf+0x250>
    314c:	18 f4       	brcc	.+6      	; 0x3154 <vfprintf+0x228>
    314e:	88 35       	cpi	r24, 0x58	; 88
    3150:	79 f0       	breq	.+30     	; 0x3170 <vfprintf+0x244>
    3152:	b4 c0       	rjmp	.+360    	; 0x32bc <vfprintf+0x390>
    3154:	80 37       	cpi	r24, 0x70	; 112
    3156:	19 f0       	breq	.+6      	; 0x315e <vfprintf+0x232>
    3158:	88 37       	cpi	r24, 0x78	; 120
    315a:	21 f0       	breq	.+8      	; 0x3164 <vfprintf+0x238>
    315c:	af c0       	rjmp	.+350    	; 0x32bc <vfprintf+0x390>
    315e:	2f 2f       	mov	r18, r31
    3160:	20 61       	ori	r18, 0x10	; 16
    3162:	b2 2e       	mov	r11, r18
    3164:	b4 fe       	sbrs	r11, 4
    3166:	0d c0       	rjmp	.+26     	; 0x3182 <vfprintf+0x256>
    3168:	8b 2d       	mov	r24, r11
    316a:	84 60       	ori	r24, 0x04	; 4
    316c:	b8 2e       	mov	r11, r24
    316e:	09 c0       	rjmp	.+18     	; 0x3182 <vfprintf+0x256>
    3170:	24 ff       	sbrs	r18, 4
    3172:	0a c0       	rjmp	.+20     	; 0x3188 <vfprintf+0x25c>
    3174:	9f 2f       	mov	r25, r31
    3176:	96 60       	ori	r25, 0x06	; 6
    3178:	b9 2e       	mov	r11, r25
    317a:	06 c0       	rjmp	.+12     	; 0x3188 <vfprintf+0x25c>
    317c:	28 e0       	ldi	r18, 0x08	; 8
    317e:	30 e0       	ldi	r19, 0x00	; 0
    3180:	05 c0       	rjmp	.+10     	; 0x318c <vfprintf+0x260>
    3182:	20 e1       	ldi	r18, 0x10	; 16
    3184:	30 e0       	ldi	r19, 0x00	; 0
    3186:	02 c0       	rjmp	.+4      	; 0x318c <vfprintf+0x260>
    3188:	20 e1       	ldi	r18, 0x10	; 16
    318a:	32 e0       	ldi	r19, 0x02	; 2
    318c:	f8 01       	movw	r30, r16
    318e:	b7 fe       	sbrs	r11, 7
    3190:	07 c0       	rjmp	.+14     	; 0x31a0 <vfprintf+0x274>
    3192:	60 81       	ld	r22, Z
    3194:	71 81       	ldd	r23, Z+1	; 0x01
    3196:	82 81       	ldd	r24, Z+2	; 0x02
    3198:	93 81       	ldd	r25, Z+3	; 0x03
    319a:	0c 5f       	subi	r16, 0xFC	; 252
    319c:	1f 4f       	sbci	r17, 0xFF	; 255
    319e:	06 c0       	rjmp	.+12     	; 0x31ac <vfprintf+0x280>
    31a0:	60 81       	ld	r22, Z
    31a2:	71 81       	ldd	r23, Z+1	; 0x01
    31a4:	80 e0       	ldi	r24, 0x00	; 0
    31a6:	90 e0       	ldi	r25, 0x00	; 0
    31a8:	0e 5f       	subi	r16, 0xFE	; 254
    31aa:	1f 4f       	sbci	r17, 0xFF	; 255
    31ac:	a4 01       	movw	r20, r8
    31ae:	0e 94 e3 19 	call	0x33c6	; 0x33c6 <__ultoa_invert>
    31b2:	a8 2e       	mov	r10, r24
    31b4:	a8 18       	sub	r10, r8
    31b6:	fb 2d       	mov	r31, r11
    31b8:	ff 77       	andi	r31, 0x7F	; 127
    31ba:	bf 2e       	mov	r11, r31
    31bc:	b6 fe       	sbrs	r11, 6
    31be:	0b c0       	rjmp	.+22     	; 0x31d6 <vfprintf+0x2aa>
    31c0:	2b 2d       	mov	r18, r11
    31c2:	2e 7f       	andi	r18, 0xFE	; 254
    31c4:	a5 14       	cp	r10, r5
    31c6:	50 f4       	brcc	.+20     	; 0x31dc <vfprintf+0x2b0>
    31c8:	b4 fe       	sbrs	r11, 4
    31ca:	0a c0       	rjmp	.+20     	; 0x31e0 <vfprintf+0x2b4>
    31cc:	b2 fc       	sbrc	r11, 2
    31ce:	08 c0       	rjmp	.+16     	; 0x31e0 <vfprintf+0x2b4>
    31d0:	2b 2d       	mov	r18, r11
    31d2:	2e 7e       	andi	r18, 0xEE	; 238
    31d4:	05 c0       	rjmp	.+10     	; 0x31e0 <vfprintf+0x2b4>
    31d6:	7a 2c       	mov	r7, r10
    31d8:	2b 2d       	mov	r18, r11
    31da:	03 c0       	rjmp	.+6      	; 0x31e2 <vfprintf+0x2b6>
    31dc:	7a 2c       	mov	r7, r10
    31de:	01 c0       	rjmp	.+2      	; 0x31e2 <vfprintf+0x2b6>
    31e0:	75 2c       	mov	r7, r5
    31e2:	24 ff       	sbrs	r18, 4
    31e4:	0d c0       	rjmp	.+26     	; 0x3200 <vfprintf+0x2d4>
    31e6:	fe 01       	movw	r30, r28
    31e8:	ea 0d       	add	r30, r10
    31ea:	f1 1d       	adc	r31, r1
    31ec:	80 81       	ld	r24, Z
    31ee:	80 33       	cpi	r24, 0x30	; 48
    31f0:	11 f4       	brne	.+4      	; 0x31f6 <vfprintf+0x2ca>
    31f2:	29 7e       	andi	r18, 0xE9	; 233
    31f4:	09 c0       	rjmp	.+18     	; 0x3208 <vfprintf+0x2dc>
    31f6:	22 ff       	sbrs	r18, 2
    31f8:	06 c0       	rjmp	.+12     	; 0x3206 <vfprintf+0x2da>
    31fa:	73 94       	inc	r7
    31fc:	73 94       	inc	r7
    31fe:	04 c0       	rjmp	.+8      	; 0x3208 <vfprintf+0x2dc>
    3200:	82 2f       	mov	r24, r18
    3202:	86 78       	andi	r24, 0x86	; 134
    3204:	09 f0       	breq	.+2      	; 0x3208 <vfprintf+0x2dc>
    3206:	73 94       	inc	r7
    3208:	23 fd       	sbrc	r18, 3
    320a:	13 c0       	rjmp	.+38     	; 0x3232 <vfprintf+0x306>
    320c:	20 ff       	sbrs	r18, 0
    320e:	06 c0       	rjmp	.+12     	; 0x321c <vfprintf+0x2f0>
    3210:	5a 2c       	mov	r5, r10
    3212:	73 14       	cp	r7, r3
    3214:	18 f4       	brcc	.+6      	; 0x321c <vfprintf+0x2f0>
    3216:	53 0c       	add	r5, r3
    3218:	57 18       	sub	r5, r7
    321a:	73 2c       	mov	r7, r3
    321c:	73 14       	cp	r7, r3
    321e:	68 f4       	brcc	.+26     	; 0x323a <vfprintf+0x30e>
    3220:	b7 01       	movw	r22, r14
    3222:	80 e2       	ldi	r24, 0x20	; 32
    3224:	90 e0       	ldi	r25, 0x00	; 0
    3226:	2c 87       	std	Y+12, r18	; 0x0c
    3228:	0e 94 b1 19 	call	0x3362	; 0x3362 <fputc>
    322c:	73 94       	inc	r7
    322e:	2c 85       	ldd	r18, Y+12	; 0x0c
    3230:	f5 cf       	rjmp	.-22     	; 0x321c <vfprintf+0x2f0>
    3232:	73 14       	cp	r7, r3
    3234:	10 f4       	brcc	.+4      	; 0x323a <vfprintf+0x30e>
    3236:	37 18       	sub	r3, r7
    3238:	01 c0       	rjmp	.+2      	; 0x323c <vfprintf+0x310>
    323a:	31 2c       	mov	r3, r1
    323c:	24 ff       	sbrs	r18, 4
    323e:	12 c0       	rjmp	.+36     	; 0x3264 <vfprintf+0x338>
    3240:	b7 01       	movw	r22, r14
    3242:	80 e3       	ldi	r24, 0x30	; 48
    3244:	90 e0       	ldi	r25, 0x00	; 0
    3246:	2c 87       	std	Y+12, r18	; 0x0c
    3248:	0e 94 b1 19 	call	0x3362	; 0x3362 <fputc>
    324c:	2c 85       	ldd	r18, Y+12	; 0x0c
    324e:	22 ff       	sbrs	r18, 2
    3250:	17 c0       	rjmp	.+46     	; 0x3280 <vfprintf+0x354>
    3252:	21 ff       	sbrs	r18, 1
    3254:	03 c0       	rjmp	.+6      	; 0x325c <vfprintf+0x330>
    3256:	88 e5       	ldi	r24, 0x58	; 88
    3258:	90 e0       	ldi	r25, 0x00	; 0
    325a:	02 c0       	rjmp	.+4      	; 0x3260 <vfprintf+0x334>
    325c:	88 e7       	ldi	r24, 0x78	; 120
    325e:	90 e0       	ldi	r25, 0x00	; 0
    3260:	b7 01       	movw	r22, r14
    3262:	0c c0       	rjmp	.+24     	; 0x327c <vfprintf+0x350>
    3264:	82 2f       	mov	r24, r18
    3266:	86 78       	andi	r24, 0x86	; 134
    3268:	59 f0       	breq	.+22     	; 0x3280 <vfprintf+0x354>
    326a:	21 fd       	sbrc	r18, 1
    326c:	02 c0       	rjmp	.+4      	; 0x3272 <vfprintf+0x346>
    326e:	80 e2       	ldi	r24, 0x20	; 32
    3270:	01 c0       	rjmp	.+2      	; 0x3274 <vfprintf+0x348>
    3272:	8b e2       	ldi	r24, 0x2B	; 43
    3274:	27 fd       	sbrc	r18, 7
    3276:	8d e2       	ldi	r24, 0x2D	; 45
    3278:	b7 01       	movw	r22, r14
    327a:	90 e0       	ldi	r25, 0x00	; 0
    327c:	0e 94 b1 19 	call	0x3362	; 0x3362 <fputc>
    3280:	a5 14       	cp	r10, r5
    3282:	38 f4       	brcc	.+14     	; 0x3292 <vfprintf+0x366>
    3284:	b7 01       	movw	r22, r14
    3286:	80 e3       	ldi	r24, 0x30	; 48
    3288:	90 e0       	ldi	r25, 0x00	; 0
    328a:	0e 94 b1 19 	call	0x3362	; 0x3362 <fputc>
    328e:	5a 94       	dec	r5
    3290:	f7 cf       	rjmp	.-18     	; 0x3280 <vfprintf+0x354>
    3292:	aa 94       	dec	r10
    3294:	f4 01       	movw	r30, r8
    3296:	ea 0d       	add	r30, r10
    3298:	f1 1d       	adc	r31, r1
    329a:	80 81       	ld	r24, Z
    329c:	b7 01       	movw	r22, r14
    329e:	90 e0       	ldi	r25, 0x00	; 0
    32a0:	0e 94 b1 19 	call	0x3362	; 0x3362 <fputc>
    32a4:	a1 10       	cpse	r10, r1
    32a6:	f5 cf       	rjmp	.-22     	; 0x3292 <vfprintf+0x366>
    32a8:	33 20       	and	r3, r3
    32aa:	09 f4       	brne	.+2      	; 0x32ae <vfprintf+0x382>
    32ac:	51 ce       	rjmp	.-862    	; 0x2f50 <vfprintf+0x24>
    32ae:	b7 01       	movw	r22, r14
    32b0:	80 e2       	ldi	r24, 0x20	; 32
    32b2:	90 e0       	ldi	r25, 0x00	; 0
    32b4:	0e 94 b1 19 	call	0x3362	; 0x3362 <fputc>
    32b8:	3a 94       	dec	r3
    32ba:	f6 cf       	rjmp	.-20     	; 0x32a8 <vfprintf+0x37c>
    32bc:	f7 01       	movw	r30, r14
    32be:	86 81       	ldd	r24, Z+6	; 0x06
    32c0:	97 81       	ldd	r25, Z+7	; 0x07
    32c2:	02 c0       	rjmp	.+4      	; 0x32c8 <vfprintf+0x39c>
    32c4:	8f ef       	ldi	r24, 0xFF	; 255
    32c6:	9f ef       	ldi	r25, 0xFF	; 255
    32c8:	2c 96       	adiw	r28, 0x0c	; 12
    32ca:	e2 e1       	ldi	r30, 0x12	; 18
    32cc:	0c 94 8f 1a 	jmp	0x351e	; 0x351e <__epilogue_restores__>

000032d0 <calloc>:
    32d0:	0f 93       	push	r16
    32d2:	1f 93       	push	r17
    32d4:	cf 93       	push	r28
    32d6:	df 93       	push	r29
    32d8:	86 9f       	mul	r24, r22
    32da:	80 01       	movw	r16, r0
    32dc:	87 9f       	mul	r24, r23
    32de:	10 0d       	add	r17, r0
    32e0:	96 9f       	mul	r25, r22
    32e2:	10 0d       	add	r17, r0
    32e4:	11 24       	eor	r1, r1
    32e6:	c8 01       	movw	r24, r16
    32e8:	0e 94 45 15 	call	0x2a8a	; 0x2a8a <malloc>
    32ec:	ec 01       	movw	r28, r24
    32ee:	00 97       	sbiw	r24, 0x00	; 0
    32f0:	29 f0       	breq	.+10     	; 0x32fc <calloc+0x2c>
    32f2:	a8 01       	movw	r20, r16
    32f4:	60 e0       	ldi	r22, 0x00	; 0
    32f6:	70 e0       	ldi	r23, 0x00	; 0
    32f8:	0e 94 8f 19 	call	0x331e	; 0x331e <memset>
    32fc:	ce 01       	movw	r24, r28
    32fe:	df 91       	pop	r29
    3300:	cf 91       	pop	r28
    3302:	1f 91       	pop	r17
    3304:	0f 91       	pop	r16
    3306:	08 95       	ret

00003308 <strnlen_P>:
    3308:	fc 01       	movw	r30, r24
    330a:	05 90       	lpm	r0, Z+
    330c:	61 50       	subi	r22, 0x01	; 1
    330e:	70 40       	sbci	r23, 0x00	; 0
    3310:	01 10       	cpse	r0, r1
    3312:	d8 f7       	brcc	.-10     	; 0x330a <strnlen_P+0x2>
    3314:	80 95       	com	r24
    3316:	90 95       	com	r25
    3318:	8e 0f       	add	r24, r30
    331a:	9f 1f       	adc	r25, r31
    331c:	08 95       	ret

0000331e <memset>:
    331e:	dc 01       	movw	r26, r24
    3320:	01 c0       	rjmp	.+2      	; 0x3324 <memset+0x6>
    3322:	6d 93       	st	X+, r22
    3324:	41 50       	subi	r20, 0x01	; 1
    3326:	50 40       	sbci	r21, 0x00	; 0
    3328:	e0 f7       	brcc	.-8      	; 0x3322 <memset+0x4>
    332a:	08 95       	ret

0000332c <strnlen>:
    332c:	fc 01       	movw	r30, r24
    332e:	61 50       	subi	r22, 0x01	; 1
    3330:	70 40       	sbci	r23, 0x00	; 0
    3332:	01 90       	ld	r0, Z+
    3334:	01 10       	cpse	r0, r1
    3336:	d8 f7       	brcc	.-10     	; 0x332e <strnlen+0x2>
    3338:	80 95       	com	r24
    333a:	90 95       	com	r25
    333c:	8e 0f       	add	r24, r30
    333e:	9f 1f       	adc	r25, r31
    3340:	08 95       	ret

00003342 <strrev>:
    3342:	dc 01       	movw	r26, r24
    3344:	fc 01       	movw	r30, r24
    3346:	67 2f       	mov	r22, r23
    3348:	71 91       	ld	r23, Z+
    334a:	77 23       	and	r23, r23
    334c:	e1 f7       	brne	.-8      	; 0x3346 <strrev+0x4>
    334e:	32 97       	sbiw	r30, 0x02	; 2
    3350:	04 c0       	rjmp	.+8      	; 0x335a <strrev+0x18>
    3352:	7c 91       	ld	r23, X
    3354:	6d 93       	st	X+, r22
    3356:	70 83       	st	Z, r23
    3358:	62 91       	ld	r22, -Z
    335a:	ae 17       	cp	r26, r30
    335c:	bf 07       	cpc	r27, r31
    335e:	c8 f3       	brcs	.-14     	; 0x3352 <strrev+0x10>
    3360:	08 95       	ret

00003362 <fputc>:
    3362:	0f 93       	push	r16
    3364:	1f 93       	push	r17
    3366:	cf 93       	push	r28
    3368:	df 93       	push	r29
    336a:	18 2f       	mov	r17, r24
    336c:	09 2f       	mov	r16, r25
    336e:	eb 01       	movw	r28, r22
    3370:	8b 81       	ldd	r24, Y+3	; 0x03
    3372:	81 fd       	sbrc	r24, 1
    3374:	03 c0       	rjmp	.+6      	; 0x337c <fputc+0x1a>
    3376:	8f ef       	ldi	r24, 0xFF	; 255
    3378:	9f ef       	ldi	r25, 0xFF	; 255
    337a:	20 c0       	rjmp	.+64     	; 0x33bc <fputc+0x5a>
    337c:	82 ff       	sbrs	r24, 2
    337e:	10 c0       	rjmp	.+32     	; 0x33a0 <fputc+0x3e>
    3380:	4e 81       	ldd	r20, Y+6	; 0x06
    3382:	5f 81       	ldd	r21, Y+7	; 0x07
    3384:	2c 81       	ldd	r18, Y+4	; 0x04
    3386:	3d 81       	ldd	r19, Y+5	; 0x05
    3388:	42 17       	cp	r20, r18
    338a:	53 07       	cpc	r21, r19
    338c:	7c f4       	brge	.+30     	; 0x33ac <fputc+0x4a>
    338e:	e8 81       	ld	r30, Y
    3390:	f9 81       	ldd	r31, Y+1	; 0x01
    3392:	9f 01       	movw	r18, r30
    3394:	2f 5f       	subi	r18, 0xFF	; 255
    3396:	3f 4f       	sbci	r19, 0xFF	; 255
    3398:	39 83       	std	Y+1, r19	; 0x01
    339a:	28 83       	st	Y, r18
    339c:	10 83       	st	Z, r17
    339e:	06 c0       	rjmp	.+12     	; 0x33ac <fputc+0x4a>
    33a0:	e8 85       	ldd	r30, Y+8	; 0x08
    33a2:	f9 85       	ldd	r31, Y+9	; 0x09
    33a4:	81 2f       	mov	r24, r17
    33a6:	09 95       	icall
    33a8:	89 2b       	or	r24, r25
    33aa:	29 f7       	brne	.-54     	; 0x3376 <fputc+0x14>
    33ac:	2e 81       	ldd	r18, Y+6	; 0x06
    33ae:	3f 81       	ldd	r19, Y+7	; 0x07
    33b0:	2f 5f       	subi	r18, 0xFF	; 255
    33b2:	3f 4f       	sbci	r19, 0xFF	; 255
    33b4:	3f 83       	std	Y+7, r19	; 0x07
    33b6:	2e 83       	std	Y+6, r18	; 0x06
    33b8:	81 2f       	mov	r24, r17
    33ba:	90 2f       	mov	r25, r16
    33bc:	df 91       	pop	r29
    33be:	cf 91       	pop	r28
    33c0:	1f 91       	pop	r17
    33c2:	0f 91       	pop	r16
    33c4:	08 95       	ret

000033c6 <__ultoa_invert>:
    33c6:	fa 01       	movw	r30, r20
    33c8:	aa 27       	eor	r26, r26
    33ca:	28 30       	cpi	r18, 0x08	; 8
    33cc:	51 f1       	breq	.+84     	; 0x3422 <__ultoa_invert+0x5c>
    33ce:	20 31       	cpi	r18, 0x10	; 16
    33d0:	81 f1       	breq	.+96     	; 0x3432 <__ultoa_invert+0x6c>
    33d2:	e8 94       	clt
    33d4:	6f 93       	push	r22
    33d6:	6e 7f       	andi	r22, 0xFE	; 254
    33d8:	6e 5f       	subi	r22, 0xFE	; 254
    33da:	7f 4f       	sbci	r23, 0xFF	; 255
    33dc:	8f 4f       	sbci	r24, 0xFF	; 255
    33de:	9f 4f       	sbci	r25, 0xFF	; 255
    33e0:	af 4f       	sbci	r26, 0xFF	; 255
    33e2:	b1 e0       	ldi	r27, 0x01	; 1
    33e4:	3e d0       	rcall	.+124    	; 0x3462 <__ultoa_invert+0x9c>
    33e6:	b4 e0       	ldi	r27, 0x04	; 4
    33e8:	3c d0       	rcall	.+120    	; 0x3462 <__ultoa_invert+0x9c>
    33ea:	67 0f       	add	r22, r23
    33ec:	78 1f       	adc	r23, r24
    33ee:	89 1f       	adc	r24, r25
    33f0:	9a 1f       	adc	r25, r26
    33f2:	a1 1d       	adc	r26, r1
    33f4:	68 0f       	add	r22, r24
    33f6:	79 1f       	adc	r23, r25
    33f8:	8a 1f       	adc	r24, r26
    33fa:	91 1d       	adc	r25, r1
    33fc:	a1 1d       	adc	r26, r1
    33fe:	6a 0f       	add	r22, r26
    3400:	71 1d       	adc	r23, r1
    3402:	81 1d       	adc	r24, r1
    3404:	91 1d       	adc	r25, r1
    3406:	a1 1d       	adc	r26, r1
    3408:	20 d0       	rcall	.+64     	; 0x344a <__ultoa_invert+0x84>
    340a:	09 f4       	brne	.+2      	; 0x340e <__ultoa_invert+0x48>
    340c:	68 94       	set
    340e:	3f 91       	pop	r19
    3410:	2a e0       	ldi	r18, 0x0A	; 10
    3412:	26 9f       	mul	r18, r22
    3414:	11 24       	eor	r1, r1
    3416:	30 19       	sub	r19, r0
    3418:	30 5d       	subi	r19, 0xD0	; 208
    341a:	31 93       	st	Z+, r19
    341c:	de f6       	brtc	.-74     	; 0x33d4 <__ultoa_invert+0xe>
    341e:	cf 01       	movw	r24, r30
    3420:	08 95       	ret
    3422:	46 2f       	mov	r20, r22
    3424:	47 70       	andi	r20, 0x07	; 7
    3426:	40 5d       	subi	r20, 0xD0	; 208
    3428:	41 93       	st	Z+, r20
    342a:	b3 e0       	ldi	r27, 0x03	; 3
    342c:	0f d0       	rcall	.+30     	; 0x344c <__ultoa_invert+0x86>
    342e:	c9 f7       	brne	.-14     	; 0x3422 <__ultoa_invert+0x5c>
    3430:	f6 cf       	rjmp	.-20     	; 0x341e <__ultoa_invert+0x58>
    3432:	46 2f       	mov	r20, r22
    3434:	4f 70       	andi	r20, 0x0F	; 15
    3436:	40 5d       	subi	r20, 0xD0	; 208
    3438:	4a 33       	cpi	r20, 0x3A	; 58
    343a:	18 f0       	brcs	.+6      	; 0x3442 <__ultoa_invert+0x7c>
    343c:	49 5d       	subi	r20, 0xD9	; 217
    343e:	31 fd       	sbrc	r19, 1
    3440:	40 52       	subi	r20, 0x20	; 32
    3442:	41 93       	st	Z+, r20
    3444:	02 d0       	rcall	.+4      	; 0x344a <__ultoa_invert+0x84>
    3446:	a9 f7       	brne	.-22     	; 0x3432 <__ultoa_invert+0x6c>
    3448:	ea cf       	rjmp	.-44     	; 0x341e <__ultoa_invert+0x58>
    344a:	b4 e0       	ldi	r27, 0x04	; 4
    344c:	a6 95       	lsr	r26
    344e:	97 95       	ror	r25
    3450:	87 95       	ror	r24
    3452:	77 95       	ror	r23
    3454:	67 95       	ror	r22
    3456:	ba 95       	dec	r27
    3458:	c9 f7       	brne	.-14     	; 0x344c <__ultoa_invert+0x86>
    345a:	00 97       	sbiw	r24, 0x00	; 0
    345c:	61 05       	cpc	r22, r1
    345e:	71 05       	cpc	r23, r1
    3460:	08 95       	ret
    3462:	9b 01       	movw	r18, r22
    3464:	ac 01       	movw	r20, r24
    3466:	0a 2e       	mov	r0, r26
    3468:	06 94       	lsr	r0
    346a:	57 95       	ror	r21
    346c:	47 95       	ror	r20
    346e:	37 95       	ror	r19
    3470:	27 95       	ror	r18
    3472:	ba 95       	dec	r27
    3474:	c9 f7       	brne	.-14     	; 0x3468 <__ultoa_invert+0xa2>
    3476:	62 0f       	add	r22, r18
    3478:	73 1f       	adc	r23, r19
    347a:	84 1f       	adc	r24, r20
    347c:	95 1f       	adc	r25, r21
    347e:	a0 1d       	adc	r26, r0
    3480:	08 95       	ret

00003482 <__divmodsi4>:
    3482:	05 2e       	mov	r0, r21
    3484:	97 fb       	bst	r25, 7
    3486:	1e f4       	brtc	.+6      	; 0x348e <__divmodsi4+0xc>
    3488:	00 94       	com	r0
    348a:	0e 94 58 1a 	call	0x34b0	; 0x34b0 <__negsi2>
    348e:	57 fd       	sbrc	r21, 7
    3490:	07 d0       	rcall	.+14     	; 0x34a0 <__divmodsi4_neg2>
    3492:	0e 94 aa 1a 	call	0x3554	; 0x3554 <__udivmodsi4>
    3496:	07 fc       	sbrc	r0, 7
    3498:	03 d0       	rcall	.+6      	; 0x34a0 <__divmodsi4_neg2>
    349a:	4e f4       	brtc	.+18     	; 0x34ae <__divmodsi4_exit>
    349c:	0c 94 58 1a 	jmp	0x34b0	; 0x34b0 <__negsi2>

000034a0 <__divmodsi4_neg2>:
    34a0:	50 95       	com	r21
    34a2:	40 95       	com	r20
    34a4:	30 95       	com	r19
    34a6:	21 95       	neg	r18
    34a8:	3f 4f       	sbci	r19, 0xFF	; 255
    34aa:	4f 4f       	sbci	r20, 0xFF	; 255
    34ac:	5f 4f       	sbci	r21, 0xFF	; 255

000034ae <__divmodsi4_exit>:
    34ae:	08 95       	ret

000034b0 <__negsi2>:
    34b0:	90 95       	com	r25
    34b2:	80 95       	com	r24
    34b4:	70 95       	com	r23
    34b6:	61 95       	neg	r22
    34b8:	7f 4f       	sbci	r23, 0xFF	; 255
    34ba:	8f 4f       	sbci	r24, 0xFF	; 255
    34bc:	9f 4f       	sbci	r25, 0xFF	; 255
    34be:	08 95       	ret

000034c0 <__muluhisi3>:
    34c0:	0e 94 cc 1a 	call	0x3598	; 0x3598 <__umulhisi3>
    34c4:	a5 9f       	mul	r26, r21
    34c6:	90 0d       	add	r25, r0
    34c8:	b4 9f       	mul	r27, r20
    34ca:	90 0d       	add	r25, r0
    34cc:	a4 9f       	mul	r26, r20
    34ce:	80 0d       	add	r24, r0
    34d0:	91 1d       	adc	r25, r1
    34d2:	11 24       	eor	r1, r1
    34d4:	08 95       	ret

000034d6 <__mulshisi3>:
    34d6:	b7 ff       	sbrs	r27, 7
    34d8:	0c 94 60 1a 	jmp	0x34c0	; 0x34c0 <__muluhisi3>

000034dc <__mulohisi3>:
    34dc:	0e 94 60 1a 	call	0x34c0	; 0x34c0 <__muluhisi3>
    34e0:	82 1b       	sub	r24, r18
    34e2:	93 0b       	sbc	r25, r19
    34e4:	08 95       	ret

000034e6 <__prologue_saves__>:
    34e6:	2f 92       	push	r2
    34e8:	3f 92       	push	r3
    34ea:	4f 92       	push	r4
    34ec:	5f 92       	push	r5
    34ee:	6f 92       	push	r6
    34f0:	7f 92       	push	r7
    34f2:	8f 92       	push	r8
    34f4:	9f 92       	push	r9
    34f6:	af 92       	push	r10
    34f8:	bf 92       	push	r11
    34fa:	cf 92       	push	r12
    34fc:	df 92       	push	r13
    34fe:	ef 92       	push	r14
    3500:	ff 92       	push	r15
    3502:	0f 93       	push	r16
    3504:	1f 93       	push	r17
    3506:	cf 93       	push	r28
    3508:	df 93       	push	r29
    350a:	cd b7       	in	r28, 0x3d	; 61
    350c:	de b7       	in	r29, 0x3e	; 62
    350e:	ca 1b       	sub	r28, r26
    3510:	db 0b       	sbc	r29, r27
    3512:	0f b6       	in	r0, 0x3f	; 63
    3514:	f8 94       	cli
    3516:	de bf       	out	0x3e, r29	; 62
    3518:	0f be       	out	0x3f, r0	; 63
    351a:	cd bf       	out	0x3d, r28	; 61
    351c:	09 94       	ijmp

0000351e <__epilogue_restores__>:
    351e:	2a 88       	ldd	r2, Y+18	; 0x12
    3520:	39 88       	ldd	r3, Y+17	; 0x11
    3522:	48 88       	ldd	r4, Y+16	; 0x10
    3524:	5f 84       	ldd	r5, Y+15	; 0x0f
    3526:	6e 84       	ldd	r6, Y+14	; 0x0e
    3528:	7d 84       	ldd	r7, Y+13	; 0x0d
    352a:	8c 84       	ldd	r8, Y+12	; 0x0c
    352c:	9b 84       	ldd	r9, Y+11	; 0x0b
    352e:	aa 84       	ldd	r10, Y+10	; 0x0a
    3530:	b9 84       	ldd	r11, Y+9	; 0x09
    3532:	c8 84       	ldd	r12, Y+8	; 0x08
    3534:	df 80       	ldd	r13, Y+7	; 0x07
    3536:	ee 80       	ldd	r14, Y+6	; 0x06
    3538:	fd 80       	ldd	r15, Y+5	; 0x05
    353a:	0c 81       	ldd	r16, Y+4	; 0x04
    353c:	1b 81       	ldd	r17, Y+3	; 0x03
    353e:	aa 81       	ldd	r26, Y+2	; 0x02
    3540:	b9 81       	ldd	r27, Y+1	; 0x01
    3542:	ce 0f       	add	r28, r30
    3544:	d1 1d       	adc	r29, r1
    3546:	0f b6       	in	r0, 0x3f	; 63
    3548:	f8 94       	cli
    354a:	de bf       	out	0x3e, r29	; 62
    354c:	0f be       	out	0x3f, r0	; 63
    354e:	cd bf       	out	0x3d, r28	; 61
    3550:	ed 01       	movw	r28, r26
    3552:	08 95       	ret

00003554 <__udivmodsi4>:
    3554:	a1 e2       	ldi	r26, 0x21	; 33
    3556:	1a 2e       	mov	r1, r26
    3558:	aa 1b       	sub	r26, r26
    355a:	bb 1b       	sub	r27, r27
    355c:	fd 01       	movw	r30, r26
    355e:	0d c0       	rjmp	.+26     	; 0x357a <__udivmodsi4_ep>

00003560 <__udivmodsi4_loop>:
    3560:	aa 1f       	adc	r26, r26
    3562:	bb 1f       	adc	r27, r27
    3564:	ee 1f       	adc	r30, r30
    3566:	ff 1f       	adc	r31, r31
    3568:	a2 17       	cp	r26, r18
    356a:	b3 07       	cpc	r27, r19
    356c:	e4 07       	cpc	r30, r20
    356e:	f5 07       	cpc	r31, r21
    3570:	20 f0       	brcs	.+8      	; 0x357a <__udivmodsi4_ep>
    3572:	a2 1b       	sub	r26, r18
    3574:	b3 0b       	sbc	r27, r19
    3576:	e4 0b       	sbc	r30, r20
    3578:	f5 0b       	sbc	r31, r21

0000357a <__udivmodsi4_ep>:
    357a:	66 1f       	adc	r22, r22
    357c:	77 1f       	adc	r23, r23
    357e:	88 1f       	adc	r24, r24
    3580:	99 1f       	adc	r25, r25
    3582:	1a 94       	dec	r1
    3584:	69 f7       	brne	.-38     	; 0x3560 <__udivmodsi4_loop>
    3586:	60 95       	com	r22
    3588:	70 95       	com	r23
    358a:	80 95       	com	r24
    358c:	90 95       	com	r25
    358e:	9b 01       	movw	r18, r22
    3590:	ac 01       	movw	r20, r24
    3592:	bd 01       	movw	r22, r26
    3594:	cf 01       	movw	r24, r30
    3596:	08 95       	ret

00003598 <__umulhisi3>:
    3598:	a2 9f       	mul	r26, r18
    359a:	b0 01       	movw	r22, r0
    359c:	b3 9f       	mul	r27, r19
    359e:	c0 01       	movw	r24, r0
    35a0:	a3 9f       	mul	r26, r19
    35a2:	70 0d       	add	r23, r0
    35a4:	81 1d       	adc	r24, r1
    35a6:	11 24       	eor	r1, r1
    35a8:	91 1d       	adc	r25, r1
    35aa:	b2 9f       	mul	r27, r18
    35ac:	70 0d       	add	r23, r0
    35ae:	81 1d       	adc	r24, r1
    35b0:	11 24       	eor	r1, r1
    35b2:	91 1d       	adc	r25, r1
    35b4:	08 95       	ret

000035b6 <_exit>:
    35b6:	f8 94       	cli

000035b8 <__stop_program>:
    35b8:	ff cf       	rjmp	.-2      	; 0x35b8 <__stop_program>
