
Byggern_node1.elf:     file format elf32-avr

Sections:
Idx Name          Size      VMA       LMA       File off  Algn
  0 .data         00000224  00800100  00002312  000023a6  2**0
                  CONTENTS, ALLOC, LOAD, DATA
  1 .text         00002312  00000000  00000000  00000094  2**1
                  CONTENTS, ALLOC, LOAD, READONLY, CODE
  2 .bss          00000018  00800324  00800324  000025ca  2**0
                  ALLOC
  3 .comment      0000005c  00000000  00000000  000025ca  2**0
                  CONTENTS, READONLY
  4 .debug_aranges 00000320  00000000  00000000  00002626  2**0
                  CONTENTS, READONLY, DEBUGGING
  5 .debug_info   00002efa  00000000  00000000  00002946  2**0
                  CONTENTS, READONLY, DEBUGGING
  6 .debug_abbrev 00001064  00000000  00000000  00005840  2**0
                  CONTENTS, READONLY, DEBUGGING
  7 .debug_line   00000e23  00000000  00000000  000068a4  2**0
                  CONTENTS, READONLY, DEBUGGING
  8 .debug_frame  00000788  00000000  00000000  000076c8  2**2
                  CONTENTS, READONLY, DEBUGGING
  9 .debug_str    0000098c  00000000  00000000  00007e50  2**0
                  CONTENTS, READONLY, DEBUGGING
 10 .debug_loc    00001546  00000000  00000000  000087dc  2**0
                  CONTENTS, READONLY, DEBUGGING
 11 .debug_ranges 000002c8  00000000  00000000  00009d22  2**0
                  CONTENTS, READONLY, DEBUGGING

Disassembly of section .text:

00000000 <__vectors>:
       0:	0c 94 b4 01 	jmp	0x368	; 0x368 <__ctors_end>
       4:	0c 94 d1 01 	jmp	0x3a2	; 0x3a2 <__bad_interrupt>
       8:	0c 94 9e 02 	jmp	0x53c	; 0x53c <__vector_2>
       c:	0c 94 d1 01 	jmp	0x3a2	; 0x3a2 <__bad_interrupt>
      10:	0c 94 d1 01 	jmp	0x3a2	; 0x3a2 <__bad_interrupt>
      14:	0c 94 d1 01 	jmp	0x3a2	; 0x3a2 <__bad_interrupt>
      18:	0c 94 d1 01 	jmp	0x3a2	; 0x3a2 <__bad_interrupt>
      1c:	0c 94 d1 01 	jmp	0x3a2	; 0x3a2 <__bad_interrupt>
      20:	0c 94 d1 01 	jmp	0x3a2	; 0x3a2 <__bad_interrupt>
      24:	0c 94 d1 01 	jmp	0x3a2	; 0x3a2 <__bad_interrupt>
      28:	0c 94 d1 01 	jmp	0x3a2	; 0x3a2 <__bad_interrupt>
      2c:	0c 94 d1 01 	jmp	0x3a2	; 0x3a2 <__bad_interrupt>
      30:	0c 94 d1 01 	jmp	0x3a2	; 0x3a2 <__bad_interrupt>
      34:	0c 94 d1 01 	jmp	0x3a2	; 0x3a2 <__bad_interrupt>
      38:	0c 94 d1 01 	jmp	0x3a2	; 0x3a2 <__bad_interrupt>
      3c:	0c 94 d1 01 	jmp	0x3a2	; 0x3a2 <__bad_interrupt>
      40:	0c 94 d1 01 	jmp	0x3a2	; 0x3a2 <__bad_interrupt>
      44:	0c 94 d1 01 	jmp	0x3a2	; 0x3a2 <__bad_interrupt>
      48:	0c 94 d1 01 	jmp	0x3a2	; 0x3a2 <__bad_interrupt>
      4c:	0c 94 d1 01 	jmp	0x3a2	; 0x3a2 <__bad_interrupt>
      50:	0c 94 d1 01 	jmp	0x3a2	; 0x3a2 <__bad_interrupt>
      54:	0c 94 d1 01 	jmp	0x3a2	; 0x3a2 <__bad_interrupt>
      58:	0c 94 d1 01 	jmp	0x3a2	; 0x3a2 <__bad_interrupt>
      5c:	0c 94 d1 01 	jmp	0x3a2	; 0x3a2 <__bad_interrupt>
      60:	0c 94 d1 01 	jmp	0x3a2	; 0x3a2 <__bad_interrupt>
      64:	0c 94 d1 01 	jmp	0x3a2	; 0x3a2 <__bad_interrupt>
      68:	0c 94 d1 01 	jmp	0x3a2	; 0x3a2 <__bad_interrupt>
      6c:	0c 94 d1 01 	jmp	0x3a2	; 0x3a2 <__bad_interrupt>

00000070 <__trampolines_end>:
	...
      78:	00 06       	cpc	r0, r16
      7a:	5f 5f       	subi	r21, 0xFF	; 255
      7c:	06 00       	.word	0x0006	; ????
      7e:	00 00       	nop
      80:	00 07       	cpc	r16, r16
      82:	07 00       	.word	0x0007	; ????
      84:	07 07       	cpc	r16, r23
      86:	00 00       	nop
      88:	14 7f       	andi	r17, 0xF4	; 244
      8a:	7f 14       	cp	r7, r15
      8c:	7f 7f       	andi	r23, 0xFF	; 255
      8e:	14 00       	.word	0x0014	; ????
      90:	24 2e       	mov	r2, r20
      92:	6b 6b       	ori	r22, 0xBB	; 187
      94:	3a 12       	cpse	r3, r26
      96:	00 00       	nop
      98:	46 66       	ori	r20, 0x66	; 102
      9a:	30 18       	sub	r3, r0
      9c:	0c 66       	ori	r16, 0x6C	; 108
      9e:	62 00       	.word	0x0062	; ????
      a0:	30 7a       	andi	r19, 0xA0	; 160
      a2:	4f 5d       	subi	r20, 0xDF	; 223
      a4:	37 7a       	andi	r19, 0xA7	; 167
      a6:	48 00       	.word	0x0048	; ????
      a8:	04 07       	cpc	r16, r20
      aa:	03 00       	.word	0x0003	; ????
      ac:	00 00       	nop
      ae:	00 00       	nop
      b0:	00 1c       	adc	r0, r0
      b2:	3e 63       	ori	r19, 0x3E	; 62
      b4:	41 00       	.word	0x0041	; ????
      b6:	00 00       	nop
      b8:	00 41       	sbci	r16, 0x10	; 16
      ba:	63 3e       	cpi	r22, 0xE3	; 227
      bc:	1c 00       	.word	0x001c	; ????
      be:	00 00       	nop
      c0:	08 2a       	or	r0, r24
      c2:	3e 1c       	adc	r3, r14
      c4:	1c 3e       	cpi	r17, 0xEC	; 236
      c6:	2a 08       	sbc	r2, r10
      c8:	08 08       	sbc	r0, r8
      ca:	3e 3e       	cpi	r19, 0xEE	; 238
      cc:	08 08       	sbc	r0, r8
      ce:	00 00       	nop
      d0:	00 a0       	ldd	r0, Z+32	; 0x20
      d2:	e0 60       	ori	r30, 0x00	; 0
      d4:	00 00       	nop
      d6:	00 00       	nop
      d8:	08 08       	sbc	r0, r8
      da:	08 08       	sbc	r0, r8
      dc:	08 08       	sbc	r0, r8
      de:	00 00       	nop
      e0:	00 00       	nop
      e2:	60 60       	ori	r22, 0x00	; 0
      e4:	00 00       	nop
      e6:	00 00       	nop
      e8:	60 30       	cpi	r22, 0x00	; 0
      ea:	18 0c       	add	r1, r8
      ec:	06 03       	mulsu	r16, r22
      ee:	01 00       	.word	0x0001	; ????
      f0:	3e 7f       	andi	r19, 0xFE	; 254
      f2:	59 4d       	sbci	r21, 0xD9	; 217
      f4:	7f 3e       	cpi	r23, 0xEF	; 239
      f6:	00 00       	nop
      f8:	42 42       	sbci	r20, 0x22	; 34
      fa:	7f 7f       	andi	r23, 0xFF	; 255
      fc:	40 40       	sbci	r20, 0x00	; 0
      fe:	00 00       	nop
     100:	62 73       	andi	r22, 0x32	; 50
     102:	59 49       	sbci	r21, 0x99	; 153
     104:	6f 66       	ori	r22, 0x6F	; 111
     106:	00 00       	nop
     108:	22 63       	ori	r18, 0x32	; 50
     10a:	49 49       	sbci	r20, 0x99	; 153
     10c:	7f 36       	cpi	r23, 0x6F	; 111
     10e:	00 00       	nop
     110:	18 1c       	adc	r1, r8
     112:	16 13       	cpse	r17, r22
     114:	7f 7f       	andi	r23, 0xFF	; 255
     116:	10 00       	.word	0x0010	; ????
     118:	27 67       	ori	r18, 0x77	; 119
     11a:	45 45       	sbci	r20, 0x55	; 85
     11c:	7d 39       	cpi	r23, 0x9D	; 157
     11e:	00 00       	nop
     120:	3c 7e       	andi	r19, 0xEC	; 236
     122:	4b 49       	sbci	r20, 0x9B	; 155
     124:	79 30       	cpi	r23, 0x09	; 9
     126:	00 00       	nop
     128:	03 63       	ori	r16, 0x33	; 51
     12a:	71 19       	sub	r23, r1
     12c:	0f 07       	cpc	r16, r31
     12e:	00 00       	nop
     130:	36 7f       	andi	r19, 0xF6	; 246
     132:	49 49       	sbci	r20, 0x99	; 153
     134:	7f 36       	cpi	r23, 0x6F	; 111
     136:	00 00       	nop
     138:	06 4f       	sbci	r16, 0xF6	; 246
     13a:	49 69       	ori	r20, 0x99	; 153
     13c:	3f 1e       	adc	r3, r31
     13e:	00 00       	nop
     140:	00 00       	nop
     142:	6c 6c       	ori	r22, 0xCC	; 204
     144:	00 00       	nop
     146:	00 00       	nop
     148:	00 a0       	ldd	r0, Z+32	; 0x20
     14a:	ec 6c       	ori	r30, 0xCC	; 204
     14c:	00 00       	nop
     14e:	00 00       	nop
     150:	08 1c       	adc	r0, r8
     152:	36 63       	ori	r19, 0x36	; 54
     154:	41 00       	.word	0x0041	; ????
     156:	00 00       	nop
     158:	14 14       	cp	r1, r4
     15a:	14 14       	cp	r1, r4
     15c:	14 14       	cp	r1, r4
     15e:	00 00       	nop
     160:	00 41       	sbci	r16, 0x10	; 16
     162:	63 36       	cpi	r22, 0x63	; 99
     164:	1c 08       	sbc	r1, r12
     166:	00 00       	nop
     168:	02 03       	mulsu	r16, r18
     16a:	51 59       	subi	r21, 0x91	; 145
     16c:	0f 06       	cpc	r0, r31
     16e:	00 00       	nop
     170:	3e 7f       	andi	r19, 0xFE	; 254
     172:	41 5d       	subi	r20, 0xD1	; 209
     174:	5d 1f       	adc	r21, r29
     176:	1e 00       	.word	0x001e	; ????
     178:	7c 7e       	andi	r23, 0xEC	; 236
     17a:	13 13       	cpse	r17, r19
     17c:	7e 7c       	andi	r23, 0xCE	; 206
     17e:	00 00       	nop
     180:	41 7f       	andi	r20, 0xF1	; 241
     182:	7f 49       	sbci	r23, 0x9F	; 159
     184:	49 7f       	andi	r20, 0xF9	; 249
     186:	36 00       	.word	0x0036	; ????
     188:	1c 3e       	cpi	r17, 0xEC	; 236
     18a:	63 41       	sbci	r22, 0x13	; 19
     18c:	41 63       	ori	r20, 0x31	; 49
     18e:	22 00       	.word	0x0022	; ????
     190:	41 7f       	andi	r20, 0xF1	; 241
     192:	7f 41       	sbci	r23, 0x1F	; 31
     194:	63 7f       	andi	r22, 0xF3	; 243
     196:	1c 00       	.word	0x001c	; ????
     198:	41 7f       	andi	r20, 0xF1	; 241
     19a:	7f 49       	sbci	r23, 0x9F	; 159
     19c:	5d 41       	sbci	r21, 0x1D	; 29
     19e:	63 00       	.word	0x0063	; ????
     1a0:	41 7f       	andi	r20, 0xF1	; 241
     1a2:	7f 49       	sbci	r23, 0x9F	; 159
     1a4:	1d 01       	movw	r2, r26
     1a6:	03 00       	.word	0x0003	; ????
     1a8:	1c 3e       	cpi	r17, 0xEC	; 236
     1aa:	63 41       	sbci	r22, 0x13	; 19
     1ac:	51 73       	andi	r21, 0x31	; 49
     1ae:	72 00       	.word	0x0072	; ????
     1b0:	7f 7f       	andi	r23, 0xFF	; 255
     1b2:	08 08       	sbc	r0, r8
     1b4:	7f 7f       	andi	r23, 0xFF	; 255
     1b6:	00 00       	nop
     1b8:	00 41       	sbci	r16, 0x10	; 16
     1ba:	7f 7f       	andi	r23, 0xFF	; 255
     1bc:	41 00       	.word	0x0041	; ????
     1be:	00 00       	nop
     1c0:	30 70       	andi	r19, 0x00	; 0
     1c2:	40 41       	sbci	r20, 0x10	; 16
     1c4:	7f 3f       	cpi	r23, 0xFF	; 255
     1c6:	01 00       	.word	0x0001	; ????
     1c8:	41 7f       	andi	r20, 0xF1	; 241
     1ca:	7f 08       	sbc	r7, r15
     1cc:	1c 77       	andi	r17, 0x7C	; 124
     1ce:	63 00       	.word	0x0063	; ????
     1d0:	41 7f       	andi	r20, 0xF1	; 241
     1d2:	7f 41       	sbci	r23, 0x1F	; 31
     1d4:	40 60       	ori	r20, 0x00	; 0
     1d6:	70 00       	.word	0x0070	; ????
     1d8:	7f 7f       	andi	r23, 0xFF	; 255
     1da:	06 0c       	add	r0, r6
     1dc:	06 7f       	andi	r16, 0xF6	; 246
     1de:	7f 00       	.word	0x007f	; ????
     1e0:	7f 7f       	andi	r23, 0xFF	; 255
     1e2:	06 0c       	add	r0, r6
     1e4:	18 7f       	andi	r17, 0xF8	; 248
     1e6:	7f 00       	.word	0x007f	; ????
     1e8:	1c 3e       	cpi	r17, 0xEC	; 236
     1ea:	63 41       	sbci	r22, 0x13	; 19
     1ec:	63 3e       	cpi	r22, 0xE3	; 227
     1ee:	1c 00       	.word	0x001c	; ????
     1f0:	41 7f       	andi	r20, 0xF1	; 241
     1f2:	7f 49       	sbci	r23, 0x9F	; 159
     1f4:	09 0f       	add	r16, r25
     1f6:	06 00       	.word	0x0006	; ????
     1f8:	1e 3f       	cpi	r17, 0xFE	; 254
     1fa:	21 71       	andi	r18, 0x11	; 17
     1fc:	7f 5e       	subi	r23, 0xEF	; 239
     1fe:	00 00       	nop
     200:	41 7f       	andi	r20, 0xF1	; 241
     202:	7f 19       	sub	r23, r15
     204:	39 6f       	ori	r19, 0xF9	; 249
     206:	46 00       	.word	0x0046	; ????
     208:	26 67       	ori	r18, 0x76	; 118
     20a:	4d 59       	subi	r20, 0x9D	; 157
     20c:	7b 32       	cpi	r23, 0x2B	; 43
     20e:	00 00       	nop
     210:	03 41       	sbci	r16, 0x13	; 19
     212:	7f 7f       	andi	r23, 0xFF	; 255
     214:	41 03       	mulsu	r20, r17
     216:	00 00       	nop
     218:	7f 7f       	andi	r23, 0xFF	; 255
     21a:	40 40       	sbci	r20, 0x00	; 0
     21c:	7f 7f       	andi	r23, 0xFF	; 255
     21e:	00 00       	nop
     220:	1f 3f       	cpi	r17, 0xFF	; 255
     222:	60 60       	ori	r22, 0x00	; 0
     224:	3f 1f       	adc	r19, r31
     226:	00 00       	nop
     228:	7f 7f       	andi	r23, 0xFF	; 255
     22a:	30 18       	sub	r3, r0
     22c:	30 7f       	andi	r19, 0xF0	; 240
     22e:	7f 00       	.word	0x007f	; ????
     230:	63 77       	andi	r22, 0x73	; 115
     232:	1c 08       	sbc	r1, r12
     234:	1c 77       	andi	r17, 0x7C	; 124
     236:	63 00       	.word	0x0063	; ????
     238:	07 4f       	sbci	r16, 0xF7	; 247
     23a:	78 78       	andi	r23, 0x88	; 136
     23c:	4f 07       	cpc	r20, r31
     23e:	00 00       	nop
     240:	67 73       	andi	r22, 0x37	; 55
     242:	59 4d       	sbci	r21, 0xD9	; 217
     244:	47 63       	ori	r20, 0x37	; 55
     246:	71 00       	.word	0x0071	; ????
     248:	00 7f       	andi	r16, 0xF0	; 240
     24a:	7f 41       	sbci	r23, 0x1F	; 31
     24c:	41 00       	.word	0x0041	; ????
     24e:	00 00       	nop
     250:	01 03       	mulsu	r16, r17
     252:	06 0c       	add	r0, r6
     254:	18 30       	cpi	r17, 0x08	; 8
     256:	60 00       	.word	0x0060	; ????
     258:	00 41       	sbci	r16, 0x10	; 16
     25a:	41 7f       	andi	r20, 0xF1	; 241
     25c:	7f 00       	.word	0x007f	; ????
     25e:	00 00       	nop
     260:	08 0c       	add	r0, r8
     262:	06 03       	mulsu	r16, r22
     264:	06 0c       	add	r0, r6
     266:	08 00       	.word	0x0008	; ????
     268:	80 80       	ld	r8, Z
     26a:	80 80       	ld	r8, Z
     26c:	80 80       	ld	r8, Z
     26e:	80 80       	ld	r8, Z
     270:	00 00       	nop
     272:	03 07       	cpc	r16, r19
     274:	04 00       	.word	0x0004	; ????
     276:	00 00       	nop
     278:	20 74       	andi	r18, 0x40	; 64
     27a:	54 54       	subi	r21, 0x44	; 68
     27c:	3c 78       	andi	r19, 0x8C	; 140
     27e:	40 00       	.word	0x0040	; ????
     280:	41 3f       	cpi	r20, 0xF1	; 241
     282:	7f 44       	sbci	r23, 0x4F	; 79
     284:	44 7c       	andi	r20, 0xC4	; 196
     286:	38 00       	.word	0x0038	; ????
     288:	38 7c       	andi	r19, 0xC8	; 200
     28a:	44 44       	sbci	r20, 0x44	; 68
     28c:	6c 28       	or	r6, r12
     28e:	00 00       	nop
     290:	30 78       	andi	r19, 0x80	; 128
     292:	48 49       	sbci	r20, 0x98	; 152
     294:	3f 7f       	andi	r19, 0xFF	; 255
     296:	40 00       	.word	0x0040	; ????
     298:	38 7c       	andi	r19, 0xC8	; 200
     29a:	54 54       	subi	r21, 0x44	; 68
     29c:	5c 18       	sub	r5, r12
     29e:	00 00       	nop
     2a0:	48 7e       	andi	r20, 0xE8	; 232
     2a2:	7f 49       	sbci	r23, 0x9F	; 159
     2a4:	03 02       	muls	r16, r19
     2a6:	00 00       	nop
     2a8:	98 bc       	out	0x28, r9	; 40
     2aa:	a4 a4       	ldd	r10, Z+44	; 0x2c
     2ac:	f8 7c       	andi	r31, 0xC8	; 200
     2ae:	04 00       	.word	0x0004	; ????
     2b0:	41 7f       	andi	r20, 0xF1	; 241
     2b2:	7f 08       	sbc	r7, r15
     2b4:	04 7c       	andi	r16, 0xC4	; 196
     2b6:	78 00       	.word	0x0078	; ????
     2b8:	00 44       	sbci	r16, 0x40	; 64
     2ba:	7d 7d       	andi	r23, 0xDD	; 221
     2bc:	40 00       	.word	0x0040	; ????
     2be:	00 00       	nop
     2c0:	40 c4       	rjmp	.+2176   	; 0xb42 <menu_init+0x1e>
     2c2:	84 fd       	sbrc	r24, 4
     2c4:	7d 00       	.word	0x007d	; ????
     2c6:	00 00       	nop
     2c8:	41 7f       	andi	r20, 0xF1	; 241
     2ca:	7f 10       	cpse	r7, r15
     2cc:	38 6c       	ori	r19, 0xC8	; 200
     2ce:	44 00       	.word	0x0044	; ????
     2d0:	00 41       	sbci	r16, 0x10	; 16
     2d2:	7f 7f       	andi	r23, 0xFF	; 255
     2d4:	40 00       	.word	0x0040	; ????
     2d6:	00 00       	nop
     2d8:	7c 7c       	andi	r23, 0xCC	; 204
     2da:	0c 18       	sub	r0, r12
     2dc:	0c 7c       	andi	r16, 0xCC	; 204
     2de:	78 00       	.word	0x0078	; ????
     2e0:	7c 7c       	andi	r23, 0xCC	; 204
     2e2:	04 04       	cpc	r0, r4
     2e4:	7c 78       	andi	r23, 0x8C	; 140
     2e6:	00 00       	nop
     2e8:	38 7c       	andi	r19, 0xC8	; 200
     2ea:	44 44       	sbci	r20, 0x44	; 68
     2ec:	7c 38       	cpi	r23, 0x8C	; 140
     2ee:	00 00       	nop
     2f0:	84 fc       	sbrc	r8, 4
     2f2:	f8 a4       	ldd	r15, Y+40	; 0x28
     2f4:	24 3c       	cpi	r18, 0xC4	; 196
     2f6:	18 00       	.word	0x0018	; ????
     2f8:	18 3c       	cpi	r17, 0xC8	; 200
     2fa:	24 a4       	ldd	r2, Z+44	; 0x2c
     2fc:	f8 fc       	.word	0xfcf8	; ????
     2fe:	84 00       	.word	0x0084	; ????
     300:	44 7c       	andi	r20, 0xC4	; 196
     302:	78 44       	sbci	r23, 0x48	; 72
     304:	1c 18       	sub	r1, r12
     306:	00 00       	nop
     308:	48 5c       	subi	r20, 0xC8	; 200
     30a:	54 54       	subi	r21, 0x44	; 68
     30c:	74 24       	eor	r7, r4
     30e:	00 00       	nop
     310:	00 04       	cpc	r0, r0
     312:	3e 7f       	andi	r19, 0xFE	; 254
     314:	44 24       	eor	r4, r4
     316:	00 00       	nop
     318:	3c 7c       	andi	r19, 0xCC	; 204
     31a:	40 40       	sbci	r20, 0x00	; 0
     31c:	3c 7c       	andi	r19, 0xCC	; 204
     31e:	40 00       	.word	0x0040	; ????
     320:	1c 3c       	cpi	r17, 0xCC	; 204
     322:	60 60       	ori	r22, 0x00	; 0
     324:	3c 1c       	adc	r3, r12
     326:	00 00       	nop
     328:	3c 7c       	andi	r19, 0xCC	; 204
     32a:	60 30       	cpi	r22, 0x00	; 0
     32c:	60 7c       	andi	r22, 0xC0	; 192
     32e:	3c 00       	.word	0x003c	; ????
     330:	44 6c       	ori	r20, 0xC4	; 196
     332:	38 10       	cpse	r3, r8
     334:	38 6c       	ori	r19, 0xC8	; 200
     336:	44 00       	.word	0x0044	; ????
     338:	9c bc       	out	0x2c, r9	; 44
     33a:	a0 a0       	ldd	r10, Z+32	; 0x20
     33c:	fc 7c       	andi	r31, 0xCC	; 204
     33e:	00 00       	nop
     340:	4c 64       	ori	r20, 0x4C	; 76
     342:	74 5c       	subi	r23, 0xC4	; 196
     344:	4c 64       	ori	r20, 0x4C	; 76
     346:	00 00       	nop
     348:	08 08       	sbc	r0, r8
     34a:	3e 77       	andi	r19, 0x7E	; 126
     34c:	41 41       	sbci	r20, 0x11	; 17
     34e:	00 00       	nop
     350:	00 00       	nop
     352:	00 77       	andi	r16, 0x70	; 112
     354:	77 00       	.word	0x0077	; ????
     356:	00 00       	nop
     358:	41 41       	sbci	r20, 0x11	; 17
     35a:	77 3e       	cpi	r23, 0xE7	; 231
     35c:	08 08       	sbc	r0, r8
     35e:	00 00       	nop
     360:	02 03       	mulsu	r16, r18
     362:	01 03       	mulsu	r16, r17
     364:	02 03       	mulsu	r16, r18
     366:	01 00       	.word	0x0001	; ????

00000368 <__ctors_end>:
     368:	11 24       	eor	r1, r1
     36a:	1f be       	out	0x3f, r1	; 63
     36c:	cf ef       	ldi	r28, 0xFF	; 255
     36e:	d4 e0       	ldi	r29, 0x04	; 4
     370:	de bf       	out	0x3e, r29	; 62
     372:	cd bf       	out	0x3d, r28	; 61

00000374 <__do_copy_data>:
     374:	13 e0       	ldi	r17, 0x03	; 3
     376:	a0 e0       	ldi	r26, 0x00	; 0
     378:	b1 e0       	ldi	r27, 0x01	; 1
     37a:	e2 e1       	ldi	r30, 0x12	; 18
     37c:	f3 e2       	ldi	r31, 0x23	; 35
     37e:	02 c0       	rjmp	.+4      	; 0x384 <__do_copy_data+0x10>
     380:	05 90       	lpm	r0, Z+
     382:	0d 92       	st	X+, r0
     384:	a4 32       	cpi	r26, 0x24	; 36
     386:	b1 07       	cpc	r27, r17
     388:	d9 f7       	brne	.-10     	; 0x380 <__do_copy_data+0xc>

0000038a <__do_clear_bss>:
     38a:	23 e0       	ldi	r18, 0x03	; 3
     38c:	a4 e2       	ldi	r26, 0x24	; 36
     38e:	b3 e0       	ldi	r27, 0x03	; 3
     390:	01 c0       	rjmp	.+2      	; 0x394 <.do_clear_bss_start>

00000392 <.do_clear_bss_loop>:
     392:	1d 92       	st	X+, r1

00000394 <.do_clear_bss_start>:
     394:	ac 33       	cpi	r26, 0x3C	; 60
     396:	b2 07       	cpc	r27, r18
     398:	e1 f7       	brne	.-8      	; 0x392 <.do_clear_bss_loop>
     39a:	0e 94 84 04 	call	0x908	; 0x908 <main>
     39e:	0c 94 87 11 	jmp	0x230e	; 0x230e <_exit>

000003a2 <__bad_interrupt>:
     3a2:	0c 94 00 00 	jmp	0	; 0x0 <__vectors>

000003a6 <setup_ADC>:


void setup_ADC()
{
	// Sett PD2 som input (INT0)
	clear_bit(DDRD,PD2);
     3a6:	8a 98       	cbi	0x11, 2	; 17
     3a8:	08 95       	ret

000003aa <read_ADC>:

uint8_t read_ADC(uint8_t channel)
{
	volatile char *address = (char *) 0x1400; // ADC address space 0x1400 ->
	
	if(channel > 3) return 0; // invalid channel
     3aa:	84 30       	cpi	r24, 0x04	; 4
     3ac:	50 f4       	brcc	.+20     	; 0x3c2 <read_ADC+0x18>
	int x = 0x04 | channel;
     3ae:	84 60       	ori	r24, 0x04	; 4
	address[0] = x; // ch1 = 3, ch2 = 4....
     3b0:	80 93 00 14 	sts	0x1400, r24
	loop_until_bit_is_clear(PIND,PIND2); // Busy wait...
     3b4:	82 99       	sbic	0x10, 2	; 16
     3b6:	fe cf       	rjmp	.-4      	; 0x3b4 <read_ADC+0xa>
	return address[x];
     3b8:	e8 2f       	mov	r30, r24
     3ba:	f0 e0       	ldi	r31, 0x00	; 0
     3bc:	fc 5e       	subi	r31, 0xEC	; 236
     3be:	80 81       	ld	r24, Z
     3c0:	08 95       	ret

uint8_t read_ADC(uint8_t channel)
{
	volatile char *address = (char *) 0x1400; // ADC address space 0x1400 ->
	
	if(channel > 3) return 0; // invalid channel
     3c2:	80 e0       	ldi	r24, 0x00	; 0
	int x = 0x04 | channel;
	address[0] = x; // ch1 = 3, ch2 = 4....
	loop_until_bit_is_clear(PIND,PIND2); // Busy wait...
	return address[x];
	
}
     3c4:	08 95       	ret

000003c6 <can_init>:
uint8_t message_received = FALSE;
uint8_t transmit_complete = FALSE;


uint8_t can_init(){
	mcp_2515_init();
     3c6:	0e 94 69 05 	call	0xad2	; 0xad2 <mcp_2515_init>
	

	// Mask/filter off, no rollover in receive buffer
	mcp_2515_bit_modify(MCP_RXB0CTRL, 0x64, 0x60);
     3ca:	40 e6       	ldi	r20, 0x60	; 96
     3cc:	64 e6       	ldi	r22, 0x64	; 100
     3ce:	80 e6       	ldi	r24, 0x60	; 96
     3d0:	0e 94 30 05 	call	0xa60	; 0xa60 <mcp_2515_bit_modify>
	
	// Interrupt enable when receive buffer 0 is full
	mcp_2515_bit_modify(MCP_CANINTE,0xFF,MCP_RX0IF);
     3d4:	41 e0       	ldi	r20, 0x01	; 1
     3d6:	6f ef       	ldi	r22, 0xFF	; 255
     3d8:	8b e2       	ldi	r24, 0x2B	; 43
     3da:	0e 94 30 05 	call	0xa60	; 0xa60 <mcp_2515_bit_modify>
	
	// Enable interrupt on INT1
	set_bit(GICR,INT1);
     3de:	8b b7       	in	r24, 0x3b	; 59
     3e0:	80 68       	ori	r24, 0x80	; 128
     3e2:	8b bf       	out	0x3b, r24	; 59
	// Interrupt on falling edge INT1
	set_bit(MCUCR,ISC11);
     3e4:	85 b7       	in	r24, 0x35	; 53
     3e6:	88 60       	ori	r24, 0x08	; 8
     3e8:	85 bf       	out	0x35, r24	; 53
	clear_bit(MCUCR,ISC10);
     3ea:	85 b7       	in	r24, 0x35	; 53
     3ec:	8b 7f       	andi	r24, 0xFB	; 251
     3ee:	85 bf       	out	0x35, r24	; 53
	
	// Enable global interrupts
	sei();
     3f0:	78 94       	sei
	return 0;

}
     3f2:	80 e0       	ldi	r24, 0x00	; 0
     3f4:	08 95       	ret

000003f6 <CAN_enable_normal_mode>:
	return mcp_2515_enable_loopback();
}

// Enable normal operation for transmission between node 1 and node 2
uint8_t CAN_enable_normal_mode() {
	return mcp_2515_enable_normal_operation();
     3f6:	0e 94 4a 05 	call	0xa94	; 0xa94 <mcp_2515_enable_normal_operation>
}
     3fa:	08 95       	ret

000003fc <can_receive_message>:
}
/*************************************/
/* RECEIVE AND CONSTRUCT CAN MESSAGE */
/*************************************/

can_message* can_receive_message() {
     3fc:	ef 92       	push	r14
     3fe:	ff 92       	push	r15
     400:	0f 93       	push	r16
     402:	1f 93       	push	r17
     404:	cf 93       	push	r28
     406:	df 93       	push	r29
     408:	cd b7       	in	r28, 0x3d	; 61
     40a:	de b7       	in	r29, 0x3e	; 62
     40c:	2b 97       	sbiw	r28, 0x0b	; 11
     40e:	0f b6       	in	r0, 0x3f	; 63
     410:	f8 94       	cli
     412:	de bf       	out	0x3e, r29	; 62
     414:	0f be       	out	0x3f, r0	; 63
     416:	cd bf       	out	0x3d, r28	; 61
	can_message the_message;
	unsigned int id;
	// Check if received flag was set
	if(message_received) {
     418:	80 91 24 03 	lds	r24, 0x0324
     41c:	88 23       	and	r24, r24
     41e:	59 f1       	breq	.+86     	; 0x476 <can_receive_message+0x7a>
		id = mcp_2515_read(MCP_RXB0SIDH) << 8 | mcp_2515_read(MCP_RXB0SIDL);
     420:	81 e6       	ldi	r24, 0x61	; 97
     422:	0e 94 ff 04 	call	0x9fe	; 0x9fe <mcp_2515_read>
     426:	18 2f       	mov	r17, r24
     428:	82 e6       	ldi	r24, 0x62	; 98
     42a:	0e 94 ff 04 	call	0x9fe	; 0x9fe <mcp_2515_read>
     42e:	21 2f       	mov	r18, r17
     430:	30 e0       	ldi	r19, 0x00	; 0
     432:	32 2f       	mov	r19, r18
     434:	22 27       	eor	r18, r18
     436:	28 2b       	or	r18, r24
		// Mask out lowest 5 bits (only used for extended frames)
		the_message.ID = id & 0xFFE0;
     438:	20 7e       	andi	r18, 0xE0	; 224
     43a:	3a 83       	std	Y+2, r19	; 0x02
     43c:	29 83       	std	Y+1, r18	; 0x01
		the_message.length = mcp_2515_read(MCP_RXB0DLC);
     43e:	85 e6       	ldi	r24, 0x65	; 101
     440:	0e 94 ff 04 	call	0x9fe	; 0x9fe <mcp_2515_read>
     444:	8b 83       	std	Y+3, r24	; 0x03
		for(int i = 0; i < the_message.length; i++) {
     446:	88 23       	and	r24, r24
     448:	a1 f0       	breq	.+40     	; 0x472 <can_receive_message+0x76>
     44a:	7e 01       	movw	r14, r28
     44c:	84 e0       	ldi	r24, 0x04	; 4
     44e:	e8 0e       	add	r14, r24
     450:	f1 1c       	adc	r15, r1
     452:	00 e0       	ldi	r16, 0x00	; 0
     454:	10 e0       	ldi	r17, 0x00	; 0
			the_message.data[i] = mcp_2515_read(MCP_RXB0D+i);
     456:	86 e6       	ldi	r24, 0x66	; 102
     458:	80 0f       	add	r24, r16
     45a:	0e 94 ff 04 	call	0x9fe	; 0x9fe <mcp_2515_read>
     45e:	f7 01       	movw	r30, r14
     460:	81 93       	st	Z+, r24
     462:	7f 01       	movw	r14, r30
	if(message_received) {
		id = mcp_2515_read(MCP_RXB0SIDH) << 8 | mcp_2515_read(MCP_RXB0SIDL);
		// Mask out lowest 5 bits (only used for extended frames)
		the_message.ID = id & 0xFFE0;
		the_message.length = mcp_2515_read(MCP_RXB0DLC);
		for(int i = 0; i < the_message.length; i++) {
     464:	0f 5f       	subi	r16, 0xFF	; 255
     466:	1f 4f       	sbci	r17, 0xFF	; 255
     468:	8b 81       	ldd	r24, Y+3	; 0x03
     46a:	90 e0       	ldi	r25, 0x00	; 0
     46c:	08 17       	cp	r16, r24
     46e:	19 07       	cpc	r17, r25
     470:	94 f3       	brlt	.-28     	; 0x456 <can_receive_message+0x5a>
			the_message.data[i] = mcp_2515_read(MCP_RXB0D+i);
		}
		
		message_received = FALSE;
     472:	10 92 24 03 	sts	0x0324, r1
		// No message in the buffer
		the_message.length = 0;
	}
	return &the_message;
	
}
     476:	ce 01       	movw	r24, r28
     478:	01 96       	adiw	r24, 0x01	; 1
     47a:	2b 96       	adiw	r28, 0x0b	; 11
     47c:	0f b6       	in	r0, 0x3f	; 63
     47e:	f8 94       	cli
     480:	de bf       	out	0x3e, r29	; 62
     482:	0f be       	out	0x3f, r0	; 63
     484:	cd bf       	out	0x3d, r28	; 61
     486:	df 91       	pop	r29
     488:	cf 91       	pop	r28
     48a:	1f 91       	pop	r17
     48c:	0f 91       	pop	r16
     48e:	ff 90       	pop	r15
     490:	ef 90       	pop	r14
     492:	08 95       	ret

00000494 <can_data_received>:

// Check if there is a pending message in the receive buffer
uint8_t can_data_received(){
	return message_received;
}
     494:	80 91 24 03 	lds	r24, 0x0324
     498:	08 95       	ret

0000049a <can_error>:
// Check error flags in the transmit buffer control register TXB0CTRL
uint8_t can_error(){
	uint8_t error_flags = mcp_2515_read(MCP_TXB0CTRL);
     49a:	80 e3       	ldi	r24, 0x30	; 48
     49c:	0e 94 ff 04 	call	0x9fe	; 0x9fe <mcp_2515_read>
	if(test_bit(error_flags,5)) return 1;
     4a0:	85 fd       	sbrc	r24, 5
     4a2:	06 c0       	rjmp	.+12     	; 0x4b0 <can_error+0x16>
	if(test_bit(error_flags,4)) return 2;
     4a4:	98 2f       	mov	r25, r24
     4a6:	90 71       	andi	r25, 0x10	; 16
     4a8:	84 ff       	sbrs	r24, 4
     4aa:	03 c0       	rjmp	.+6      	; 0x4b2 <can_error+0x18>
     4ac:	92 e0       	ldi	r25, 0x02	; 2
     4ae:	01 c0       	rjmp	.+2      	; 0x4b2 <can_error+0x18>
	return message_received;
}
// Check error flags in the transmit buffer control register TXB0CTRL
uint8_t can_error(){
	uint8_t error_flags = mcp_2515_read(MCP_TXB0CTRL);
	if(test_bit(error_flags,5)) return 1;
     4b0:	91 e0       	ldi	r25, 0x01	; 1
	if(test_bit(error_flags,4)) return 2;
	return FALSE;
}
     4b2:	89 2f       	mov	r24, r25
     4b4:	08 95       	ret

000004b6 <can_transmit_complete>:


uint8_t can_transmit_complete(){
	if (test_bit(mcp_2515_read(MCP_TXB0CTRL),3)) {
     4b6:	80 e3       	ldi	r24, 0x30	; 48
     4b8:	0e 94 ff 04 	call	0x9fe	; 0x9fe <mcp_2515_read>
     4bc:	83 fb       	bst	r24, 3
     4be:	88 27       	eor	r24, r24
     4c0:	80 f9       	bld	r24, 0
		return FALSE;
	}
	else return TRUE;
}
     4c2:	91 e0       	ldi	r25, 0x01	; 1
     4c4:	89 27       	eor	r24, r25
     4c6:	08 95       	ret

000004c8 <can_send_message>:
	return mcp_2515_enable_normal_operation();
}
/************************************************************************/
/* BUILD AND SEND CAN MESSAGE                                                                     */
/************************************************************************/
uint8_t can_send_message(can_message *can_message){
     4c8:	1f 93       	push	r17
     4ca:	cf 93       	push	r28
     4cc:	df 93       	push	r29
     4ce:	ec 01       	movw	r28, r24
	// Check if previous message was sent
	if (can_transmit_complete()) {
     4d0:	0e 94 5b 02 	call	0x4b6	; 0x4b6 <can_transmit_complete>
     4d4:	88 23       	and	r24, r24
     4d6:	19 f1       	breq	.+70     	; 0x51e <__stack+0x1f>
		unsigned int id= can_message->ID;
     4d8:	18 81       	ld	r17, Y
     4da:	69 81       	ldd	r22, Y+1	; 0x01
		// Standard frame, mask out lowest five bits of low_ID
		low_ID = low_ID & CAN_LOW_ID_MASK;
		uint8_t high_ID = (id >> 8);
		
		//writes the ID to the ID High and ID LOW
		mcp_2515_write(MCP_TXB0SIDH, high_ID);
     4dc:	81 e3       	ldi	r24, 0x31	; 49
     4de:	0e 94 11 05 	call	0xa22	; 0xa22 <mcp_2515_write>

		
		uint8_t low_ID = id & 0xFF;
		
		// Standard frame, mask out lowest five bits of low_ID
		low_ID = low_ID & CAN_LOW_ID_MASK;
     4e2:	61 2f       	mov	r22, r17
     4e4:	60 7e       	andi	r22, 0xE0	; 224
		uint8_t high_ID = (id >> 8);
		
		//writes the ID to the ID High and ID LOW
		mcp_2515_write(MCP_TXB0SIDH, high_ID);
		mcp_2515_write(MCP_TXB0SIDL, low_ID);
     4e6:	82 e3       	ldi	r24, 0x32	; 50
     4e8:	0e 94 11 05 	call	0xa22	; 0xa22 <mcp_2515_write>
		
		mcp_2515_write(MCP_TXB0DLC, can_message->length);
     4ec:	6a 81       	ldd	r22, Y+2	; 0x02
     4ee:	85 e3       	ldi	r24, 0x35	; 53
     4f0:	0e 94 11 05 	call	0xa22	; 0xa22 <mcp_2515_write>
		
		for(uint8_t i=0; i<can_message->length;i++){
     4f4:	8a 81       	ldd	r24, Y+2	; 0x02
     4f6:	88 23       	and	r24, r24
     4f8:	69 f0       	breq	.+26     	; 0x514 <__stack+0x15>
     4fa:	10 e0       	ldi	r17, 0x00	; 0
			mcp_2515_write(MCP_TXB0D+i, can_message->data[i]);
     4fc:	fe 01       	movw	r30, r28
     4fe:	e1 0f       	add	r30, r17
     500:	f1 1d       	adc	r31, r1
     502:	63 81       	ldd	r22, Z+3	; 0x03
     504:	86 e3       	ldi	r24, 0x36	; 54
     506:	81 0f       	add	r24, r17
     508:	0e 94 11 05 	call	0xa22	; 0xa22 <mcp_2515_write>
		mcp_2515_write(MCP_TXB0SIDH, high_ID);
		mcp_2515_write(MCP_TXB0SIDL, low_ID);
		
		mcp_2515_write(MCP_TXB0DLC, can_message->length);
		
		for(uint8_t i=0; i<can_message->length;i++){
     50c:	1f 5f       	subi	r17, 0xFF	; 255
     50e:	8a 81       	ldd	r24, Y+2	; 0x02
     510:	18 17       	cp	r17, r24
     512:	a0 f3       	brcs	.-24     	; 0x4fc <can_send_message+0x34>
			mcp_2515_write(MCP_TXB0D+i, can_message->data[i]);
		}
		
		mcp_2515_request_to_send(MCP_RTS_TX0);
     514:	81 e8       	ldi	r24, 0x81	; 129
     516:	0e 94 25 05 	call	0xa4a	; 0xa4a <mcp_2515_request_to_send>
		return 1;
     51a:	81 e0       	ldi	r24, 0x01	; 1
     51c:	0b c0       	rjmp	.+22     	; 0x534 <__stack+0x35>
	}
	
	else {
		if (can_error() > 0) {
     51e:	0e 94 4d 02 	call	0x49a	; 0x49a <can_error>
     522:	88 23       	and	r24, r24
     524:	31 f0       	breq	.+12     	; 0x532 <__stack+0x33>
			printf("CAN MESSAGE SEND FAILED!\n");
     526:	80 e1       	ldi	r24, 0x10	; 16
     528:	91 e0       	ldi	r25, 0x01	; 1
     52a:	0e 94 25 0e 	call	0x1c4a	; 0x1c4a <puts>
			return -1;
     52e:	8f ef       	ldi	r24, 0xFF	; 255
     530:	01 c0       	rjmp	.+2      	; 0x534 <__stack+0x35>
		}
	}

	return 0;
     532:	80 e0       	ldi	r24, 0x00	; 0
}
     534:	df 91       	pop	r29
     536:	cf 91       	pop	r28
     538:	1f 91       	pop	r17
     53a:	08 95       	ret

0000053c <__vector_2>:
	}
	else return TRUE;
}


ISR(INT1_vect) {
     53c:	1f 92       	push	r1
     53e:	0f 92       	push	r0
     540:	0f b6       	in	r0, 0x3f	; 63
     542:	0f 92       	push	r0
     544:	11 24       	eor	r1, r1
     546:	2f 93       	push	r18
     548:	3f 93       	push	r19
     54a:	4f 93       	push	r20
     54c:	5f 93       	push	r21
     54e:	6f 93       	push	r22
     550:	7f 93       	push	r23
     552:	8f 93       	push	r24
     554:	9f 93       	push	r25
     556:	af 93       	push	r26
     558:	bf 93       	push	r27
     55a:	ef 93       	push	r30
     55c:	ff 93       	push	r31
     55e:	cf 93       	push	r28
     560:	df 93       	push	r29
     562:	1f 92       	push	r1
     564:	cd b7       	in	r28, 0x3d	; 61
     566:	de b7       	in	r29, 0x3e	; 62
	volatile uint8_t interrupt_code = mcp_2515_read(MCP_CANINTF);
     568:	8c e2       	ldi	r24, 0x2C	; 44
     56a:	0e 94 ff 04 	call	0x9fe	; 0x9fe <mcp_2515_read>
     56e:	89 83       	std	Y+1, r24	; 0x01
	if(interrupt_code == RXB0_INTERRUPT) {
     570:	89 81       	ldd	r24, Y+1	; 0x01
     572:	81 30       	cpi	r24, 0x01	; 1
     574:	49 f4       	brne	.+18     	; 0x588 <__vector_2+0x4c>
		// Reset Receive buffer full interrupt flag
		mcp_2515_bit_modify(MCP_CANINTF, MCP_RX0IF,0);
     576:	40 e0       	ldi	r20, 0x00	; 0
     578:	61 e0       	ldi	r22, 0x01	; 1
     57a:	8c e2       	ldi	r24, 0x2C	; 44
     57c:	0e 94 30 05 	call	0xa60	; 0xa60 <mcp_2515_bit_modify>
		message_received = TRUE;
     580:	81 e0       	ldi	r24, 0x01	; 1
     582:	80 93 24 03 	sts	0x0324, r24
     586:	11 c0       	rjmp	.+34     	; 0x5aa <__vector_2+0x6e>
	}
	else if((interrupt_code & RXB0_AND_TXB0_INTERRUPT) == RXB0_AND_TXB0_INTERRUPT) {
     588:	89 81       	ldd	r24, Y+1	; 0x01
     58a:	85 70       	andi	r24, 0x05	; 5
     58c:	85 30       	cpi	r24, 0x05	; 5
     58e:	69 f4       	brne	.+26     	; 0x5aa <__vector_2+0x6e>
		mcp_2515_bit_modify(MCP_CANINTF, MCP_TX0IF,0);
     590:	40 e0       	ldi	r20, 0x00	; 0
     592:	64 e0       	ldi	r22, 0x04	; 4
     594:	8c e2       	ldi	r24, 0x2C	; 44
     596:	0e 94 30 05 	call	0xa60	; 0xa60 <mcp_2515_bit_modify>
		mcp_2515_bit_modify(MCP_CANINTF, MCP_RX0IF,0);
     59a:	40 e0       	ldi	r20, 0x00	; 0
     59c:	61 e0       	ldi	r22, 0x01	; 1
     59e:	8c e2       	ldi	r24, 0x2C	; 44
     5a0:	0e 94 30 05 	call	0xa60	; 0xa60 <mcp_2515_bit_modify>
		message_received = TRUE;
     5a4:	81 e0       	ldi	r24, 0x01	; 1
     5a6:	80 93 24 03 	sts	0x0324, r24
	}
	if ((MERR_INTERRUPT & interrupt_code) == MERR_INTERRUPT) {
     5aa:	89 81       	ldd	r24, Y+1	; 0x01
     5ac:	88 23       	and	r24, r24
     5ae:	2c f4       	brge	.+10     	; 0x5ba <__vector_2+0x7e>
		// Clear message error flag
		mcp_2515_bit_modify(MCP_CANINTF, MCP_MERRF,0);
     5b0:	40 e0       	ldi	r20, 0x00	; 0
     5b2:	60 e8       	ldi	r22, 0x80	; 128
     5b4:	8c e2       	ldi	r24, 0x2C	; 44
     5b6:	0e 94 30 05 	call	0xa60	; 0xa60 <mcp_2515_bit_modify>
	}
	
}
     5ba:	0f 90       	pop	r0
     5bc:	df 91       	pop	r29
     5be:	cf 91       	pop	r28
     5c0:	ff 91       	pop	r31
     5c2:	ef 91       	pop	r30
     5c4:	bf 91       	pop	r27
     5c6:	af 91       	pop	r26
     5c8:	9f 91       	pop	r25
     5ca:	8f 91       	pop	r24
     5cc:	7f 91       	pop	r23
     5ce:	6f 91       	pop	r22
     5d0:	5f 91       	pop	r21
     5d2:	4f 91       	pop	r20
     5d4:	3f 91       	pop	r19
     5d6:	2f 91       	pop	r18
     5d8:	0f 90       	pop	r0
     5da:	0f be       	out	0x3f, r0	; 63
     5dc:	0f 90       	pop	r0
     5de:	1f 90       	pop	r1
     5e0:	18 95       	reti

000005e2 <joystick_init>:
#include "joystick.h"

void joystick_init()
{
	// Set PB0-1 as input
	clear_bit(DDRB,PB0);
     5e2:	b8 98       	cbi	0x17, 0	; 23
	clear_bit(DDRB,PB1);
     5e4:	b9 98       	cbi	0x17, 1	; 23
	// Pull-up on PB2
	set_bit(PORTB,PB2);
     5e6:	c2 9a       	sbi	0x18, 2	; 24
	//Set PB2 as input
	clear_bit(DDRB,PB2);
     5e8:	ba 98       	cbi	0x17, 2	; 23
     5ea:	08 95       	ret

000005ec <joystick_getDirection>:
	if (test_bit(PINB,PB2)) joy->joystick_button = 0;
	else joy->joystick_button = 1;
}

direction joystick_getDirection(float x, float y)
{
     5ec:	4f 92       	push	r4
     5ee:	5f 92       	push	r5
     5f0:	6f 92       	push	r6
     5f2:	7f 92       	push	r7
     5f4:	8f 92       	push	r8
     5f6:	9f 92       	push	r9
     5f8:	af 92       	push	r10
     5fa:	bf 92       	push	r11
     5fc:	cf 92       	push	r12
     5fe:	df 92       	push	r13
     600:	ef 92       	push	r14
     602:	ff 92       	push	r15
     604:	2b 01       	movw	r4, r22
     606:	3c 01       	movw	r6, r24
     608:	49 01       	movw	r8, r18
     60a:	5a 01       	movw	r10, r20
	direction d = NEUTRAL;
	if (!(fabsf(x)<50 && fabsf(y)<50)) 
     60c:	6b 01       	movw	r12, r22
     60e:	7c 01       	movw	r14, r24
     610:	e8 94       	clt
     612:	f7 f8       	bld	r15, 7
     614:	20 e0       	ldi	r18, 0x00	; 0
     616:	30 e0       	ldi	r19, 0x00	; 0
     618:	48 e4       	ldi	r20, 0x48	; 72
     61a:	52 e4       	ldi	r21, 0x42	; 66
     61c:	c7 01       	movw	r24, r14
     61e:	b6 01       	movw	r22, r12
     620:	0e 94 ac 0a 	call	0x1558	; 0x1558 <__cmpsf2>
     624:	88 23       	and	r24, r24
     626:	64 f4       	brge	.+24     	; 0x640 <joystick_getDirection+0x54>
     628:	20 e0       	ldi	r18, 0x00	; 0
     62a:	30 e0       	ldi	r19, 0x00	; 0
     62c:	48 e4       	ldi	r20, 0x48	; 72
     62e:	52 e4       	ldi	r21, 0x42	; 66
     630:	c5 01       	movw	r24, r10
     632:	b4 01       	movw	r22, r8
     634:	9f 77       	andi	r25, 0x7F	; 127
     636:	0e 94 ac 0a 	call	0x1558	; 0x1558 <__cmpsf2>
     63a:	88 23       	and	r24, r24
     63c:	0c f4       	brge	.+2      	; 0x640 <joystick_getDirection+0x54>
     63e:	6b c0       	rjmp	.+214    	; 0x716 <joystick_getDirection+0x12a>
	{
		if (fabsf(x)>50 && fabsf(y)<50)
     640:	20 e0       	ldi	r18, 0x00	; 0
     642:	30 e0       	ldi	r19, 0x00	; 0
     644:	48 e4       	ldi	r20, 0x48	; 72
     646:	52 e4       	ldi	r21, 0x42	; 66
     648:	c7 01       	movw	r24, r14
     64a:	b6 01       	movw	r22, r12
     64c:	0e 94 ca 0b 	call	0x1794	; 0x1794 <__gesf2>
     650:	18 16       	cp	r1, r24
     652:	cc f4       	brge	.+50     	; 0x686 <joystick_getDirection+0x9a>
     654:	20 e0       	ldi	r18, 0x00	; 0
     656:	30 e0       	ldi	r19, 0x00	; 0
     658:	48 e4       	ldi	r20, 0x48	; 72
     65a:	52 e4       	ldi	r21, 0x42	; 66
     65c:	c5 01       	movw	r24, r10
     65e:	b4 01       	movw	r22, r8
     660:	9f 77       	andi	r25, 0x7F	; 127
     662:	0e 94 ac 0a 	call	0x1558	; 0x1558 <__cmpsf2>
     666:	88 23       	and	r24, r24
     668:	74 f4       	brge	.+28     	; 0x686 <joystick_getDirection+0x9a>
		{
			if (x<0)
     66a:	20 e0       	ldi	r18, 0x00	; 0
     66c:	30 e0       	ldi	r19, 0x00	; 0
     66e:	a9 01       	movw	r20, r18
     670:	c3 01       	movw	r24, r6
     672:	b2 01       	movw	r22, r4
     674:	0e 94 ac 0a 	call	0x1558	; 0x1558 <__cmpsf2>
			{
				d = LEFT;
			}
			else
			{
				d = RIGHT;
     678:	88 1f       	adc	r24, r24
     67a:	88 27       	eor	r24, r24
     67c:	88 1f       	adc	r24, r24
     67e:	93 e0       	ldi	r25, 0x03	; 3
     680:	98 1b       	sub	r25, r24
     682:	89 2f       	mov	r24, r25
     684:	49 c0       	rjmp	.+146    	; 0x718 <joystick_getDirection+0x12c>
			}
		}
		else if(fabsf(x)<50 && fabsf(y)>50)
     686:	20 e0       	ldi	r18, 0x00	; 0
     688:	30 e0       	ldi	r19, 0x00	; 0
     68a:	48 e4       	ldi	r20, 0x48	; 72
     68c:	52 e4       	ldi	r21, 0x42	; 66
     68e:	c7 01       	movw	r24, r14
     690:	b6 01       	movw	r22, r12
     692:	0e 94 ac 0a 	call	0x1558	; 0x1558 <__cmpsf2>
     696:	88 23       	and	r24, r24
     698:	b4 f4       	brge	.+44     	; 0x6c6 <joystick_getDirection+0xda>
     69a:	20 e0       	ldi	r18, 0x00	; 0
     69c:	30 e0       	ldi	r19, 0x00	; 0
     69e:	48 e4       	ldi	r20, 0x48	; 72
     6a0:	52 e4       	ldi	r21, 0x42	; 66
     6a2:	c5 01       	movw	r24, r10
     6a4:	b4 01       	movw	r22, r8
     6a6:	9f 77       	andi	r25, 0x7F	; 127
     6a8:	0e 94 ca 0b 	call	0x1794	; 0x1794 <__gesf2>
     6ac:	18 16       	cp	r1, r24
     6ae:	5c f4       	brge	.+22     	; 0x6c6 <joystick_getDirection+0xda>
		{
			if (y<0)
     6b0:	20 e0       	ldi	r18, 0x00	; 0
     6b2:	30 e0       	ldi	r19, 0x00	; 0
     6b4:	a9 01       	movw	r20, r18
     6b6:	c5 01       	movw	r24, r10
     6b8:	b4 01       	movw	r22, r8
     6ba:	0e 94 ac 0a 	call	0x1558	; 0x1558 <__cmpsf2>
     6be:	88 1f       	adc	r24, r24
     6c0:	88 27       	eor	r24, r24
     6c2:	88 1f       	adc	r24, r24
     6c4:	29 c0       	rjmp	.+82     	; 0x718 <joystick_getDirection+0x12c>
				d = UP;
			}
		}
		else
		{
			if (fabsf(y/x)>1)
     6c6:	a3 01       	movw	r20, r6
     6c8:	92 01       	movw	r18, r4
     6ca:	c5 01       	movw	r24, r10
     6cc:	b4 01       	movw	r22, r8
     6ce:	0e 94 b0 0a 	call	0x1560	; 0x1560 <__divsf3>
     6d2:	9f 77       	andi	r25, 0x7F	; 127
     6d4:	20 e0       	ldi	r18, 0x00	; 0
     6d6:	30 e0       	ldi	r19, 0x00	; 0
     6d8:	40 e8       	ldi	r20, 0x80	; 128
     6da:	5f e3       	ldi	r21, 0x3F	; 63
     6dc:	0e 94 ca 0b 	call	0x1794	; 0x1794 <__gesf2>
     6e0:	18 16       	cp	r1, r24
     6e2:	5c f4       	brge	.+22     	; 0x6fa <joystick_getDirection+0x10e>
			{
				if (y<0)
     6e4:	20 e0       	ldi	r18, 0x00	; 0
     6e6:	30 e0       	ldi	r19, 0x00	; 0
     6e8:	a9 01       	movw	r20, r18
     6ea:	c5 01       	movw	r24, r10
     6ec:	b4 01       	movw	r22, r8
     6ee:	0e 94 ac 0a 	call	0x1558	; 0x1558 <__cmpsf2>
     6f2:	88 1f       	adc	r24, r24
     6f4:	88 27       	eor	r24, r24
     6f6:	88 1f       	adc	r24, r24
     6f8:	0f c0       	rjmp	.+30     	; 0x718 <joystick_getDirection+0x12c>
					d = UP;
				}
			}
			else
			{
				if (x<0)
     6fa:	20 e0       	ldi	r18, 0x00	; 0
     6fc:	30 e0       	ldi	r19, 0x00	; 0
     6fe:	a9 01       	movw	r20, r18
     700:	c3 01       	movw	r24, r6
     702:	b2 01       	movw	r22, r4
     704:	0e 94 ac 0a 	call	0x1558	; 0x1558 <__cmpsf2>
				{
					d = LEFT;
				}
				else
				{
					d = RIGHT;
     708:	88 1f       	adc	r24, r24
     70a:	88 27       	eor	r24, r24
     70c:	88 1f       	adc	r24, r24
     70e:	93 e0       	ldi	r25, 0x03	; 3
     710:	98 1b       	sub	r25, r24
     712:	89 2f       	mov	r24, r25
     714:	01 c0       	rjmp	.+2      	; 0x718 <joystick_getDirection+0x12c>
	else joy->joystick_button = 1;
}

direction joystick_getDirection(float x, float y)
{
	direction d = NEUTRAL;
     716:	84 e0       	ldi	r24, 0x04	; 4
			}
		}
		
	}
	return d;
}
     718:	ff 90       	pop	r15
     71a:	ef 90       	pop	r14
     71c:	df 90       	pop	r13
     71e:	cf 90       	pop	r12
     720:	bf 90       	pop	r11
     722:	af 90       	pop	r10
     724:	9f 90       	pop	r9
     726:	8f 90       	pop	r8
     728:	7f 90       	pop	r7
     72a:	6f 90       	pop	r6
     72c:	5f 90       	pop	r5
     72e:	4f 90       	pop	r4
     730:	08 95       	ret

00000732 <convert_to_percentage>:
}

// Convert digital value to percentage (0-255 -> 0-100%)
float convert_to_percentage(uint8_t digital_value)
{
	float value = digital_value;
     732:	68 2f       	mov	r22, r24
     734:	70 e0       	ldi	r23, 0x00	; 0
     736:	80 e0       	ldi	r24, 0x00	; 0
     738:	90 e0       	ldi	r25, 0x00	; 0
     73a:	0e 94 18 0b 	call	0x1630	; 0x1630 <__floatunsisf>
	return ((value-128)/128)*100;
     73e:	20 e0       	ldi	r18, 0x00	; 0
     740:	30 e0       	ldi	r19, 0x00	; 0
     742:	40 e0       	ldi	r20, 0x00	; 0
     744:	53 e4       	ldi	r21, 0x43	; 67
     746:	0e 94 47 0a 	call	0x148e	; 0x148e <__subsf3>
     74a:	20 e0       	ldi	r18, 0x00	; 0
     74c:	30 e0       	ldi	r19, 0x00	; 0
     74e:	40 e0       	ldi	r20, 0x00	; 0
     750:	5c e3       	ldi	r21, 0x3C	; 60
     752:	0e 94 ce 0b 	call	0x179c	; 0x179c <__mulsf3>
     756:	20 e0       	ldi	r18, 0x00	; 0
     758:	30 e0       	ldi	r19, 0x00	; 0
     75a:	48 ec       	ldi	r20, 0xC8	; 200
     75c:	52 e4       	ldi	r21, 0x42	; 66
     75e:	0e 94 ce 0b 	call	0x179c	; 0x179c <__mulsf3>
}
     762:	08 95       	ret

00000764 <joystick_get_x_percentage>:
}

// Get Joystick position in percentage (center = 50%)
float joystick_get_x_percentage()
{
	uint8_t data = read_ADC(1);
     764:	81 e0       	ldi	r24, 0x01	; 1
     766:	0e 94 d5 01 	call	0x3aa	; 0x3aa <read_ADC>
	return convert_to_percentage(data);
     76a:	0e 94 99 03 	call	0x732	; 0x732 <convert_to_percentage>
} 
     76e:	08 95       	ret

00000770 <joystick_get_y_percentage>:

// Get Joystick position in percentage (center = 50%)
float joystick_get_y_percentage()
{
	uint8_t data = read_ADC(0);
     770:	80 e0       	ldi	r24, 0x00	; 0
     772:	0e 94 d5 01 	call	0x3aa	; 0x3aa <read_ADC>
	return convert_to_percentage(data);
     776:	0e 94 99 03 	call	0x732	; 0x732 <convert_to_percentage>
}
     77a:	08 95       	ret

0000077c <read_joystick>:
	//Set PB2 as input
	clear_bit(DDRB,PB2);
}

void read_joystick(joyValues *joy)
{
     77c:	cf 93       	push	r28
     77e:	df 93       	push	r29
     780:	ec 01       	movw	r28, r24
	//joyValues joystick;
	joy->x_percentage = joystick_get_x_percentage();
     782:	0e 94 b2 03 	call	0x764	; 0x764 <joystick_get_x_percentage>
     786:	68 83       	st	Y, r22
     788:	79 83       	std	Y+1, r23	; 0x01
     78a:	8a 83       	std	Y+2, r24	; 0x02
     78c:	9b 83       	std	Y+3, r25	; 0x03
	joy->y_percentage = joystick_get_y_percentage();
     78e:	0e 94 b8 03 	call	0x770	; 0x770 <joystick_get_y_percentage>
     792:	6c 83       	std	Y+4, r22	; 0x04
     794:	7d 83       	std	Y+5, r23	; 0x05
     796:	8e 83       	std	Y+6, r24	; 0x06
     798:	9f 83       	std	Y+7, r25	; 0x07
	// If PB0 || PB1 =1, button is pressed
	if (test_bit(PINB,PB0)) joy->left_button = 1;
     79a:	b0 9b       	sbis	0x16, 0	; 22
     79c:	05 c0       	rjmp	.+10     	; 0x7a8 <read_joystick+0x2c>
     79e:	81 e0       	ldi	r24, 0x01	; 1
     7a0:	90 e0       	ldi	r25, 0x00	; 0
     7a2:	99 87       	std	Y+9, r25	; 0x09
     7a4:	88 87       	std	Y+8, r24	; 0x08
     7a6:	02 c0       	rjmp	.+4      	; 0x7ac <read_joystick+0x30>
	else joy->left_button = 0;
     7a8:	19 86       	std	Y+9, r1	; 0x09
     7aa:	18 86       	std	Y+8, r1	; 0x08
	if (test_bit(PINB,PB1)) joy->right_button = 1;
     7ac:	b1 9b       	sbis	0x16, 1	; 22
     7ae:	05 c0       	rjmp	.+10     	; 0x7ba <read_joystick+0x3e>
     7b0:	81 e0       	ldi	r24, 0x01	; 1
     7b2:	90 e0       	ldi	r25, 0x00	; 0
     7b4:	9b 87       	std	Y+11, r25	; 0x0b
     7b6:	8a 87       	std	Y+10, r24	; 0x0a
     7b8:	02 c0       	rjmp	.+4      	; 0x7be <read_joystick+0x42>
	else joy->right_button = 0;
     7ba:	1b 86       	std	Y+11, r1	; 0x0b
     7bc:	1a 86       	std	Y+10, r1	; 0x0a
	
	// If PB2=0, button is pressed
	if (test_bit(PINB,PB2)) joy->joystick_button = 0;
     7be:	b2 9b       	sbis	0x16, 2	; 22
     7c0:	03 c0       	rjmp	.+6      	; 0x7c8 <read_joystick+0x4c>
     7c2:	1d 86       	std	Y+13, r1	; 0x0d
     7c4:	1c 86       	std	Y+12, r1	; 0x0c
     7c6:	04 c0       	rjmp	.+8      	; 0x7d0 <read_joystick+0x54>
	else joy->joystick_button = 1;
     7c8:	81 e0       	ldi	r24, 0x01	; 1
     7ca:	90 e0       	ldi	r25, 0x00	; 0
     7cc:	9d 87       	std	Y+13, r25	; 0x0d
     7ce:	8c 87       	std	Y+12, r24	; 0x0c
}
     7d0:	df 91       	pop	r29
     7d2:	cf 91       	pop	r28
     7d4:	08 95       	ret

000007d6 <in_menus>:
	}
	
	return 0;
}

void in_menus(){
     7d6:	cf 93       	push	r28
     7d8:	df 93       	push	r29
     7da:	cd b7       	in	r28, 0x3d	; 61
     7dc:	de b7       	in	r29, 0x3e	; 62
     7de:	2e 97       	sbiw	r28, 0x0e	; 14
     7e0:	0f b6       	in	r0, 0x3f	; 63
     7e2:	f8 94       	cli
     7e4:	de bf       	out	0x3e, r29	; 62
     7e6:	0f be       	out	0x3f, r0	; 63
     7e8:	cd bf       	out	0x3d, r28	; 61
	
	
	if (menu_printed == 0)
     7ea:	80 91 29 03 	lds	r24, 0x0329
     7ee:	81 11       	cpse	r24, r1
     7f0:	09 c0       	rjmp	.+18     	; 0x804 <in_menus+0x2e>
	{
		print_menu(main_menu);
     7f2:	80 91 2a 03 	lds	r24, 0x032A
     7f6:	90 91 2b 03 	lds	r25, 0x032B
     7fa:	0e 94 ca 06 	call	0xd94	; 0xd94 <print_menu>
		menu_printed = 1;
     7fe:	81 e0       	ldi	r24, 0x01	; 1
     800:	80 93 29 03 	sts	0x0329, r24
	}
	
	joyValues j;
	read_joystick(&j);
     804:	ce 01       	movw	r24, r28
     806:	01 96       	adiw	r24, 0x01	; 1
     808:	0e 94 be 03 	call	0x77c	; 0x77c <read_joystick>
	direction d = joystick_getDirection(j.x_percentage,j.y_percentage);
     80c:	2d 81       	ldd	r18, Y+5	; 0x05
     80e:	3e 81       	ldd	r19, Y+6	; 0x06
     810:	4f 81       	ldd	r20, Y+7	; 0x07
     812:	58 85       	ldd	r21, Y+8	; 0x08
     814:	69 81       	ldd	r22, Y+1	; 0x01
     816:	7a 81       	ldd	r23, Y+2	; 0x02
     818:	8b 81       	ldd	r24, Y+3	; 0x03
     81a:	9c 81       	ldd	r25, Y+4	; 0x04
     81c:	0e 94 f6 02 	call	0x5ec	; 0x5ec <joystick_getDirection>
	
	arrow_line = move_arrow(d,arrow_line);
     820:	60 91 0a 01 	lds	r22, 0x010A
     824:	0e 94 8a 06 	call	0xd14	; 0xd14 <move_arrow>
     828:	80 93 0a 01 	sts	0x010A, r24
	if(j.joystick_button == previous_joystick_button){
     82c:	20 91 28 03 	lds	r18, 0x0328
     830:	30 e0       	ldi	r19, 0x00	; 0
     832:	4d 85       	ldd	r20, Y+13	; 0x0d
     834:	5e 85       	ldd	r21, Y+14	; 0x0e
     836:	42 17       	cp	r20, r18
     838:	53 07       	cpc	r21, r19
     83a:	79 f0       	breq	.+30     	; 0x85a <in_menus+0x84>
		j.joystick_button = 0;
	}
	else{
		previous_joystick_button = 0;
     83c:	10 92 28 03 	sts	0x0328, r1
	}
	if (j.joystick_button == 1) {
     840:	41 30       	cpi	r20, 0x01	; 1
     842:	51 05       	cpc	r21, r1
     844:	51 f4       	brne	.+20     	; 0x85a <in_menus+0x84>
		mode = button_action(arrow_line);
     846:	0e 94 89 07 	call	0xf12	; 0xf12 <button_action>
     84a:	80 93 27 03 	sts	0x0327, r24
		previous_joystick_button = j.joystick_button;
     84e:	8d 85       	ldd	r24, Y+13	; 0x0d
     850:	80 93 28 03 	sts	0x0328, r24
		arrow_line = 2;
     854:	82 e0       	ldi	r24, 0x02	; 2
     856:	80 93 0a 01 	sts	0x010A, r24
	}
}
     85a:	2e 96       	adiw	r28, 0x0e	; 14
     85c:	0f b6       	in	r0, 0x3f	; 63
     85e:	f8 94       	cli
     860:	de bf       	out	0x3e, r29	; 62
     862:	0f be       	out	0x3f, r0	; 63
     864:	cd bf       	out	0x3d, r28	; 61
     866:	df 91       	pop	r29
     868:	cf 91       	pop	r28
     86a:	08 95       	ret

0000086c <send_joystick_data>:
void playing_the_game(){
	
}


uint8_t send_joystick_data() {
     86c:	cf 93       	push	r28
     86e:	df 93       	push	r29
     870:	cd b7       	in	r28, 0x3d	; 61
     872:	de b7       	in	r29, 0x3e	; 62
     874:	69 97       	sbiw	r28, 0x19	; 25
     876:	0f b6       	in	r0, 0x3f	; 63
     878:	f8 94       	cli
     87a:	de bf       	out	0x3e, r29	; 62
     87c:	0f be       	out	0x3f, r0	; 63
     87e:	cd bf       	out	0x3d, r28	; 61
	joyValues j;
	read_joystick(&j);
     880:	ce 01       	movw	r24, r28
     882:	01 96       	adiw	r24, 0x01	; 1
     884:	0e 94 be 03 	call	0x77c	; 0x77c <read_joystick>
	can_message sendmessage;
	float_to_bytes x;
	float_to_bytes y;
	sendmessage.ID = 0x0020;
     888:	80 e2       	ldi	r24, 0x20	; 32
     88a:	90 e0       	ldi	r25, 0x00	; 0
     88c:	98 8b       	std	Y+16, r25	; 0x10
     88e:	8f 87       	std	Y+15, r24	; 0x0f
	sendmessage.length=8;
     890:	88 e0       	ldi	r24, 0x08	; 8
     892:	89 8b       	std	Y+17, r24	; 0x11
	x.data_f = j.x_percentage;
     894:	79 81       	ldd	r23, Y+1	; 0x01
     896:	6a 81       	ldd	r22, Y+2	; 0x02
     898:	5b 81       	ldd	r21, Y+3	; 0x03
     89a:	4c 81       	ldd	r20, Y+4	; 0x04
	y.data_f = j.y_percentage;
     89c:	3d 81       	ldd	r19, Y+5	; 0x05
     89e:	2e 81       	ldd	r18, Y+6	; 0x06
     8a0:	9f 81       	ldd	r25, Y+7	; 0x07
     8a2:	88 85       	ldd	r24, Y+8	; 0x08
	sendmessage.data[0] = x.bytes[0];
     8a4:	7a 8b       	std	Y+18, r23	; 0x12
	sendmessage.data[1] = x.bytes[1];
     8a6:	6b 8b       	std	Y+19, r22	; 0x13
	sendmessage.data[2] = x.bytes[2];
     8a8:	5c 8b       	std	Y+20, r21	; 0x14
	sendmessage.data[3] = x.bytes[3];
     8aa:	4d 8b       	std	Y+21, r20	; 0x15
	sendmessage.data[4] = y.bytes[0];
     8ac:	3e 8b       	std	Y+22, r19	; 0x16
	sendmessage.data[5] = y.bytes[1];
     8ae:	2f 8b       	std	Y+23, r18	; 0x17
	sendmessage.data[6] = y.bytes[2];
     8b0:	98 8f       	std	Y+24, r25	; 0x18
	sendmessage.data[7] = y.bytes[3];
     8b2:	89 8f       	std	Y+25, r24	; 0x19
	return can_send_message(&sendmessage);
     8b4:	ce 01       	movw	r24, r28
     8b6:	0f 96       	adiw	r24, 0x0f	; 15
     8b8:	0e 94 64 02 	call	0x4c8	; 0x4c8 <can_send_message>
	
}
     8bc:	69 96       	adiw	r28, 0x19	; 25
     8be:	0f b6       	in	r0, 0x3f	; 63
     8c0:	f8 94       	cli
     8c2:	de bf       	out	0x3e, r29	; 62
     8c4:	0f be       	out	0x3f, r0	; 63
     8c6:	cd bf       	out	0x3d, r28	; 61
     8c8:	df 91       	pop	r29
     8ca:	cf 91       	pop	r28
     8cc:	08 95       	ret

000008ce <initializations>:

void initializations(){
	//static volatile long temp = F_OSC; //For testing
	//Breakpoint x2
	// Enable external memory
	set_bit(MCUCR,SRE);
     8ce:	85 b7       	in	r24, 0x35	; 53
     8d0:	80 68       	ori	r24, 0x80	; 128
     8d2:	85 bf       	out	0x35, r24	; 53
	// Mask PC7-PC4
	set_bit(SFIOR,XMM2);
     8d4:	80 b7       	in	r24, 0x30	; 48
     8d6:	80 62       	ori	r24, 0x20	; 32
     8d8:	80 bf       	out	0x30, r24	; 48
	int baud = (int) MYUBRR;
	USART_Init(baud);
     8da:	8f e1       	ldi	r24, 0x1F	; 31
     8dc:	90 e0       	ldi	r25, 0x00	; 0
     8de:	0e 94 36 0a 	call	0x146c	; 0x146c <USART_Init>
	sram_setup();
     8e2:	0e 94 a3 09 	call	0x1346	; 0x1346 <sram_setup>
	SRAM_test();
     8e6:	0e 94 a6 09 	call	0x134c	; 0x134c <SRAM_test>
	setup_ADC();
     8ea:	0e 94 d3 01 	call	0x3a6	; 0x3a6 <setup_ADC>
	joystick_init();
     8ee:	0e 94 f1 02 	call	0x5e2	; 0x5e2 <joystick_init>
	oled_init();
     8f2:	0e 94 a9 08 	call	0x1152	; 0x1152 <oled_init>
	main_menu = menu_init();
     8f6:	0e 94 92 05 	call	0xb24	; 0xb24 <menu_init>
     8fa:	90 93 2b 03 	sts	0x032B, r25
     8fe:	80 93 2a 03 	sts	0x032A, r24
	can_init();
     902:	0e 94 e3 01 	call	0x3c6	; 0x3c6 <can_init>
     906:	08 95       	ret

00000908 <main>:
uint8_t previous_joystick_button;
uint8_t game_on = 0;
uint8_t mode;
uint8_t menu_printed;
int main(void)
{
     908:	cf 93       	push	r28
     90a:	df 93       	push	r29
     90c:	cd b7       	in	r28, 0x3d	; 61
     90e:	de b7       	in	r29, 0x3e	; 62
     910:	2b 97       	sbiw	r28, 0x0b	; 11
     912:	0f b6       	in	r0, 0x3f	; 63
     914:	f8 94       	cli
     916:	de bf       	out	0x3e, r29	; 62
     918:	0f be       	out	0x3f, r0	; 63
     91a:	cd bf       	out	0x3d, r28	; 61
	initializations();
     91c:	0e 94 67 04 	call	0x8ce	; 0x8ce <initializations>
	CAN_enable_normal_mode();
     920:	0e 94 fb 01 	call	0x3f6	; 0x3f6 <CAN_enable_normal_mode>
	menu_printed = 0;
     924:	10 92 29 03 	sts	0x0329, r1
	mode = 0;
     928:	10 92 27 03 	sts	0x0327, r1
			case 1:
			playing_the_game();
			break;
		}
		if(can_data_received()) {
			receivemessage = *can_receive_message();
     92c:	0f 2e       	mov	r0, r31
     92e:	fb e0       	ldi	r31, 0x0B	; 11
     930:	7f 2e       	mov	r7, r31
     932:	f0 2d       	mov	r31, r0
			printf("Message was received!\n");
			printf("Message ID: %u, message length: %d\n", receivemessage.ID, receivemessage.length);
     934:	0f 2e       	mov	r0, r31
     936:	f1 e5       	ldi	r31, 0x51	; 81
     938:	8f 2e       	mov	r8, r31
     93a:	f1 e0       	ldi	r31, 0x01	; 1
     93c:	9f 2e       	mov	r9, r31
     93e:	f0 2d       	mov	r31, r0
			//printf("message data 1: %d, message data 2: %d, message data 3: %d, message data 4: %d, message data 5: %d\n",receivemessage.data[0],receivemessage.data[1],receivemessage.data[2],receivemessage.data[3],receivemessage.data[4]);
			for(int i = 0; i<receivemessage.length;i++) {
     940:	51 2c       	mov	r5, r1
     942:	61 2c       	mov	r6, r1
				printf("Data %d: %d",i, receivemessage.data[i]);
     944:	0f 2e       	mov	r0, r31
     946:	f5 e7       	ldi	r31, 0x75	; 117
     948:	cf 2e       	mov	r12, r31
     94a:	f1 e0       	ldi	r31, 0x01	; 1
     94c:	df 2e       	mov	r13, r31
     94e:	f0 2d       	mov	r31, r0
	while (TRUE)
	{
		
		can_message receivemessage;		

		uint8_t ok = send_joystick_data();
     950:	0e 94 36 04 	call	0x86c	; 0x86c <send_joystick_data>
		if (ok == 1)
     954:	81 30       	cpi	r24, 0x01	; 1
     956:	21 f4       	brne	.+8      	; 0x960 <main+0x58>
		{
			printf("Message was sent!\n");
     958:	89 e2       	ldi	r24, 0x29	; 41
     95a:	91 e0       	ldi	r25, 0x01	; 1
     95c:	0e 94 25 0e 	call	0x1c4a	; 0x1c4a <puts>
		}
		switch(mode){
     960:	80 91 27 03 	lds	r24, 0x0327
     964:	81 11       	cpse	r24, r1
     966:	02 c0       	rjmp	.+4      	; 0x96c <main+0x64>
			case 0:
			in_menus();
     968:	0e 94 eb 03 	call	0x7d6	; 0x7d6 <in_menus>
			
			case 1:
			playing_the_game();
			break;
		}
		if(can_data_received()) {
     96c:	0e 94 4a 02 	call	0x494	; 0x494 <can_data_received>
     970:	88 23       	and	r24, r24
     972:	71 f3       	breq	.-36     	; 0x950 <main+0x48>
			receivemessage = *can_receive_message();
     974:	0e 94 fe 01 	call	0x3fc	; 0x3fc <can_receive_message>
     978:	fc 01       	movw	r30, r24
     97a:	de 01       	movw	r26, r28
     97c:	11 96       	adiw	r26, 0x01	; 1
     97e:	27 2d       	mov	r18, r7
     980:	01 90       	ld	r0, Z+
     982:	0d 92       	st	X+, r0
     984:	2a 95       	dec	r18
     986:	e1 f7       	brne	.-8      	; 0x980 <main+0x78>
     988:	fc 01       	movw	r30, r24
     98a:	00 81       	ld	r16, Z
     98c:	f1 80       	ldd	r15, Z+1	; 0x01
     98e:	12 81       	ldd	r17, Z+2	; 0x02
			printf("Message was received!\n");
     990:	8b e3       	ldi	r24, 0x3B	; 59
     992:	91 e0       	ldi	r25, 0x01	; 1
     994:	0e 94 25 0e 	call	0x1c4a	; 0x1c4a <puts>
			printf("Message ID: %u, message length: %d\n", receivemessage.ID, receivemessage.length);
     998:	a1 2e       	mov	r10, r17
     99a:	b1 2c       	mov	r11, r1
     99c:	1f 92       	push	r1
     99e:	1f 93       	push	r17
     9a0:	ff 92       	push	r15
     9a2:	0f 93       	push	r16
     9a4:	9f 92       	push	r9
     9a6:	8f 92       	push	r8
     9a8:	0e 94 0a 0e 	call	0x1c14	; 0x1c14 <printf>
			//printf("message data 1: %d, message data 2: %d, message data 3: %d, message data 4: %d, message data 5: %d\n",receivemessage.data[0],receivemessage.data[1],receivemessage.data[2],receivemessage.data[3],receivemessage.data[4]);
			for(int i = 0; i<receivemessage.length;i++) {
     9ac:	0f 90       	pop	r0
     9ae:	0f 90       	pop	r0
     9b0:	0f 90       	pop	r0
     9b2:	0f 90       	pop	r0
     9b4:	0f 90       	pop	r0
     9b6:	0f 90       	pop	r0
     9b8:	1a 14       	cp	r1, r10
     9ba:	1b 04       	cpc	r1, r11
     9bc:	dc f4       	brge	.+54     	; 0x9f4 <main+0xec>
     9be:	ce 01       	movw	r24, r28
     9c0:	04 96       	adiw	r24, 0x04	; 4
     9c2:	7c 01       	movw	r14, r24
     9c4:	05 2d       	mov	r16, r5
     9c6:	16 2d       	mov	r17, r6
				printf("Data %d: %d",i, receivemessage.data[i]);
     9c8:	f7 01       	movw	r30, r14
     9ca:	81 91       	ld	r24, Z+
     9cc:	7f 01       	movw	r14, r30
     9ce:	1f 92       	push	r1
     9d0:	8f 93       	push	r24
     9d2:	1f 93       	push	r17
     9d4:	0f 93       	push	r16
     9d6:	df 92       	push	r13
     9d8:	cf 92       	push	r12
     9da:	0e 94 0a 0e 	call	0x1c14	; 0x1c14 <printf>
		if(can_data_received()) {
			receivemessage = *can_receive_message();
			printf("Message was received!\n");
			printf("Message ID: %u, message length: %d\n", receivemessage.ID, receivemessage.length);
			//printf("message data 1: %d, message data 2: %d, message data 3: %d, message data 4: %d, message data 5: %d\n",receivemessage.data[0],receivemessage.data[1],receivemessage.data[2],receivemessage.data[3],receivemessage.data[4]);
			for(int i = 0; i<receivemessage.length;i++) {
     9de:	0f 5f       	subi	r16, 0xFF	; 255
     9e0:	1f 4f       	sbci	r17, 0xFF	; 255
     9e2:	0f 90       	pop	r0
     9e4:	0f 90       	pop	r0
     9e6:	0f 90       	pop	r0
     9e8:	0f 90       	pop	r0
     9ea:	0f 90       	pop	r0
     9ec:	0f 90       	pop	r0
     9ee:	0a 15       	cp	r16, r10
     9f0:	1b 05       	cpc	r17, r11
     9f2:	54 f3       	brlt	.-44     	; 0x9c8 <main+0xc0>
				printf("Data %d: %d",i, receivemessage.data[i]);
			}
			printf("\n");
     9f4:	8a e0       	ldi	r24, 0x0A	; 10
     9f6:	90 e0       	ldi	r25, 0x00	; 0
     9f8:	0e 94 1e 0e 	call	0x1c3c	; 0x1c3c <putchar>
		//direction d = joystick_getDirection(j.x_percentage,j.y_percentage);
		//int d1 = (int)d;
		//
		//printf("X prosent: %3.2f, Y prosent: %3.2f, Slider venstre: %3.2f, Slider hyre: %3.2f, Retning: %d ",j.x_percentage,j.y_percentage,slider_left,slider_right, d1);
		//printf("Knapp 1: %d,Knapp 2: %d, Joystick knapp: %d\n",j.left_button,j.right_button,j.joystick_button);
	}
     9fc:	a9 cf       	rjmp	.-174    	; 0x950 <main+0x48>

000009fe <mcp_2515_read>:
	}
	return 0;
}


uint8_t mcp_2515_read(uint8_t address){
     9fe:	cf 93       	push	r28
     a00:	c8 2f       	mov	r28, r24
	uint8_t result;
	// Enable slave
	spi_enable();
     a02:	0e 94 9f 09 	call	0x133e	; 0x133e <spi_enable>
	
	// Send read-command and address to be read
	spi_send(MCP_READ); 
     a06:	83 e0       	ldi	r24, 0x03	; 3
     a08:	0e 94 96 09 	call	0x132c	; 0x132c <spi_send>
	spi_send(address);
     a0c:	8c 2f       	mov	r24, r28
     a0e:	0e 94 96 09 	call	0x132c	; 0x132c <spi_send>
	// Read back result
	result = spi_read();
     a12:	0e 94 9a 09 	call	0x1334	; 0x1334 <spi_read>
     a16:	c8 2f       	mov	r28, r24
	
	// Disable slave
	spi_disable();
     a18:	0e 94 a1 09 	call	0x1342	; 0x1342 <spi_disable>
	return result;
}
     a1c:	8c 2f       	mov	r24, r28
     a1e:	cf 91       	pop	r28
     a20:	08 95       	ret

00000a22 <mcp_2515_write>:

void mcp_2515_write(uint8_t address, uint8_t data){
     a22:	cf 93       	push	r28
     a24:	df 93       	push	r29
     a26:	d8 2f       	mov	r29, r24
     a28:	c6 2f       	mov	r28, r22
	// Enable slave
	spi_enable();
     a2a:	0e 94 9f 09 	call	0x133e	; 0x133e <spi_enable>
	
	// Send write-command, address and data
	spi_send(MCP_WRITE);
     a2e:	82 e0       	ldi	r24, 0x02	; 2
     a30:	0e 94 96 09 	call	0x132c	; 0x132c <spi_send>
	spi_send(address);
     a34:	8d 2f       	mov	r24, r29
     a36:	0e 94 96 09 	call	0x132c	; 0x132c <spi_send>
	spi_send(data);
     a3a:	8c 2f       	mov	r24, r28
     a3c:	0e 94 96 09 	call	0x132c	; 0x132c <spi_send>
	
	// Disable slave
	spi_disable();
     a40:	0e 94 a1 09 	call	0x1342	; 0x1342 <spi_disable>
}
     a44:	df 91       	pop	r29
     a46:	cf 91       	pop	r28
     a48:	08 95       	ret

00000a4a <mcp_2515_request_to_send>:

void mcp_2515_request_to_send(uint8_t buffer){
     a4a:	cf 93       	push	r28
     a4c:	c8 2f       	mov	r28, r24
	// Enable slave
	spi_enable();
     a4e:	0e 94 9f 09 	call	0x133e	; 0x133e <spi_enable>
		//buffer = MCP_RTS | buffer;
	//}
	//// Invalid buffer, command will be ignored in MCP2515
	//else buffer = MCP_RTS;
	
	spi_send(buffer);
     a52:	8c 2f       	mov	r24, r28
     a54:	0e 94 96 09 	call	0x132c	; 0x132c <spi_send>
	
	// Disable slave
	spi_disable();
     a58:	0e 94 a1 09 	call	0x1342	; 0x1342 <spi_disable>
}
     a5c:	cf 91       	pop	r28
     a5e:	08 95       	ret

00000a60 <mcp_2515_bit_modify>:

void mcp_2515_bit_modify(uint8_t address, uint8_t mask, uint8_t data){
     a60:	1f 93       	push	r17
     a62:	cf 93       	push	r28
     a64:	df 93       	push	r29
     a66:	18 2f       	mov	r17, r24
     a68:	d6 2f       	mov	r29, r22
     a6a:	c4 2f       	mov	r28, r20
	// Enable slave
	spi_enable();
     a6c:	0e 94 9f 09 	call	0x133e	; 0x133e <spi_enable>
	
	// Send bitmodification command
	spi_send(MCP_BITMOD);
     a70:	85 e0       	ldi	r24, 0x05	; 5
     a72:	0e 94 96 09 	call	0x132c	; 0x132c <spi_send>
	// Send the address of the register we want to change
	spi_send(address);
     a76:	81 2f       	mov	r24, r17
     a78:	0e 94 96 09 	call	0x132c	; 0x132c <spi_send>
	// Send the mask which decides what bits in the register can be modified
	spi_send(mask);
     a7c:	8d 2f       	mov	r24, r29
     a7e:	0e 94 96 09 	call	0x132c	; 0x132c <spi_send>
	// Send the new bit values
	// Only the bits enabled by the mask will be modified
	spi_send(data);
     a82:	8c 2f       	mov	r24, r28
     a84:	0e 94 96 09 	call	0x132c	; 0x132c <spi_send>
	
	// Disable slave
	spi_disable();
     a88:	0e 94 a1 09 	call	0x1342	; 0x1342 <spi_disable>
}
     a8c:	df 91       	pop	r29
     a8e:	cf 91       	pop	r28
     a90:	1f 91       	pop	r17
     a92:	08 95       	ret

00000a94 <mcp_2515_enable_normal_operation>:
	}
	return 0;
}

uint8_t mcp_2515_enable_normal_operation()
{
     a94:	cf 93       	push	r28
     a96:	df 93       	push	r29
     a98:	1f 92       	push	r1
     a9a:	cd b7       	in	r28, 0x3d	; 61
     a9c:	de b7       	in	r29, 0x3e	; 62
	// Enable normal operation in the CANCTRL-register
	mcp_2515_bit_modify(MCP_CANCTRL,MODE_MASK,MODE_NORMAL);
     a9e:	40 e0       	ldi	r20, 0x00	; 0
     aa0:	60 ee       	ldi	r22, 0xE0	; 224
     aa2:	8f e0       	ldi	r24, 0x0F	; 15
     aa4:	0e 94 30 05 	call	0xa60	; 0xa60 <mcp_2515_bit_modify>
	// Check if normal mode is enabled
	volatile uint8_t value = mcp_2515_read(MCP_CANSTAT);
     aa8:	8e e0       	ldi	r24, 0x0E	; 14
     aaa:	0e 94 ff 04 	call	0x9fe	; 0x9fe <mcp_2515_read>
     aae:	89 83       	std	Y+1, r24	; 0x01
	if ((value & MODE_MASK) != MODE_NORMAL)
     ab0:	99 81       	ldd	r25, Y+1	; 0x01
     ab2:	90 7e       	andi	r25, 0xE0	; 224
     ab4:	81 e0       	ldi	r24, 0x01	; 1
     ab6:	09 f4       	brne	.+2      	; 0xaba <mcp_2515_enable_normal_operation+0x26>
     ab8:	80 e0       	ldi	r24, 0x00	; 0
	{
		return 1;
	}
	return 0;
}
     aba:	0f 90       	pop	r0
     abc:	df 91       	pop	r29
     abe:	cf 91       	pop	r28
     ac0:	08 95       	ret

00000ac2 <mcp_2515_reset>:
	spi_disable();
}

void mcp_2515_reset(){
	// Enable slave
	spi_enable();
     ac2:	0e 94 9f 09 	call	0x133e	; 0x133e <spi_enable>
	
	// Send reset-command
	spi_send(MCP_RESET);
     ac6:	80 ec       	ldi	r24, 0xC0	; 192
     ac8:	0e 94 96 09 	call	0x132c	; 0x132c <spi_send>
	
	// Disable slave
	spi_disable();
     acc:	0e 94 a1 09 	call	0x1342	; 0x1342 <spi_disable>
     ad0:	08 95       	ret

00000ad2 <mcp_2515_init>:

#include "MCP2515.h"
#include "spi.h"
#include "USART.h"

uint8_t mcp_2515_init(){
     ad2:	cf 93       	push	r28
     ad4:	df 93       	push	r29
     ad6:	1f 92       	push	r1
     ad8:	cd b7       	in	r28, 0x3d	; 61
     ada:	de b7       	in	r29, 0x3e	; 62
	volatile uint8_t value;
	
	spi_init();
     adc:	0e 94 8f 09 	call	0x131e	; 0x131e <spi_init>
	mcp_2515_reset();
     ae0:	0e 94 61 05 	call	0xac2	; 0xac2 <mcp_2515_reset>
	
	//Self-test
	value = mcp_2515_read(MCP_CANSTAT);
     ae4:	8e e0       	ldi	r24, 0x0E	; 14
     ae6:	0e 94 ff 04 	call	0x9fe	; 0x9fe <mcp_2515_read>
     aea:	89 83       	std	Y+1, r24	; 0x01
	if ((value & MODE_MASK) != MODE_CONFIG)
     aec:	89 81       	ldd	r24, Y+1	; 0x01
     aee:	80 7e       	andi	r24, 0xE0	; 224
     af0:	80 38       	cpi	r24, 0x80	; 128
     af2:	31 f0       	breq	.+12     	; 0xb00 <mcp_2515_init+0x2e>
	{
		printf("MCP2515 is NOT in configuration mode after reset!\n");
     af4:	81 e8       	ldi	r24, 0x81	; 129
     af6:	91 e0       	ldi	r25, 0x01	; 1
     af8:	0e 94 25 0e 	call	0x1c4a	; 0x1c4a <puts>
		return 1;
     afc:	81 e0       	ldi	r24, 0x01	; 1
     afe:	0e c0       	rjmp	.+28     	; 0xb1c <mcp_2515_init+0x4a>
	}
	printf("MCP2515 mode after init: %d\n", value);
     b00:	89 81       	ldd	r24, Y+1	; 0x01
     b02:	1f 92       	push	r1
     b04:	8f 93       	push	r24
     b06:	83 eb       	ldi	r24, 0xB3	; 179
     b08:	91 e0       	ldi	r25, 0x01	; 1
     b0a:	9f 93       	push	r25
     b0c:	8f 93       	push	r24
     b0e:	0e 94 0a 0e 	call	0x1c14	; 0x1c14 <printf>
	
	
	return 0;
     b12:	0f 90       	pop	r0
     b14:	0f 90       	pop	r0
     b16:	0f 90       	pop	r0
     b18:	0f 90       	pop	r0
     b1a:	80 e0       	ldi	r24, 0x00	; 0
}
     b1c:	0f 90       	pop	r0
     b1e:	df 91       	pop	r29
     b20:	cf 91       	pop	r28
     b22:	08 95       	ret

00000b24 <menu_init>:
// Variabel for  holde p nvrende meny, kan vre nyttig i main f. eks.
menu_t * current_menu;
difficulty GitGud = EASY;
uint8_t game_started = 0;

menu_t * menu_init (){
     b24:	bf 92       	push	r11
     b26:	cf 92       	push	r12
     b28:	df 92       	push	r13
     b2a:	ef 92       	push	r14
     b2c:	ff 92       	push	r15
     b2e:	0f 93       	push	r16
     b30:	1f 93       	push	r17
     b32:	cf 93       	push	r28
     b34:	df 93       	push	r29
	//Main menu
	menu_t * main_menu = malloc(sizeof(menu_t));
     b36:	8d e0       	ldi	r24, 0x0D	; 13
     b38:	90 e0       	ldi	r25, 0x00	; 0
     b3a:	0e 94 31 0c 	call	0x1862	; 0x1862 <malloc>
     b3e:	7c 01       	movw	r14, r24
	main_menu ->name = "MAIN MENU";
     b40:	80 ed       	ldi	r24, 0xD0	; 208
     b42:	91 e0       	ldi	r25, 0x01	; 1
     b44:	d7 01       	movw	r26, r14
     b46:	1c 96       	adiw	r26, 0x0c	; 12
     b48:	9c 93       	st	X, r25
     b4a:	8e 93       	st	-X, r24
     b4c:	1b 97       	sbiw	r26, 0x0b	; 11
	
	main_menu -> child1 = malloc(sizeof(menu_t));
     b4e:	8d e0       	ldi	r24, 0x0D	; 13
     b50:	90 e0       	ldi	r25, 0x00	; 0
     b52:	0e 94 31 0c 	call	0x1862	; 0x1862 <malloc>
     b56:	fc 01       	movw	r30, r24
     b58:	d7 01       	movw	r26, r14
     b5a:	13 96       	adiw	r26, 0x03	; 3
     b5c:	9c 93       	st	X, r25
     b5e:	8e 93       	st	-X, r24
     b60:	12 97       	sbiw	r26, 0x02	; 2
	main_menu -> child1 -> name = "NEW GAME";
     b62:	8a ed       	ldi	r24, 0xDA	; 218
     b64:	91 e0       	ldi	r25, 0x01	; 1
     b66:	94 87       	std	Z+12, r25	; 0x0c
     b68:	83 87       	std	Z+11, r24	; 0x0b
	main_menu -> child1 -> parent = main_menu;
     b6a:	f1 82       	std	Z+1, r15	; 0x01
     b6c:	e0 82       	st	Z, r14
	main_menu -> child1 -> number_of_children = 0;
     b6e:	12 86       	std	Z+10, r1	; 0x0a
	
	main_menu -> child2 = malloc(sizeof(menu_t));
     b70:	8d e0       	ldi	r24, 0x0D	; 13
     b72:	90 e0       	ldi	r25, 0x00	; 0
     b74:	0e 94 31 0c 	call	0x1862	; 0x1862 <malloc>
     b78:	8c 01       	movw	r16, r24
     b7a:	f7 01       	movw	r30, r14
     b7c:	95 83       	std	Z+5, r25	; 0x05
     b7e:	84 83       	std	Z+4, r24	; 0x04
	main_menu -> child2->name = "HIGH SCORE";
     b80:	83 ee       	ldi	r24, 0xE3	; 227
     b82:	91 e0       	ldi	r25, 0x01	; 1
     b84:	d8 01       	movw	r26, r16
     b86:	1c 96       	adiw	r26, 0x0c	; 12
     b88:	9c 93       	st	X, r25
     b8a:	8e 93       	st	-X, r24
     b8c:	1b 97       	sbiw	r26, 0x0b	; 11
	main_menu -> child2->parent = main_menu;
     b8e:	11 96       	adiw	r26, 0x01	; 1
     b90:	fc 92       	st	X, r15
     b92:	ee 92       	st	-X, r14
	main_menu -> child2 -> number_of_children = 1;
     b94:	81 e0       	ldi	r24, 0x01	; 1
     b96:	1a 96       	adiw	r26, 0x0a	; 10
     b98:	8c 93       	st	X, r24
	
	main_menu -> child3 = malloc(sizeof(menu_t));
     b9a:	8d e0       	ldi	r24, 0x0D	; 13
     b9c:	90 e0       	ldi	r25, 0x00	; 0
     b9e:	0e 94 31 0c 	call	0x1862	; 0x1862 <malloc>
     ba2:	ec 01       	movw	r28, r24
     ba4:	f7 01       	movw	r30, r14
     ba6:	97 83       	std	Z+7, r25	; 0x07
     ba8:	86 83       	std	Z+6, r24	; 0x06
	main_menu -> child3->name = "SETTINGS";
     baa:	8e ee       	ldi	r24, 0xEE	; 238
     bac:	91 e0       	ldi	r25, 0x01	; 1
     bae:	9c 87       	std	Y+12, r25	; 0x0c
     bb0:	8b 87       	std	Y+11, r24	; 0x0b
	main_menu -> child3->parent = main_menu;
     bb2:	f9 82       	std	Y+1, r15	; 0x01
     bb4:	e8 82       	st	Y, r14
	main_menu ->child4 = NULL;
     bb6:	11 86       	std	Z+9, r1	; 0x09
     bb8:	10 86       	std	Z+8, r1	; 0x08

	main_menu -> number_of_children = 3;
     bba:	83 e0       	ldi	r24, 0x03	; 3
     bbc:	82 87       	std	Z+10, r24	; 0x0a
	
	//High score menu
	main_menu ->child2->child1 = malloc(sizeof(menu_t));
     bbe:	8d e0       	ldi	r24, 0x0D	; 13
     bc0:	90 e0       	ldi	r25, 0x00	; 0
     bc2:	0e 94 31 0c 	call	0x1862	; 0x1862 <malloc>
     bc6:	fc 01       	movw	r30, r24
     bc8:	d8 01       	movw	r26, r16
     bca:	13 96       	adiw	r26, 0x03	; 3
     bcc:	9c 93       	st	X, r25
     bce:	8e 93       	st	-X, r24
     bd0:	12 97       	sbiw	r26, 0x02	; 2
	main_menu ->child2->child1->name = "RETURN";
     bd2:	0f 2e       	mov	r0, r31
     bd4:	f7 ef       	ldi	r31, 0xF7	; 247
     bd6:	cf 2e       	mov	r12, r31
     bd8:	f1 e0       	ldi	r31, 0x01	; 1
     bda:	df 2e       	mov	r13, r31
     bdc:	f0 2d       	mov	r31, r0
     bde:	d4 86       	std	Z+12, r13	; 0x0c
     be0:	c3 86       	std	Z+11, r12	; 0x0b
	main_menu ->child2->child1->parent = main_menu ->child2;
     be2:	11 83       	std	Z+1, r17	; 0x01
     be4:	00 83       	st	Z, r16
	main_menu ->child2->child1->number_of_children = 0;
     be6:	12 86       	std	Z+10, r1	; 0x0a
	main_menu ->child2->child2 =main_menu ->child2->child3=main_menu ->child2->child4 = NULL;
     be8:	19 96       	adiw	r26, 0x09	; 9
     bea:	1c 92       	st	X, r1
     bec:	1e 92       	st	-X, r1
     bee:	18 97       	sbiw	r26, 0x08	; 8
     bf0:	17 96       	adiw	r26, 0x07	; 7
     bf2:	1c 92       	st	X, r1
     bf4:	1e 92       	st	-X, r1
     bf6:	16 97       	sbiw	r26, 0x06	; 6
     bf8:	15 96       	adiw	r26, 0x05	; 5
     bfa:	1c 92       	st	X, r1
     bfc:	1e 92       	st	-X, r1
     bfe:	14 97       	sbiw	r26, 0x04	; 4
	
	//Settings menu
	main_menu ->child3->child1 = malloc(sizeof(menu_t));
     c00:	8d e0       	ldi	r24, 0x0D	; 13
     c02:	90 e0       	ldi	r25, 0x00	; 0
     c04:	0e 94 31 0c 	call	0x1862	; 0x1862 <malloc>
     c08:	8c 01       	movw	r16, r24
     c0a:	9b 83       	std	Y+3, r25	; 0x03
     c0c:	8a 83       	std	Y+2, r24	; 0x02
	main_menu ->child3->child1->name = "SET DIFFICULTY";
     c0e:	8e ef       	ldi	r24, 0xFE	; 254
     c10:	91 e0       	ldi	r25, 0x01	; 1
     c12:	f8 01       	movw	r30, r16
     c14:	94 87       	std	Z+12, r25	; 0x0c
     c16:	83 87       	std	Z+11, r24	; 0x0b
	main_menu ->child3->child1->parent = main_menu->child3;
     c18:	d1 83       	std	Z+1, r29	; 0x01
     c1a:	c0 83       	st	Z, r28
	
	// Difficulty settings
	main_menu -> child3 -> child1 -> child1 = malloc(sizeof(menu_t));
     c1c:	8d e0       	ldi	r24, 0x0D	; 13
     c1e:	90 e0       	ldi	r25, 0x00	; 0
     c20:	0e 94 31 0c 	call	0x1862	; 0x1862 <malloc>
     c24:	d8 01       	movw	r26, r16
     c26:	13 96       	adiw	r26, 0x03	; 3
     c28:	9c 93       	st	X, r25
     c2a:	8e 93       	st	-X, r24
     c2c:	12 97       	sbiw	r26, 0x02	; 2
	main_menu -> child3 -> child1 -> child1 -> name = "EASY";
     c2e:	2d e0       	ldi	r18, 0x0D	; 13
     c30:	32 e0       	ldi	r19, 0x02	; 2
     c32:	fc 01       	movw	r30, r24
     c34:	34 87       	std	Z+12, r19	; 0x0c
     c36:	23 87       	std	Z+11, r18	; 0x0b
	main_menu -> child3 -> child1 -> child1 ->parent = main_menu ->child3 ->child1;
     c38:	11 83       	std	Z+1, r17	; 0x01
     c3a:	00 83       	st	Z, r16
	main_menu -> child3 -> child1 -> child2 = malloc(sizeof(menu_t));
     c3c:	8d e0       	ldi	r24, 0x0D	; 13
     c3e:	90 e0       	ldi	r25, 0x00	; 0
     c40:	0e 94 31 0c 	call	0x1862	; 0x1862 <malloc>
     c44:	d8 01       	movw	r26, r16
     c46:	15 96       	adiw	r26, 0x05	; 5
     c48:	9c 93       	st	X, r25
     c4a:	8e 93       	st	-X, r24
     c4c:	14 97       	sbiw	r26, 0x04	; 4
	main_menu -> child3 -> child1 -> child2 -> name = "MEDIUM";
     c4e:	22 e1       	ldi	r18, 0x12	; 18
     c50:	32 e0       	ldi	r19, 0x02	; 2
     c52:	fc 01       	movw	r30, r24
     c54:	34 87       	std	Z+12, r19	; 0x0c
     c56:	23 87       	std	Z+11, r18	; 0x0b
	main_menu -> child3 -> child1 -> child2 ->parent = main_menu ->child3 ->child1;
     c58:	11 83       	std	Z+1, r17	; 0x01
     c5a:	00 83       	st	Z, r16
	main_menu -> child3 -> child1 -> child3 = malloc(sizeof(menu_t));
     c5c:	8d e0       	ldi	r24, 0x0D	; 13
     c5e:	90 e0       	ldi	r25, 0x00	; 0
     c60:	0e 94 31 0c 	call	0x1862	; 0x1862 <malloc>
     c64:	d8 01       	movw	r26, r16
     c66:	17 96       	adiw	r26, 0x07	; 7
     c68:	9c 93       	st	X, r25
     c6a:	8e 93       	st	-X, r24
     c6c:	16 97       	sbiw	r26, 0x06	; 6
	main_menu -> child3 -> child1 -> child3 -> name = "HARD";
     c6e:	29 e1       	ldi	r18, 0x19	; 25
     c70:	32 e0       	ldi	r19, 0x02	; 2
     c72:	fc 01       	movw	r30, r24
     c74:	34 87       	std	Z+12, r19	; 0x0c
     c76:	23 87       	std	Z+11, r18	; 0x0b
	main_menu -> child3 -> child1 -> child3 ->parent = main_menu ->child3 ->child1;
     c78:	11 83       	std	Z+1, r17	; 0x01
     c7a:	00 83       	st	Z, r16
	main_menu -> child3 -> child1 -> child4 = malloc(sizeof(menu_t));
     c7c:	8d e0       	ldi	r24, 0x0D	; 13
     c7e:	90 e0       	ldi	r25, 0x00	; 0
     c80:	0e 94 31 0c 	call	0x1862	; 0x1862 <malloc>
     c84:	d8 01       	movw	r26, r16
     c86:	19 96       	adiw	r26, 0x09	; 9
     c88:	9c 93       	st	X, r25
     c8a:	8e 93       	st	-X, r24
     c8c:	18 97       	sbiw	r26, 0x08	; 8
	main_menu -> child3 -> child1 -> child4 -> name = "RETURN";
     c8e:	fc 01       	movw	r30, r24
     c90:	d4 86       	std	Z+12, r13	; 0x0c
     c92:	c3 86       	std	Z+11, r12	; 0x0b
	main_menu -> child3 -> child1 -> child4 ->parent = main_menu ->child3 ->child1;
     c94:	11 83       	std	Z+1, r17	; 0x01
     c96:	00 83       	st	Z, r16
	main_menu -> child3 -> child1 -> number_of_children = 4;
     c98:	68 94       	set
     c9a:	bb 24       	eor	r11, r11
     c9c:	b2 f8       	bld	r11, 2
     c9e:	1a 96       	adiw	r26, 0x0a	; 10
     ca0:	bc 92       	st	X, r11
	
	// Debugging (use?)
	main_menu -> child3 -> child2 = malloc(sizeof(menu_t));
     ca2:	8d e0       	ldi	r24, 0x0D	; 13
     ca4:	90 e0       	ldi	r25, 0x00	; 0
     ca6:	0e 94 31 0c 	call	0x1862	; 0x1862 <malloc>
     caa:	9d 83       	std	Y+5, r25	; 0x05
     cac:	8c 83       	std	Y+4, r24	; 0x04
	main_menu -> child3 -> child2 -> name = "DEBUGGING";
     cae:	2e e1       	ldi	r18, 0x1E	; 30
     cb0:	32 e0       	ldi	r19, 0x02	; 2
     cb2:	dc 01       	movw	r26, r24
     cb4:	1c 96       	adiw	r26, 0x0c	; 12
     cb6:	3c 93       	st	X, r19
     cb8:	2e 93       	st	-X, r18
     cba:	1b 97       	sbiw	r26, 0x0b	; 11
	main_menu -> child3 -> child2 -> parent = main_menu->child3;
     cbc:	cd 93       	st	X+, r28
     cbe:	dc 93       	st	X, r29
	// Calibrate joystick
	main_menu -> child3 -> child3 = malloc(sizeof(menu_t));
     cc0:	8d e0       	ldi	r24, 0x0D	; 13
     cc2:	90 e0       	ldi	r25, 0x00	; 0
     cc4:	0e 94 31 0c 	call	0x1862	; 0x1862 <malloc>
     cc8:	9f 83       	std	Y+7, r25	; 0x07
     cca:	8e 83       	std	Y+6, r24	; 0x06
	main_menu -> child3 -> child3->name = "CAL. JOYSTICK";
     ccc:	28 e2       	ldi	r18, 0x28	; 40
     cce:	32 e0       	ldi	r19, 0x02	; 2
     cd0:	fc 01       	movw	r30, r24
     cd2:	34 87       	std	Z+12, r19	; 0x0c
     cd4:	23 87       	std	Z+11, r18	; 0x0b
	main_menu -> child3 -> child3->parent = main_menu->child3;
     cd6:	d1 83       	std	Z+1, r29	; 0x01
     cd8:	c0 83       	st	Z, r28
	// Return to main menu
	main_menu -> child3 -> child4 = malloc(sizeof(menu_t));
     cda:	8d e0       	ldi	r24, 0x0D	; 13
     cdc:	90 e0       	ldi	r25, 0x00	; 0
     cde:	0e 94 31 0c 	call	0x1862	; 0x1862 <malloc>
     ce2:	99 87       	std	Y+9, r25	; 0x09
     ce4:	88 87       	std	Y+8, r24	; 0x08
	main_menu -> child3 -> child4 -> name = "RETURN";
     ce6:	dc 01       	movw	r26, r24
     ce8:	1c 96       	adiw	r26, 0x0c	; 12
     cea:	dc 92       	st	X, r13
     cec:	ce 92       	st	-X, r12
     cee:	1b 97       	sbiw	r26, 0x0b	; 11
	main_menu -> child3 -> child4 -> parent = main_menu->child3;
     cf0:	cd 93       	st	X+, r28
     cf2:	dc 93       	st	X, r29
	
	main_menu -> child3 -> number_of_children = 4;
     cf4:	ba 86       	std	Y+10, r11	; 0x0a
	current_menu = main_menu;
     cf6:	f0 92 2d 03 	sts	0x032D, r15
     cfa:	e0 92 2c 03 	sts	0x032C, r14
	return main_menu;
}
     cfe:	c7 01       	movw	r24, r14
     d00:	df 91       	pop	r29
     d02:	cf 91       	pop	r28
     d04:	1f 91       	pop	r17
     d06:	0f 91       	pop	r16
     d08:	ff 90       	pop	r15
     d0a:	ef 90       	pop	r14
     d0c:	df 90       	pop	r13
     d0e:	cf 90       	pop	r12
     d10:	bf 90       	pop	r11
     d12:	08 95       	ret

00000d14 <move_arrow>:
uint8_t move_arrow(direction dir ,uint8_t current_row){
     d14:	cf 93       	push	r28
     d16:	98 2f       	mov	r25, r24
     d18:	c6 2f       	mov	r28, r22
	uint8_t number_of_rows = current_menu -> number_of_children;
     d1a:	e0 91 2c 03 	lds	r30, 0x032C
     d1e:	f0 91 2d 03 	lds	r31, 0x032D
     d22:	22 85       	ldd	r18, Z+10	; 0x0a
	if(dir == previousDIR){
     d24:	80 91 0b 01 	lds	r24, 0x010B
     d28:	98 17       	cp	r25, r24
     d2a:	41 f0       	breq	.+16     	; 0xd3c <move_arrow+0x28>
		dir = NEUTRAL;
	}
	else{
		previousDIR=NEUTRAL;
     d2c:	84 e0       	ldi	r24, 0x04	; 4
     d2e:	80 93 0b 01 	sts	0x010B, r24
	}
	switch(dir) {
     d32:	91 30       	cpi	r25, 0x01	; 1
     d34:	d1 f0       	breq	.+52     	; 0xd6a <move_arrow+0x56>
     d36:	38 f0       	brcs	.+14     	; 0xd46 <move_arrow+0x32>
     d38:	94 30       	cpi	r25, 0x04	; 4
     d3a:	49 f5       	brne	.+82     	; 0xd8e <move_arrow+0x7a>
		case NEUTRAL :
		oled_print_arrow(current_row,0);
     d3c:	60 e0       	ldi	r22, 0x00	; 0
     d3e:	8c 2f       	mov	r24, r28
     d40:	0e 94 70 09 	call	0x12e0	; 0x12e0 <oled_print_arrow>
		break;
     d44:	24 c0       	rjmp	.+72     	; 0xd8e <move_arrow+0x7a>
		
		case UP  :
		if (current_row >= 3)
     d46:	63 30       	cpi	r22, 0x03	; 3
     d48:	10 f1       	brcs	.+68     	; 0xd8e <move_arrow+0x7a>
		{
			oled_pos(current_row, 0);
     d4a:	60 e0       	ldi	r22, 0x00	; 0
     d4c:	8c 2f       	mov	r24, r28
     d4e:	0e 94 31 09 	call	0x1262	; 0x1262 <oled_pos>
			oled_print_string("  ");
     d52:	86 e3       	ldi	r24, 0x36	; 54
     d54:	92 e0       	ldi	r25, 0x02	; 2
     d56:	0e 94 50 09 	call	0x12a0	; 0x12a0 <oled_print_string>
			current_row--;
     d5a:	c1 50       	subi	r28, 0x01	; 1
			oled_print_arrow(current_row,0);
     d5c:	60 e0       	ldi	r22, 0x00	; 0
     d5e:	8c 2f       	mov	r24, r28
     d60:	0e 94 70 09 	call	0x12e0	; 0x12e0 <oled_print_arrow>
			previousDIR=UP;
     d64:	10 92 0b 01 	sts	0x010B, r1
     d68:	12 c0       	rjmp	.+36     	; 0xd8e <move_arrow+0x7a>

		break;
		
		case DOWN  :
		
		if (current_row <= number_of_rows)
     d6a:	26 17       	cp	r18, r22
     d6c:	80 f0       	brcs	.+32     	; 0xd8e <move_arrow+0x7a>
		{
			oled_pos(current_row, 0);
     d6e:	60 e0       	ldi	r22, 0x00	; 0
     d70:	8c 2f       	mov	r24, r28
     d72:	0e 94 31 09 	call	0x1262	; 0x1262 <oled_pos>
			oled_print_string("  ");
     d76:	86 e3       	ldi	r24, 0x36	; 54
     d78:	92 e0       	ldi	r25, 0x02	; 2
     d7a:	0e 94 50 09 	call	0x12a0	; 0x12a0 <oled_print_string>
			current_row++;
     d7e:	cf 5f       	subi	r28, 0xFF	; 255
			oled_print_arrow(current_row,0);
     d80:	60 e0       	ldi	r22, 0x00	; 0
     d82:	8c 2f       	mov	r24, r28
     d84:	0e 94 70 09 	call	0x12e0	; 0x12e0 <oled_print_arrow>
			previousDIR=DOWN;
     d88:	81 e0       	ldi	r24, 0x01	; 1
     d8a:	80 93 0b 01 	sts	0x010B, r24
		}	
		break;
	}
	return current_row;
}
     d8e:	8c 2f       	mov	r24, r28
     d90:	cf 91       	pop	r28
     d92:	08 95       	ret

00000d94 <print_menu>:

void print_menu (menu_t *menu){
     d94:	cf 93       	push	r28
     d96:	df 93       	push	r29
     d98:	ec 01       	movw	r28, r24
	menu_t * current = menu;
	oled_reset();
     d9a:	0e 94 9f 08 	call	0x113e	; 0x113e <oled_reset>
	oled_home();
     d9e:	0e 94 42 08 	call	0x1084	; 0x1084 <oled_home>
	oled_pos(0,2);
     da2:	62 e0       	ldi	r22, 0x02	; 2
     da4:	80 e0       	ldi	r24, 0x00	; 0
     da6:	0e 94 31 09 	call	0x1262	; 0x1262 <oled_pos>
	oled_print_string(menu->name); //Skriver ut overskrift
     daa:	8b 85       	ldd	r24, Y+11	; 0x0b
     dac:	9c 85       	ldd	r25, Y+12	; 0x0c
     dae:	0e 94 50 09 	call	0x12a0	; 0x12a0 <oled_print_string>
	
	if (menu->child1 != NULL)
     db2:	8a 81       	ldd	r24, Y+2	; 0x02
     db4:	9b 81       	ldd	r25, Y+3	; 0x03
     db6:	89 2b       	or	r24, r25
     db8:	51 f0       	breq	.+20     	; 0xdce <print_menu+0x3a>
	{
		oled_pos(2,2);
     dba:	62 e0       	ldi	r22, 0x02	; 2
     dbc:	82 e0       	ldi	r24, 0x02	; 2
     dbe:	0e 94 31 09 	call	0x1262	; 0x1262 <oled_pos>
		oled_print_string(menu->child1->name);
     dc2:	ea 81       	ldd	r30, Y+2	; 0x02
     dc4:	fb 81       	ldd	r31, Y+3	; 0x03
     dc6:	83 85       	ldd	r24, Z+11	; 0x0b
     dc8:	94 85       	ldd	r25, Z+12	; 0x0c
     dca:	0e 94 50 09 	call	0x12a0	; 0x12a0 <oled_print_string>
	}
	
	if (menu->child2 != NULL)
     dce:	8c 81       	ldd	r24, Y+4	; 0x04
     dd0:	9d 81       	ldd	r25, Y+5	; 0x05
     dd2:	89 2b       	or	r24, r25
     dd4:	51 f0       	breq	.+20     	; 0xdea <print_menu+0x56>
	{
		oled_pos(3,2);
     dd6:	62 e0       	ldi	r22, 0x02	; 2
     dd8:	83 e0       	ldi	r24, 0x03	; 3
     dda:	0e 94 31 09 	call	0x1262	; 0x1262 <oled_pos>
		oled_print_string(menu->child2->name);
     dde:	ec 81       	ldd	r30, Y+4	; 0x04
     de0:	fd 81       	ldd	r31, Y+5	; 0x05
     de2:	83 85       	ldd	r24, Z+11	; 0x0b
     de4:	94 85       	ldd	r25, Z+12	; 0x0c
     de6:	0e 94 50 09 	call	0x12a0	; 0x12a0 <oled_print_string>
	}

	if (menu->child3 != NULL)
     dea:	8e 81       	ldd	r24, Y+6	; 0x06
     dec:	9f 81       	ldd	r25, Y+7	; 0x07
     dee:	89 2b       	or	r24, r25
     df0:	51 f0       	breq	.+20     	; 0xe06 <print_menu+0x72>
	{
		oled_pos(4,2);
     df2:	62 e0       	ldi	r22, 0x02	; 2
     df4:	84 e0       	ldi	r24, 0x04	; 4
     df6:	0e 94 31 09 	call	0x1262	; 0x1262 <oled_pos>
		oled_print_string(menu->child3->name);
     dfa:	ee 81       	ldd	r30, Y+6	; 0x06
     dfc:	ff 81       	ldd	r31, Y+7	; 0x07
     dfe:	83 85       	ldd	r24, Z+11	; 0x0b
     e00:	94 85       	ldd	r25, Z+12	; 0x0c
     e02:	0e 94 50 09 	call	0x12a0	; 0x12a0 <oled_print_string>
	}
	if (menu->child4 != NULL)
     e06:	88 85       	ldd	r24, Y+8	; 0x08
     e08:	99 85       	ldd	r25, Y+9	; 0x09
     e0a:	89 2b       	or	r24, r25
     e0c:	51 f0       	breq	.+20     	; 0xe22 <print_menu+0x8e>
	{
		oled_pos(5,2);
     e0e:	62 e0       	ldi	r22, 0x02	; 2
     e10:	85 e0       	ldi	r24, 0x05	; 5
     e12:	0e 94 31 09 	call	0x1262	; 0x1262 <oled_pos>
		oled_print_string(menu->child4->name);
     e16:	e8 85       	ldd	r30, Y+8	; 0x08
     e18:	f9 85       	ldd	r31, Y+9	; 0x09
     e1a:	83 85       	ldd	r24, Z+11	; 0x0b
     e1c:	94 85       	ldd	r25, Z+12	; 0x0c
     e1e:	0e 94 50 09 	call	0x12a0	; 0x12a0 <oled_print_string>
	}
	
	// Print the current difficulty setting.
	oled_pos(7,2);
     e22:	62 e0       	ldi	r22, 0x02	; 2
     e24:	87 e0       	ldi	r24, 0x07	; 7
     e26:	0e 94 31 09 	call	0x1262	; 0x1262 <oled_pos>
typedef enum {EASY, MEDIUM, HARD} difficulty;
	
static inline char *stringFromDifficulty(difficulty d)
{
	static const char *strings[] = { "EASY", "MEDIUM", "HARD"};
	return strings[d];
     e2a:	e0 91 26 03 	lds	r30, 0x0326
     e2e:	f0 e0       	ldi	r31, 0x00	; 0
     e30:	ee 0f       	add	r30, r30
     e32:	ff 1f       	adc	r31, r31
     e34:	e7 5c       	subi	r30, 0xC7	; 199
     e36:	fd 4f       	sbci	r31, 0xFD	; 253
	oled_print_string(("DFFCLTY: %s", stringFromDifficulty(GitGud)));
     e38:	80 81       	ld	r24, Z
     e3a:	91 81       	ldd	r25, Z+1	; 0x01
     e3c:	0e 94 50 09 	call	0x12a0	; 0x12a0 <oled_print_string>
}
     e40:	df 91       	pop	r29
     e42:	cf 91       	pop	r28
     e44:	08 95       	ret

00000e46 <navigateMenu>:
}
	

// Traverses the linked list into submenus
void navigateMenu(uint8_t current_line) {
	switch(current_line) {
     e46:	83 30       	cpi	r24, 0x03	; 3
     e48:	31 f1       	breq	.+76     	; 0xe96 <navigateMenu+0x50>
     e4a:	84 30       	cpi	r24, 0x04	; 4
     e4c:	09 f4       	brne	.+2      	; 0xe50 <navigateMenu+0xa>
     e4e:	42 c0       	rjmp	.+132    	; 0xed4 <navigateMenu+0x8e>
     e50:	82 30       	cpi	r24, 0x02	; 2
     e52:	09 f0       	breq	.+2      	; 0xe56 <navigateMenu+0x10>
     e54:	5d c0       	rjmp	.+186    	; 0xf10 <navigateMenu+0xca>
		case 2:
		if (current_menu->child1 != NULL) {
     e56:	e0 91 2c 03 	lds	r30, 0x032C
     e5a:	f0 91 2d 03 	lds	r31, 0x032D
     e5e:	82 81       	ldd	r24, Z+2	; 0x02
     e60:	93 81       	ldd	r25, Z+3	; 0x03
     e62:	00 97       	sbiw	r24, 0x00	; 0
     e64:	09 f4       	brne	.+2      	; 0xe68 <navigateMenu+0x22>
     e66:	54 c0       	rjmp	.+168    	; 0xf10 <navigateMenu+0xca>
			current_menu = current_menu -> child1;
     e68:	90 93 2d 03 	sts	0x032D, r25
     e6c:	80 93 2c 03 	sts	0x032C, r24
			oled_pos(current_line, 0);
     e70:	60 e0       	ldi	r22, 0x00	; 0
     e72:	82 e0       	ldi	r24, 0x02	; 2
     e74:	0e 94 31 09 	call	0x1262	; 0x1262 <oled_pos>
			oled_print_string("  ");
     e78:	86 e3       	ldi	r24, 0x36	; 54
     e7a:	92 e0       	ldi	r25, 0x02	; 2
     e7c:	0e 94 50 09 	call	0x12a0	; 0x12a0 <oled_print_string>
			move_arrow(NEUTRAL, 2);
     e80:	62 e0       	ldi	r22, 0x02	; 2
     e82:	84 e0       	ldi	r24, 0x04	; 4
     e84:	0e 94 8a 06 	call	0xd14	; 0xd14 <move_arrow>
			print_menu(current_menu);
     e88:	80 91 2c 03 	lds	r24, 0x032C
     e8c:	90 91 2d 03 	lds	r25, 0x032D
     e90:	0e 94 ca 06 	call	0xd94	; 0xd94 <print_menu>
     e94:	08 95       	ret
		}
		break;
		
		case 3:
		if (current_menu->child2 != NULL) {
     e96:	e0 91 2c 03 	lds	r30, 0x032C
     e9a:	f0 91 2d 03 	lds	r31, 0x032D
     e9e:	84 81       	ldd	r24, Z+4	; 0x04
     ea0:	95 81       	ldd	r25, Z+5	; 0x05
     ea2:	00 97       	sbiw	r24, 0x00	; 0
     ea4:	a9 f1       	breq	.+106    	; 0xf10 <navigateMenu+0xca>
			current_menu = current_menu -> child2;
     ea6:	90 93 2d 03 	sts	0x032D, r25
     eaa:	80 93 2c 03 	sts	0x032C, r24
			oled_pos(current_line, 0);
     eae:	60 e0       	ldi	r22, 0x00	; 0
     eb0:	83 e0       	ldi	r24, 0x03	; 3
     eb2:	0e 94 31 09 	call	0x1262	; 0x1262 <oled_pos>
			oled_print_string("  ");
     eb6:	86 e3       	ldi	r24, 0x36	; 54
     eb8:	92 e0       	ldi	r25, 0x02	; 2
     eba:	0e 94 50 09 	call	0x12a0	; 0x12a0 <oled_print_string>
			move_arrow(NEUTRAL, 2);
     ebe:	62 e0       	ldi	r22, 0x02	; 2
     ec0:	84 e0       	ldi	r24, 0x04	; 4
     ec2:	0e 94 8a 06 	call	0xd14	; 0xd14 <move_arrow>
			print_menu(current_menu);
     ec6:	80 91 2c 03 	lds	r24, 0x032C
     eca:	90 91 2d 03 	lds	r25, 0x032D
     ece:	0e 94 ca 06 	call	0xd94	; 0xd94 <print_menu>
     ed2:	08 95       	ret
		}
		break;
		
		case 4:
		if (current_menu->child3 != NULL) {
     ed4:	e0 91 2c 03 	lds	r30, 0x032C
     ed8:	f0 91 2d 03 	lds	r31, 0x032D
     edc:	86 81       	ldd	r24, Z+6	; 0x06
     ede:	97 81       	ldd	r25, Z+7	; 0x07
     ee0:	00 97       	sbiw	r24, 0x00	; 0
     ee2:	b1 f0       	breq	.+44     	; 0xf10 <navigateMenu+0xca>
			current_menu = current_menu -> child3;
     ee4:	90 93 2d 03 	sts	0x032D, r25
     ee8:	80 93 2c 03 	sts	0x032C, r24
			oled_pos(current_line, 0);
     eec:	60 e0       	ldi	r22, 0x00	; 0
     eee:	84 e0       	ldi	r24, 0x04	; 4
     ef0:	0e 94 31 09 	call	0x1262	; 0x1262 <oled_pos>
			oled_print_string("  ");
     ef4:	86 e3       	ldi	r24, 0x36	; 54
     ef6:	92 e0       	ldi	r25, 0x02	; 2
     ef8:	0e 94 50 09 	call	0x12a0	; 0x12a0 <oled_print_string>
			move_arrow(NEUTRAL, 2);
     efc:	62 e0       	ldi	r22, 0x02	; 2
     efe:	84 e0       	ldi	r24, 0x04	; 4
     f00:	0e 94 8a 06 	call	0xd14	; 0xd14 <move_arrow>
			print_menu(current_menu);
     f04:	80 91 2c 03 	lds	r24, 0x032C
     f08:	90 91 2d 03 	lds	r25, 0x032D
     f0c:	0e 94 ca 06 	call	0xd94	; 0xd94 <print_menu>
     f10:	08 95       	ret

00000f12 <button_action>:
	return GitGud;
}

// Implements action based on joystick button presses
// Possibility for cleaner code, written in a hurry :-)
uint8_t button_action (uint8_t current_line) {
     f12:	ff 92       	push	r15
     f14:	0f 93       	push	r16
     f16:	1f 93       	push	r17
     f18:	cf 93       	push	r28
     f1a:	df 93       	push	r29
     f1c:	f8 2e       	mov	r15, r24
	// Fix "magic numbers", current_line = some menu etc.
	// Should be independent of the actual linked list
	// Change the struct to an array of children, and use current_line as index?
	// Think that should work
	if (strcmp(current_menu->name, "MAIN MENU") == 0)
     f1e:	00 91 2c 03 	lds	r16, 0x032C
     f22:	10 91 2d 03 	lds	r17, 0x032D
     f26:	f8 01       	movw	r30, r16
     f28:	c3 85       	ldd	r28, Z+11	; 0x0b
     f2a:	d4 85       	ldd	r29, Z+12	; 0x0c
     f2c:	60 ed       	ldi	r22, 0xD0	; 208
     f2e:	71 e0       	ldi	r23, 0x01	; 1
     f30:	ce 01       	movw	r24, r28
     f32:	0e 94 b6 0d 	call	0x1b6c	; 0x1b6c <strcmp>
     f36:	89 2b       	or	r24, r25
     f38:	89 f4       	brne	.+34     	; 0xf5c <button_action+0x4a>
	{
		if(current_line == 2)
     f3a:	f2 e0       	ldi	r31, 0x02	; 2
     f3c:	ff 16       	cp	r15, r31
     f3e:	09 f4       	brne	.+2      	; 0xf42 <button_action+0x30>
     f40:	99 c0       	rjmp	.+306    	; 0x1074 <button_action+0x162>
		{
			game_started == 1;
		}
		else if (current_line == 3) {
     f42:	83 e0       	ldi	r24, 0x03	; 3
     f44:	f8 12       	cpse	r15, r24
     f46:	05 c0       	rjmp	.+10     	; 0xf52 <button_action+0x40>
			print_highscore();
			navigateMenu(current_line);
     f48:	83 e0       	ldi	r24, 0x03	; 3
     f4a:	90 e0       	ldi	r25, 0x00	; 0
     f4c:	0e 94 23 07 	call	0xe46	; 0xe46 <navigateMenu>
     f50:	91 c0       	rjmp	.+290    	; 0x1074 <button_action+0x162>
		}
		else navigateMenu(current_line);
     f52:	8f 2d       	mov	r24, r15
     f54:	90 e0       	ldi	r25, 0x00	; 0
     f56:	0e 94 23 07 	call	0xe46	; 0xe46 <navigateMenu>
     f5a:	8c c0       	rjmp	.+280    	; 0x1074 <button_action+0x162>
	}
	else if (strcmp(current_menu->name, "SETTINGS") == 0)
     f5c:	6e ee       	ldi	r22, 0xEE	; 238
     f5e:	71 e0       	ldi	r23, 0x01	; 1
     f60:	ce 01       	movw	r24, r28
     f62:	0e 94 b6 0d 	call	0x1b6c	; 0x1b6c <strcmp>
     f66:	89 2b       	or	r24, r25
     f68:	c1 f5       	brne	.+112    	; 0xfda <button_action+0xc8>
	{
		if (current_line == 2)
     f6a:	e2 e0       	ldi	r30, 0x02	; 2
     f6c:	fe 12       	cpse	r15, r30
     f6e:	05 c0       	rjmp	.+10     	; 0xf7a <button_action+0x68>
		{
			navigateMenu(current_line);
     f70:	82 e0       	ldi	r24, 0x02	; 2
     f72:	90 e0       	ldi	r25, 0x00	; 0
     f74:	0e 94 23 07 	call	0xe46	; 0xe46 <navigateMenu>
     f78:	7d c0       	rjmp	.+250    	; 0x1074 <button_action+0x162>
		}
		else if (current_line == 3) {
     f7a:	f3 e0       	ldi	r31, 0x03	; 3
     f7c:	ff 12       	cpse	r15, r31
     f7e:	09 c0       	rjmp	.+18     	; 0xf92 <button_action+0x80>
			oled_pos(current_line, 0);
     f80:	60 e0       	ldi	r22, 0x00	; 0
     f82:	83 e0       	ldi	r24, 0x03	; 3
     f84:	0e 94 31 09 	call	0x1262	; 0x1262 <oled_pos>
			oled_print_string("  ");
     f88:	86 e3       	ldi	r24, 0x36	; 54
     f8a:	92 e0       	ldi	r25, 0x02	; 2
     f8c:	0e 94 50 09 	call	0x12a0	; 0x12a0 <oled_print_string>
     f90:	71 c0       	rjmp	.+226    	; 0x1074 <button_action+0x162>
		} // TODO Debugging
		
		else if (current_line == 4) {
     f92:	84 e0       	ldi	r24, 0x04	; 4
     f94:	f8 12       	cpse	r15, r24
     f96:	08 c0       	rjmp	.+16     	; 0xfa8 <button_action+0x96>
			oled_pos(current_line, 0);
     f98:	60 e0       	ldi	r22, 0x00	; 0
     f9a:	0e 94 31 09 	call	0x1262	; 0x1262 <oled_pos>
			oled_print_string("  ");
     f9e:	86 e3       	ldi	r24, 0x36	; 54
     fa0:	92 e0       	ldi	r25, 0x02	; 2
     fa2:	0e 94 50 09 	call	0x12a0	; 0x12a0 <oled_print_string>
     fa6:	66 c0       	rjmp	.+204    	; 0x1074 <button_action+0x162>
		} // TODO Calibrate joystick
		
		else if (current_line == 5) {
     fa8:	e5 e0       	ldi	r30, 0x05	; 5
     faa:	fe 12       	cpse	r15, r30
     fac:	63 c0       	rjmp	.+198    	; 0x1074 <button_action+0x162>
			current_menu = current_menu -> parent;
     fae:	f8 01       	movw	r30, r16
     fb0:	80 81       	ld	r24, Z
     fb2:	91 81       	ldd	r25, Z+1	; 0x01
     fb4:	90 93 2d 03 	sts	0x032D, r25
     fb8:	80 93 2c 03 	sts	0x032C, r24
			oled_pos(current_line, 0);
     fbc:	60 e0       	ldi	r22, 0x00	; 0
     fbe:	85 e0       	ldi	r24, 0x05	; 5
     fc0:	0e 94 31 09 	call	0x1262	; 0x1262 <oled_pos>
			oled_print_string("  ");
     fc4:	86 e3       	ldi	r24, 0x36	; 54
     fc6:	92 e0       	ldi	r25, 0x02	; 2
     fc8:	0e 94 50 09 	call	0x12a0	; 0x12a0 <oled_print_string>
			print_menu(current_menu);
     fcc:	80 91 2c 03 	lds	r24, 0x032C
     fd0:	90 91 2d 03 	lds	r25, 0x032D
     fd4:	0e 94 ca 06 	call	0xd94	; 0xd94 <print_menu>
     fd8:	4d c0       	rjmp	.+154    	; 0x1074 <button_action+0x162>
		}
		
	}
	else if (strcmp(current_menu->name, "SET DIFFICULTY") == 0) {
     fda:	6e ef       	ldi	r22, 0xFE	; 254
     fdc:	71 e0       	ldi	r23, 0x01	; 1
     fde:	ce 01       	movw	r24, r28
     fe0:	0e 94 b6 0d 	call	0x1b6c	; 0x1b6c <strcmp>
     fe4:	89 2b       	or	r24, r25
     fe6:	51 f5       	brne	.+84     	; 0x103c <button_action+0x12a>
		if (current_line == 2) GitGud = EASY;
     fe8:	f2 e0       	ldi	r31, 0x02	; 2
     fea:	ff 12       	cpse	r15, r31
     fec:	03 c0       	rjmp	.+6      	; 0xff4 <button_action+0xe2>
     fee:	10 92 26 03 	sts	0x0326, r1
     ff2:	1d c0       	rjmp	.+58     	; 0x102e <button_action+0x11c>
		else if (current_line == 3) GitGud = MEDIUM;
     ff4:	83 e0       	ldi	r24, 0x03	; 3
     ff6:	f8 12       	cpse	r15, r24
     ff8:	04 c0       	rjmp	.+8      	; 0x1002 <button_action+0xf0>
     ffa:	81 e0       	ldi	r24, 0x01	; 1
     ffc:	80 93 26 03 	sts	0x0326, r24
    1000:	16 c0       	rjmp	.+44     	; 0x102e <button_action+0x11c>
		else if (current_line == 4) GitGud = HARD;
    1002:	e4 e0       	ldi	r30, 0x04	; 4
    1004:	fe 12       	cpse	r15, r30
    1006:	04 c0       	rjmp	.+8      	; 0x1010 <button_action+0xfe>
    1008:	82 e0       	ldi	r24, 0x02	; 2
    100a:	80 93 26 03 	sts	0x0326, r24
    100e:	0f c0       	rjmp	.+30     	; 0x102e <button_action+0x11c>
		else {
			current_menu = current_menu->parent;
    1010:	f8 01       	movw	r30, r16
    1012:	20 81       	ld	r18, Z
    1014:	31 81       	ldd	r19, Z+1	; 0x01
    1016:	30 93 2d 03 	sts	0x032D, r19
    101a:	20 93 2c 03 	sts	0x032C, r18
			oled_pos(current_line, 0);
    101e:	60 e0       	ldi	r22, 0x00	; 0
    1020:	8f 2d       	mov	r24, r15
    1022:	0e 94 31 09 	call	0x1262	; 0x1262 <oled_pos>
			oled_print_string("  ");
    1026:	86 e3       	ldi	r24, 0x36	; 54
    1028:	92 e0       	ldi	r25, 0x02	; 2
    102a:	0e 94 50 09 	call	0x12a0	; 0x12a0 <oled_print_string>
		}
		print_menu(current_menu);
    102e:	80 91 2c 03 	lds	r24, 0x032C
    1032:	90 91 2d 03 	lds	r25, 0x032D
    1036:	0e 94 ca 06 	call	0xd94	; 0xd94 <print_menu>
    103a:	1c c0       	rjmp	.+56     	; 0x1074 <button_action+0x162>
	}
	
	else if (strcmp(current_menu->name, "HIGH SCORE") == 0) {
    103c:	63 ee       	ldi	r22, 0xE3	; 227
    103e:	71 e0       	ldi	r23, 0x01	; 1
    1040:	ce 01       	movw	r24, r28
    1042:	0e 94 b6 0d 	call	0x1b6c	; 0x1b6c <strcmp>
    1046:	89 2b       	or	r24, r25
    1048:	a9 f4       	brne	.+42     	; 0x1074 <button_action+0x162>
		current_menu = current_menu -> parent;
    104a:	f8 01       	movw	r30, r16
    104c:	20 81       	ld	r18, Z
    104e:	31 81       	ldd	r19, Z+1	; 0x01
    1050:	30 93 2d 03 	sts	0x032D, r19
    1054:	20 93 2c 03 	sts	0x032C, r18
		oled_pos(current_line, 0);
    1058:	60 e0       	ldi	r22, 0x00	; 0
    105a:	8f 2d       	mov	r24, r15
    105c:	0e 94 31 09 	call	0x1262	; 0x1262 <oled_pos>
		oled_print_string("  ");
    1060:	86 e3       	ldi	r24, 0x36	; 54
    1062:	92 e0       	ldi	r25, 0x02	; 2
    1064:	0e 94 50 09 	call	0x12a0	; 0x12a0 <oled_print_string>
		print_menu(current_menu);
    1068:	80 91 2c 03 	lds	r24, 0x032C
    106c:	90 91 2d 03 	lds	r25, 0x032D
    1070:	0e 94 ca 06 	call	0xd94	; 0xd94 <print_menu>
	}
	return game_started;
}
    1074:	80 91 25 03 	lds	r24, 0x0325
    1078:	df 91       	pop	r29
    107a:	cf 91       	pop	r28
    107c:	1f 91       	pop	r17
    107e:	0f 91       	pop	r16
    1080:	ff 90       	pop	r15
    1082:	08 95       	ret

00001084 <oled_home>:
	oled_home();
	
}

void write_c(unsigned char char_command){
	*command_address= char_command;
    1084:	e0 91 0e 01 	lds	r30, 0x010E
    1088:	f0 91 0f 01 	lds	r31, 0x010F
    108c:	81 e2       	ldi	r24, 0x21	; 33
    108e:	80 83       	st	Z, r24
    1090:	e0 91 0e 01 	lds	r30, 0x010E
    1094:	f0 91 0f 01 	lds	r31, 0x010F
    1098:	10 82       	st	Z, r1
    109a:	e0 91 0e 01 	lds	r30, 0x010E
    109e:	f0 91 0f 01 	lds	r31, 0x010F
    10a2:	8f e7       	ldi	r24, 0x7F	; 127
    10a4:	80 83       	st	Z, r24
    10a6:	e0 91 0e 01 	lds	r30, 0x010E
    10aa:	f0 91 0f 01 	lds	r31, 0x010F
    10ae:	82 e2       	ldi	r24, 0x22	; 34
    10b0:	80 83       	st	Z, r24
    10b2:	e0 91 0e 01 	lds	r30, 0x010E
    10b6:	f0 91 0f 01 	lds	r31, 0x010F
    10ba:	10 82       	st	Z, r1
    10bc:	e0 91 0e 01 	lds	r30, 0x010E
    10c0:	f0 91 0f 01 	lds	r31, 0x010F
    10c4:	87 e0       	ldi	r24, 0x07	; 7
    10c6:	80 83       	st	Z, r24
	write_c(0x7F);//end of column address
	
	write_c(0x22);//starting command (set page address)
	write_c(0x00);// start of page address
	write_c(0x07);//end of page address
	currentLine=0;
    10c8:	10 92 2e 03 	sts	0x032E, r1
    10cc:	08 95       	ret

000010ce <oled_goto_line>:
}
void oled_goto_line(uint8_t line){
	if (line < 8){
    10ce:	88 30       	cpi	r24, 0x08	; 8
    10d0:	40 f4       	brcc	.+16     	; 0x10e2 <oled_goto_line+0x14>
		currentLine=line;
    10d2:	80 93 2e 03 	sts	0x032E, r24
		write_c(0xb0 + line);
    10d6:	80 55       	subi	r24, 0x50	; 80
	oled_home();
	
}

void write_c(unsigned char char_command){
	*command_address= char_command;
    10d8:	e0 91 0e 01 	lds	r30, 0x010E
    10dc:	f0 91 0f 01 	lds	r31, 0x010F
    10e0:	80 83       	st	Z, r24
    10e2:	08 95       	ret

000010e4 <oled_goto_column>:
	}
}
void oled_goto_column(uint8_t column){
	//oled_goto_line(currentLine);
	
	if(column*FONTWIDTH <= 127)
    10e4:	28 2f       	mov	r18, r24
    10e6:	30 e0       	ldi	r19, 0x00	; 0
    10e8:	22 0f       	add	r18, r18
    10ea:	33 1f       	adc	r19, r19
    10ec:	22 0f       	add	r18, r18
    10ee:	33 1f       	adc	r19, r19
    10f0:	22 0f       	add	r18, r18
    10f2:	33 1f       	adc	r19, r19
    10f4:	20 38       	cpi	r18, 0x80	; 128
    10f6:	31 05       	cpc	r19, r1
    10f8:	a4 f4       	brge	.+40     	; 0x1122 <oled_goto_column+0x3e>
	{
		column = column*FONTWIDTH;
    10fa:	88 0f       	add	r24, r24
    10fc:	88 0f       	add	r24, r24
    10fe:	88 0f       	add	r24, r24
		current_column = column;
    1100:	80 93 2f 03 	sts	0x032F, r24
		char c1 = 0x00 + (column & 0x0F);
    1104:	98 2f       	mov	r25, r24
    1106:	9f 70       	andi	r25, 0x0F	; 15
		char c2 = 0x10 + ((column & 0xF0)>>4);
    1108:	82 95       	swap	r24
    110a:	8f 70       	andi	r24, 0x0F	; 15
    110c:	80 5f       	subi	r24, 0xF0	; 240
	oled_home();
	
}

void write_c(unsigned char char_command){
	*command_address= char_command;
    110e:	e0 91 0e 01 	lds	r30, 0x010E
    1112:	f0 91 0f 01 	lds	r31, 0x010F
    1116:	90 83       	st	Z, r25
    1118:	e0 91 0e 01 	lds	r30, 0x010E
    111c:	f0 91 0f 01 	lds	r31, 0x010F
    1120:	80 83       	st	Z, r24
    1122:	08 95       	ret

00001124 <oled_clear_line>:
		write_c(c1);
		write_c(c2);
	}
}
void oled_clear_line(uint8_t line){
	oled_goto_line(line);
    1124:	0e 94 67 08 	call	0x10ce	; 0x10ce <oled_goto_line>
    1128:	80 e8       	ldi	r24, 0x80	; 128
    112a:	90 e0       	ldi	r25, 0x00	; 0
void write_c(unsigned char char_command){
	*command_address= char_command;
}

void write_d(unsigned char char_data){
	*data_address = char_data;
    112c:	e0 91 0c 01 	lds	r30, 0x010C
    1130:	f0 91 0d 01 	lds	r31, 0x010D
    1134:	10 82       	st	Z, r1
    1136:	01 97       	sbiw	r24, 0x01	; 1
		write_c(c2);
	}
}
void oled_clear_line(uint8_t line){
	oled_goto_line(line);
	for (int i = 0; i<128;i++)
    1138:	00 97       	sbiw	r24, 0x00	; 0
    113a:	c1 f7       	brne	.-16     	; 0x112c <oled_clear_line+0x8>
	{
		write_d(0x00);
	}
}
    113c:	08 95       	ret

0000113e <oled_reset>:

void write_d(unsigned char char_data){
	*data_address = char_data;
}

void oled_reset(){
    113e:	cf 93       	push	r28
    1140:	c0 e0       	ldi	r28, 0x00	; 0
	for (int i = 0; i<8;i++){
		oled_clear_line(i);
    1142:	8c 2f       	mov	r24, r28
    1144:	0e 94 92 08 	call	0x1124	; 0x1124 <oled_clear_line>
    1148:	cf 5f       	subi	r28, 0xFF	; 255
void write_d(unsigned char char_data){
	*data_address = char_data;
}

void oled_reset(){
	for (int i = 0; i<8;i++){
    114a:	c8 30       	cpi	r28, 0x08	; 8
    114c:	d1 f7       	brne	.-12     	; 0x1142 <oled_reset+0x4>
		oled_clear_line(i);
	}
}
    114e:	cf 91       	pop	r28
    1150:	08 95       	ret

00001152 <oled_init>:
	oled_home();
	
}

void write_c(unsigned char char_command){
	*command_address= char_command;
    1152:	e0 91 0e 01 	lds	r30, 0x010E
    1156:	f0 91 0f 01 	lds	r31, 0x010F
    115a:	8e ea       	ldi	r24, 0xAE	; 174
    115c:	80 83       	st	Z, r24
    115e:	e0 91 0e 01 	lds	r30, 0x010E
    1162:	f0 91 0f 01 	lds	r31, 0x010F
    1166:	81 ea       	ldi	r24, 0xA1	; 161
    1168:	80 83       	st	Z, r24
    116a:	e0 91 0e 01 	lds	r30, 0x010E
    116e:	f0 91 0f 01 	lds	r31, 0x010F
    1172:	8a ed       	ldi	r24, 0xDA	; 218
    1174:	80 83       	st	Z, r24
    1176:	e0 91 0e 01 	lds	r30, 0x010E
    117a:	f0 91 0f 01 	lds	r31, 0x010F
    117e:	82 e1       	ldi	r24, 0x12	; 18
    1180:	80 83       	st	Z, r24
    1182:	e0 91 0e 01 	lds	r30, 0x010E
    1186:	f0 91 0f 01 	lds	r31, 0x010F
    118a:	88 ec       	ldi	r24, 0xC8	; 200
    118c:	80 83       	st	Z, r24
    118e:	e0 91 0e 01 	lds	r30, 0x010E
    1192:	f0 91 0f 01 	lds	r31, 0x010F
    1196:	88 ea       	ldi	r24, 0xA8	; 168
    1198:	80 83       	st	Z, r24
    119a:	e0 91 0e 01 	lds	r30, 0x010E
    119e:	f0 91 0f 01 	lds	r31, 0x010F
    11a2:	8f e3       	ldi	r24, 0x3F	; 63
    11a4:	80 83       	st	Z, r24
    11a6:	e0 91 0e 01 	lds	r30, 0x010E
    11aa:	f0 91 0f 01 	lds	r31, 0x010F
    11ae:	85 ed       	ldi	r24, 0xD5	; 213
    11b0:	80 83       	st	Z, r24
    11b2:	e0 91 0e 01 	lds	r30, 0x010E
    11b6:	f0 91 0f 01 	lds	r31, 0x010F
    11ba:	80 e8       	ldi	r24, 0x80	; 128
    11bc:	80 83       	st	Z, r24
    11be:	e0 91 0e 01 	lds	r30, 0x010E
    11c2:	f0 91 0f 01 	lds	r31, 0x010F
    11c6:	81 e8       	ldi	r24, 0x81	; 129
    11c8:	80 83       	st	Z, r24
    11ca:	e0 91 0e 01 	lds	r30, 0x010E
    11ce:	f0 91 0f 01 	lds	r31, 0x010F
    11d2:	80 e5       	ldi	r24, 0x50	; 80
    11d4:	80 83       	st	Z, r24
    11d6:	e0 91 0e 01 	lds	r30, 0x010E
    11da:	f0 91 0f 01 	lds	r31, 0x010F
    11de:	89 ed       	ldi	r24, 0xD9	; 217
    11e0:	80 83       	st	Z, r24
    11e2:	e0 91 0e 01 	lds	r30, 0x010E
    11e6:	f0 91 0f 01 	lds	r31, 0x010F
    11ea:	81 e2       	ldi	r24, 0x21	; 33
    11ec:	80 83       	st	Z, r24
    11ee:	e0 91 0e 01 	lds	r30, 0x010E
    11f2:	f0 91 0f 01 	lds	r31, 0x010F
    11f6:	80 e2       	ldi	r24, 0x20	; 32
    11f8:	80 83       	st	Z, r24
    11fa:	e0 91 0e 01 	lds	r30, 0x010E
    11fe:	f0 91 0f 01 	lds	r31, 0x010F
    1202:	82 e0       	ldi	r24, 0x02	; 2
    1204:	80 83       	st	Z, r24
    1206:	e0 91 0e 01 	lds	r30, 0x010E
    120a:	f0 91 0f 01 	lds	r31, 0x010F
    120e:	8b ed       	ldi	r24, 0xDB	; 219
    1210:	80 83       	st	Z, r24
    1212:	e0 91 0e 01 	lds	r30, 0x010E
    1216:	f0 91 0f 01 	lds	r31, 0x010F
    121a:	80 e3       	ldi	r24, 0x30	; 48
    121c:	80 83       	st	Z, r24
    121e:	e0 91 0e 01 	lds	r30, 0x010E
    1222:	f0 91 0f 01 	lds	r31, 0x010F
    1226:	8d ea       	ldi	r24, 0xAD	; 173
    1228:	80 83       	st	Z, r24
    122a:	e0 91 0e 01 	lds	r30, 0x010E
    122e:	f0 91 0f 01 	lds	r31, 0x010F
    1232:	10 82       	st	Z, r1
    1234:	e0 91 0e 01 	lds	r30, 0x010E
    1238:	f0 91 0f 01 	lds	r31, 0x010F
    123c:	84 ea       	ldi	r24, 0xA4	; 164
    123e:	80 83       	st	Z, r24
    1240:	e0 91 0e 01 	lds	r30, 0x010E
    1244:	f0 91 0f 01 	lds	r31, 0x010F
    1248:	86 ea       	ldi	r24, 0xA6	; 166
    124a:	80 83       	st	Z, r24
    124c:	e0 91 0e 01 	lds	r30, 0x010E
    1250:	f0 91 0f 01 	lds	r31, 0x010F
    1254:	8f ea       	ldi	r24, 0xAF	; 175
    1256:	80 83       	st	Z, r24
	write_c(0xad);        //master  configuration
	write_c(0x00);
	write_c(0xa4);        //out  follows  RAM  content
	write_c(0xa6);        //set  normal  display
	write_c(0xaf);        //  display  on
	oled_reset();
    1258:	0e 94 9f 08 	call	0x113e	; 0x113e <oled_reset>
	oled_home();
    125c:	0e 94 42 08 	call	0x1084	; 0x1084 <oled_home>
    1260:	08 95       	ret

00001262 <oled_pos>:
	for (int i = 0; i<128;i++)
	{
		write_d(0x00);
	}
}
void oled_pos(uint8_t row, uint8_t column){
    1262:	cf 93       	push	r28
    1264:	c6 2f       	mov	r28, r22
	oled_goto_line(row);
    1266:	0e 94 67 08 	call	0x10ce	; 0x10ce <oled_goto_line>
	oled_goto_column(column);
    126a:	8c 2f       	mov	r24, r28
    126c:	0e 94 72 08 	call	0x10e4	; 0x10e4 <oled_goto_column>
}
    1270:	cf 91       	pop	r28
    1272:	08 95       	ret

00001274 <oled_print_char>:
void oled_print_char(char character){
    1274:	28 e0       	ldi	r18, 0x08	; 8
    1276:	82 9f       	mul	r24, r18
    1278:	c0 01       	movw	r24, r0
    127a:	11 24       	eor	r1, r1
    127c:	fc 01       	movw	r30, r24
    127e:	e0 59       	subi	r30, 0x90	; 144
    1280:	f0 40       	sbci	r31, 0x00	; 0
	
	for (int i = 0; i<FONTWIDTH;i++)
    1282:	20 e0       	ldi	r18, 0x00	; 0
    1284:	30 e0       	ldi	r19, 0x00	; 0
	{
		write_d(pgm_read_byte(&font[character - ' '][i]));
    1286:	84 91       	lpm	r24, Z
void write_c(unsigned char char_command){
	*command_address= char_command;
}

void write_d(unsigned char char_data){
	*data_address = char_data;
    1288:	a0 91 0c 01 	lds	r26, 0x010C
    128c:	b0 91 0d 01 	lds	r27, 0x010D
    1290:	8c 93       	st	X, r24
	oled_goto_line(row);
	oled_goto_column(column);
}
void oled_print_char(char character){
	
	for (int i = 0; i<FONTWIDTH;i++)
    1292:	2f 5f       	subi	r18, 0xFF	; 255
    1294:	3f 4f       	sbci	r19, 0xFF	; 255
    1296:	31 96       	adiw	r30, 0x01	; 1
    1298:	28 30       	cpi	r18, 0x08	; 8
    129a:	31 05       	cpc	r19, r1
    129c:	a1 f7       	brne	.-24     	; 0x1286 <oled_print_char+0x12>
	{
		write_d(pgm_read_byte(&font[character - ' '][i]));
	}
}
    129e:	08 95       	ret

000012a0 <oled_print_string>:

void oled_print_string(char* data)
{
    12a0:	0f 93       	push	r16
    12a2:	1f 93       	push	r17
    12a4:	cf 93       	push	r28
    12a6:	df 93       	push	r29
    12a8:	8c 01       	movw	r16, r24
	int i = 0;
    12aa:	c0 e0       	ldi	r28, 0x00	; 0
    12ac:	d0 e0       	ldi	r29, 0x00	; 0
	while(data[i] != '\0') {
    12ae:	0e c0       	rjmp	.+28     	; 0x12cc <oled_print_string+0x2c>
		oled_print_char(data[i]);
    12b0:	0e 94 3a 09 	call	0x1274	; 0x1274 <oled_print_char>
		i++;
    12b4:	21 96       	adiw	r28, 0x01	; 1
		if (i==16 || i==32)
    12b6:	c0 31       	cpi	r28, 0x10	; 16
    12b8:	d1 05       	cpc	r29, r1
    12ba:	19 f0       	breq	.+6      	; 0x12c2 <oled_print_string+0x22>
    12bc:	c0 32       	cpi	r28, 0x20	; 32
    12be:	d1 05       	cpc	r29, r1
    12c0:	29 f4       	brne	.+10     	; 0x12cc <oled_print_string+0x2c>
		{
			oled_goto_line(currentLine+1);
    12c2:	80 91 2e 03 	lds	r24, 0x032E
    12c6:	8f 5f       	subi	r24, 0xFF	; 255
    12c8:	0e 94 67 08 	call	0x10ce	; 0x10ce <oled_goto_line>
}

void oled_print_string(char* data)
{
	int i = 0;
	while(data[i] != '\0') {
    12cc:	f8 01       	movw	r30, r16
    12ce:	81 91       	ld	r24, Z+
    12d0:	8f 01       	movw	r16, r30
    12d2:	81 11       	cpse	r24, r1
    12d4:	ed cf       	rjmp	.-38     	; 0x12b0 <oled_print_string+0x10>
		if (i==16 || i==32)
		{
			oled_goto_line(currentLine+1);
		}
	}
}
    12d6:	df 91       	pop	r29
    12d8:	cf 91       	pop	r28
    12da:	1f 91       	pop	r17
    12dc:	0f 91       	pop	r16
    12de:	08 95       	ret

000012e0 <oled_print_arrow>:

void oled_print_arrow(uint8_t row,uint8_t col)
{
	oled_pos(row, col);
    12e0:	0e 94 31 09 	call	0x1262	; 0x1262 <oled_pos>
void write_c(unsigned char char_command){
	*command_address= char_command;
}

void write_d(unsigned char char_data){
	*data_address = char_data;
    12e4:	e0 91 0c 01 	lds	r30, 0x010C
    12e8:	f0 91 0d 01 	lds	r31, 0x010D
    12ec:	88 e1       	ldi	r24, 0x18	; 24
    12ee:	80 83       	st	Z, r24
    12f0:	e0 91 0c 01 	lds	r30, 0x010C
    12f4:	f0 91 0d 01 	lds	r31, 0x010D
    12f8:	80 83       	st	Z, r24
    12fa:	e0 91 0c 01 	lds	r30, 0x010C
    12fe:	f0 91 0d 01 	lds	r31, 0x010D
    1302:	9e e7       	ldi	r25, 0x7E	; 126
    1304:	90 83       	st	Z, r25
    1306:	e0 91 0c 01 	lds	r30, 0x010C
    130a:	f0 91 0d 01 	lds	r31, 0x010D
    130e:	9c e3       	ldi	r25, 0x3C	; 60
    1310:	90 83       	st	Z, r25
    1312:	e0 91 0c 01 	lds	r30, 0x010C
    1316:	f0 91 0d 01 	lds	r31, 0x010D
    131a:	80 83       	st	Z, r24
    131c:	08 95       	ret

0000131e <spi_init>:

void spi_init()
{
	/* Set MOSI and SCK output, all others input */
	// PB4 = !SS, PB5 = MOSI, PB6 = MISO, PB7 = SCK
	DDRB = (1<<MOSI)|(1<<SCK)|(1<<SPI_SS);
    131e:	80 eb       	ldi	r24, 0xB0	; 176
    1320:	87 bb       	out	0x17, r24	; 23
	 
	/* Enable SPI, Master, set clock rate fck/16 */
	SPCR = (1<<SPE)|(1<<MSTR)|(1<<SPR0);
    1322:	81 e5       	ldi	r24, 0x51	; 81
    1324:	8d b9       	out	0x0d, r24	; 13
	// Read SPSR and SPDR to clear interrupt flag
	char c1 = SPSR;
    1326:	8e b1       	in	r24, 0x0e	; 14
	char c2 = SPDR;
    1328:	8f b1       	in	r24, 0x0f	; 15
    132a:	08 95       	ret

0000132c <spi_send>:
}
void spi_send(char cData)
{
	/* Start transmission */
	SPDR = cData;
    132c:	8f b9       	out	0x0f, r24	; 15
	/* Wait for transmission complete */
	while(!(SPSR & (1<<SPIF)));
    132e:	77 9b       	sbis	0x0e, 7	; 14
    1330:	fe cf       	rjmp	.-4      	; 0x132e <spi_send+0x2>
}
    1332:	08 95       	ret

00001334 <spi_read>:

char spi_read() 
{

	SPDR = 0x00; // send dummy data
    1334:	1f b8       	out	0x0f, r1	; 15
	while(!(SPSR & (1<<SPIF))); // Wait until data is shifted into SPDR
    1336:	77 9b       	sbis	0x0e, 7	; 14
    1338:	fe cf       	rjmp	.-4      	; 0x1336 <spi_read+0x2>
	return SPDR;
    133a:	8f b1       	in	r24, 0x0f	; 15
}
    133c:	08 95       	ret

0000133e <spi_enable>:

void spi_enable()
{
	clear_bit(PORTB,SPI_SS);
    133e:	c4 98       	cbi	0x18, 4	; 24
    1340:	08 95       	ret

00001342 <spi_disable>:
}

void spi_disable()
{
	set_bit(PORTB,SPI_SS);
    1342:	c4 9a       	sbi	0x18, 4	; 24
    1344:	08 95       	ret

00001346 <sram_setup>:
	//set_bit(MCUCR,SRE);
	// Mask PC7-PC4
	//set_bit(SFIOR,XMM2);
	//SFIOR |= (1 << XMM2);
	return 0;
}
    1346:	80 e0       	ldi	r24, 0x00	; 0
    1348:	90 e0       	ldi	r25, 0x00	; 0
    134a:	08 95       	ret

0000134c <SRAM_test>:

uint8_t sram_read_from_address(unsigned int address) {
	volatile char *sram_address = (char *) 0x1800;
	return sram_address[address];
}
void SRAM_test(void) { 
    134c:	cf 92       	push	r12
    134e:	df 92       	push	r13
    1350:	ef 92       	push	r14
    1352:	ff 92       	push	r15
    1354:	0f 93       	push	r16
    1356:	1f 93       	push	r17
    1358:	cf 93       	push	r28
    135a:	df 93       	push	r29
	volatile char *ext_ram = (char *) 0x1800; // Start address for the SRAM 
	uint16_t ext_ram_size = 0x800; 
	uint16_t write_errors = 0; 
	uint16_t retrieval_errors = 0;
	printf("Starting SRAM test...\n");
    135c:	8f e3       	ldi	r24, 0x3F	; 63
    135e:	92 e0       	ldi	r25, 0x02	; 2
    1360:	0e 94 25 0e 	call	0x1c4a	; 0x1c4a <puts>
	// rand() stores some internal state, so calling this function in a loop will 
	// yield different seeds each time (unless srand() is called before this function)
	// rand() stores some internal state, so calling this function in a loop will 
	// yield different seeds each time (unless srand() is called before this function)
	uint16_t seed = rand();
    1364:	0e 94 a6 0d 	call	0x1b4c	; 0x1b4c <rand>
    1368:	6c 01       	movw	r12, r24
	// Write phase: Immediately check that the correct value was stored 
	srand(seed);
    136a:	0e 94 ab 0d 	call	0x1b56	; 0x1b56 <srand>
	for (uint16_t i = 0; i < ext_ram_size; i++) 
    136e:	c0 e0       	ldi	r28, 0x00	; 0
    1370:	d0 e0       	ldi	r29, 0x00	; 0
	return sram_address[address];
}
void SRAM_test(void) { 
	volatile char *ext_ram = (char *) 0x1800; // Start address for the SRAM 
	uint16_t ext_ram_size = 0x800; 
	uint16_t write_errors = 0; 
    1372:	00 e0       	ldi	r16, 0x00	; 0
    1374:	10 e0       	ldi	r17, 0x00	; 0
		uint8_t some_value = rand(); 
		ext_ram[i] = some_value; 
		uint8_t retreived_value = ext_ram[i]; 
		if (retreived_value != some_value) 
		{ 
			printf("Write phase error: ext_ram[%4d] = %02X (should be %02X)\n", i, retreived_value, some_value); 
    1376:	0f 2e       	mov	r0, r31
    1378:	f5 e5       	ldi	r31, 0x55	; 85
    137a:	ef 2e       	mov	r14, r31
    137c:	f2 e0       	ldi	r31, 0x02	; 2
    137e:	ff 2e       	mov	r15, r31
    1380:	f0 2d       	mov	r31, r0
	uint16_t seed = rand();
	// Write phase: Immediately check that the correct value was stored 
	srand(seed);
	for (uint16_t i = 0; i < ext_ram_size; i++) 
	{ 
		uint8_t some_value = rand(); 
    1382:	0e 94 a6 0d 	call	0x1b4c	; 0x1b4c <rand>
    1386:	fe 01       	movw	r30, r28
    1388:	f8 5e       	subi	r31, 0xE8	; 232
		ext_ram[i] = some_value; 
    138a:	80 83       	st	Z, r24
		uint8_t retreived_value = ext_ram[i]; 
    138c:	20 81       	ld	r18, Z
		if (retreived_value != some_value) 
    138e:	28 17       	cp	r18, r24
    1390:	a9 f0       	breq	.+42     	; 0x13bc <SRAM_test+0x70>
		{ 
			printf("Write phase error: ext_ram[%4d] = %02X (should be %02X)\n", i, retreived_value, some_value); 
    1392:	99 27       	eor	r25, r25
    1394:	9f 93       	push	r25
    1396:	8f 93       	push	r24
    1398:	1f 92       	push	r1
    139a:	2f 93       	push	r18
    139c:	df 93       	push	r29
    139e:	cf 93       	push	r28
    13a0:	ff 92       	push	r15
    13a2:	ef 92       	push	r14
    13a4:	0e 94 0a 0e 	call	0x1c14	; 0x1c14 <printf>
			write_errors++; 
    13a8:	0f 5f       	subi	r16, 0xFF	; 255
    13aa:	1f 4f       	sbci	r17, 0xFF	; 255
    13ac:	8d b7       	in	r24, 0x3d	; 61
    13ae:	9e b7       	in	r25, 0x3e	; 62
    13b0:	08 96       	adiw	r24, 0x08	; 8
    13b2:	0f b6       	in	r0, 0x3f	; 63
    13b4:	f8 94       	cli
    13b6:	9e bf       	out	0x3e, r25	; 62
    13b8:	0f be       	out	0x3f, r0	; 63
    13ba:	8d bf       	out	0x3d, r24	; 61
	// rand() stores some internal state, so calling this function in a loop will 
	// yield different seeds each time (unless srand() is called before this function)
	uint16_t seed = rand();
	// Write phase: Immediately check that the correct value was stored 
	srand(seed);
	for (uint16_t i = 0; i < ext_ram_size; i++) 
    13bc:	21 96       	adiw	r28, 0x01	; 1
    13be:	c1 15       	cp	r28, r1
    13c0:	98 e0       	ldi	r25, 0x08	; 8
    13c2:	d9 07       	cpc	r29, r25
    13c4:	f1 f6       	brne	.-68     	; 0x1382 <SRAM_test+0x36>
			printf("Write phase error: ext_ram[%4d] = %02X (should be %02X)\n", i, retreived_value, some_value); 
			write_errors++; 
		} 
	}
	// Retrieval phase: Check that no values were changed during or after the write phase 
	srand(seed); // reset the PRNG to the state it had before the write phase 
    13c6:	c6 01       	movw	r24, r12
    13c8:	0e 94 ab 0d 	call	0x1b56	; 0x1b56 <srand>
	for (uint16_t i = 0; i < ext_ram_size; i++) 
    13cc:	c0 e0       	ldi	r28, 0x00	; 0
    13ce:	d0 e0       	ldi	r29, 0x00	; 0
}
void SRAM_test(void) { 
	volatile char *ext_ram = (char *) 0x1800; // Start address for the SRAM 
	uint16_t ext_ram_size = 0x800; 
	uint16_t write_errors = 0; 
	uint16_t retrieval_errors = 0;
    13d0:	e1 2c       	mov	r14, r1
    13d2:	f1 2c       	mov	r15, r1
		{ 
			uint8_t some_value = rand(); 
			uint8_t retreived_value = ext_ram[i]; 
			if (retreived_value != some_value) 
			{ 
				printf("Retrieval phase error: ext_ram[%4d] = %02X (should be %02X)\n", i, retreived_value, some_value); 
    13d4:	0f 2e       	mov	r0, r31
    13d6:	fe e8       	ldi	r31, 0x8E	; 142
    13d8:	cf 2e       	mov	r12, r31
    13da:	f2 e0       	ldi	r31, 0x02	; 2
    13dc:	df 2e       	mov	r13, r31
    13de:	f0 2d       	mov	r31, r0
	}
	// Retrieval phase: Check that no values were changed during or after the write phase 
	srand(seed); // reset the PRNG to the state it had before the write phase 
	for (uint16_t i = 0; i < ext_ram_size; i++) 
		{ 
			uint8_t some_value = rand(); 
    13e0:	0e 94 a6 0d 	call	0x1b4c	; 0x1b4c <rand>
    13e4:	fe 01       	movw	r30, r28
    13e6:	f8 5e       	subi	r31, 0xE8	; 232
			uint8_t retreived_value = ext_ram[i]; 
    13e8:	20 81       	ld	r18, Z
			if (retreived_value != some_value) 
    13ea:	28 17       	cp	r18, r24
    13ec:	b1 f0       	breq	.+44     	; 0x141a <SRAM_test+0xce>
			{ 
				printf("Retrieval phase error: ext_ram[%4d] = %02X (should be %02X)\n", i, retreived_value, some_value); 
    13ee:	99 27       	eor	r25, r25
    13f0:	9f 93       	push	r25
    13f2:	8f 93       	push	r24
    13f4:	1f 92       	push	r1
    13f6:	2f 93       	push	r18
    13f8:	df 93       	push	r29
    13fa:	cf 93       	push	r28
    13fc:	df 92       	push	r13
    13fe:	cf 92       	push	r12
    1400:	0e 94 0a 0e 	call	0x1c14	; 0x1c14 <printf>
				retrieval_errors++; 
    1404:	8f ef       	ldi	r24, 0xFF	; 255
    1406:	e8 1a       	sub	r14, r24
    1408:	f8 0a       	sbc	r15, r24
    140a:	8d b7       	in	r24, 0x3d	; 61
    140c:	9e b7       	in	r25, 0x3e	; 62
    140e:	08 96       	adiw	r24, 0x08	; 8
    1410:	0f b6       	in	r0, 0x3f	; 63
    1412:	f8 94       	cli
    1414:	9e bf       	out	0x3e, r25	; 62
    1416:	0f be       	out	0x3f, r0	; 63
    1418:	8d bf       	out	0x3d, r24	; 61
			write_errors++; 
		} 
	}
	// Retrieval phase: Check that no values were changed during or after the write phase 
	srand(seed); // reset the PRNG to the state it had before the write phase 
	for (uint16_t i = 0; i < ext_ram_size; i++) 
    141a:	21 96       	adiw	r28, 0x01	; 1
    141c:	c1 15       	cp	r28, r1
    141e:	98 e0       	ldi	r25, 0x08	; 8
    1420:	d9 07       	cpc	r29, r25
    1422:	f1 f6       	brne	.-68     	; 0x13e0 <SRAM_test+0x94>
			{ 
				printf("Retrieval phase error: ext_ram[%4d] = %02X (should be %02X)\n", i, retreived_value, some_value); 
				retrieval_errors++; 
			} 
		} 
		printf("SRAM test completed with \n%4d errors in write phase and \n%4d errors in retrieval phase\n\n", write_errors, retrieval_errors); 
    1424:	ff 92       	push	r15
    1426:	ef 92       	push	r14
    1428:	1f 93       	push	r17
    142a:	0f 93       	push	r16
    142c:	8b ec       	ldi	r24, 0xCB	; 203
    142e:	92 e0       	ldi	r25, 0x02	; 2
    1430:	9f 93       	push	r25
    1432:	8f 93       	push	r24
    1434:	0e 94 0a 0e 	call	0x1c14	; 0x1c14 <printf>
    1438:	0f 90       	pop	r0
    143a:	0f 90       	pop	r0
    143c:	0f 90       	pop	r0
    143e:	0f 90       	pop	r0
    1440:	0f 90       	pop	r0
    1442:	0f 90       	pop	r0
	}
    1444:	df 91       	pop	r29
    1446:	cf 91       	pop	r28
    1448:	1f 91       	pop	r17
    144a:	0f 91       	pop	r16
    144c:	ff 90       	pop	r15
    144e:	ef 90       	pop	r14
    1450:	df 90       	pop	r13
    1452:	cf 90       	pop	r12
    1454:	08 95       	ret

00001456 <USART_Transmit>:
int USART_Transmit(char data, struct __file* dummy)
{
    //if(data == '\n') USART_Transmit('\r', dummy);
	// Sjekk om bit UDRE0 i register UCSR0A er satt
	// UDRE0 = usart data register empty
	while(!(UCSR0A & (1<<UDRE0)))
    1456:	5d 9b       	sbis	0x0b, 5	; 11
    1458:	fe cf       	rjmp	.-4      	; 0x1456 <USART_Transmit>
		;
	UDR0=data;
    145a:	8c b9       	out	0x0c, r24	; 12
    return 0;
}
    145c:	80 e0       	ldi	r24, 0x00	; 0
    145e:	90 e0       	ldi	r25, 0x00	; 0
    1460:	08 95       	ret

00001462 <USART_Recieve>:

int USART_Recieve(struct __file* dummy)
{
	// Sjekk om bit RXC0 i register UCSR0A
	while (!(UCSR0A & (1<<RXC0)))
    1462:	5f 9b       	sbis	0x0b, 7	; 11
    1464:	fe cf       	rjmp	.-4      	; 0x1462 <USART_Recieve>
		;
	return UDR0;
    1466:	8c b1       	in	r24, 0x0c	; 12
}
    1468:	90 e0       	ldi	r25, 0x00	; 0
    146a:	08 95       	ret

0000146c <USART_Init>:


void USART_Init(unsigned int ubrr)
{
    
	UBRR0H =(unsigned char) (ubrr>>8); // Flytt ubrr 8 bits til hyre, lagre i register UBRR0H
    146c:	90 bd       	out	0x20, r25	; 32
	UBRR0L =(unsigned char) (ubrr); // Lagre frste 8 bits i UBRR0L
    146e:	89 b9       	out	0x09, r24	; 9
	// Enable mottaker og sender (sett bitt RXEN0 og TXEN0 =1)
	UCSR0B = (1<<RXEN0)|(1<<TXEN0);
    1470:	88 e1       	ldi	r24, 0x18	; 24
    1472:	8a b9       	out	0x0a, r24	; 10
    // 
	UCSR0C = (1<<URSEL0)|(1<<USBS0)|(3<<UCSZ00);
    1474:	8e e8       	ldi	r24, 0x8E	; 142
    1476:	80 bd       	out	0x20, r24	; 32
    
	//Breakpoint
    uart = fdevopen(&USART_Transmit,&USART_Recieve);
    1478:	61 e3       	ldi	r22, 0x31	; 49
    147a:	7a e0       	ldi	r23, 0x0A	; 10
    147c:	8b e2       	ldi	r24, 0x2B	; 43
    147e:	9a e0       	ldi	r25, 0x0A	; 10
    1480:	0e 94 bf 0d 	call	0x1b7e	; 0x1b7e <fdevopen>
    1484:	90 93 31 03 	sts	0x0331, r25
    1488:	80 93 30 03 	sts	0x0330, r24
    148c:	08 95       	ret

0000148e <__subsf3>:
    148e:	50 58       	subi	r21, 0x80	; 128

00001490 <__addsf3>:
    1490:	bb 27       	eor	r27, r27
    1492:	aa 27       	eor	r26, r26
    1494:	0e d0       	rcall	.+28     	; 0x14b2 <__addsf3x>
    1496:	44 c1       	rjmp	.+648    	; 0x1720 <__fp_round>
    1498:	35 d1       	rcall	.+618    	; 0x1704 <__fp_pscA>
    149a:	30 f0       	brcs	.+12     	; 0x14a8 <__addsf3+0x18>
    149c:	3a d1       	rcall	.+628    	; 0x1712 <__fp_pscB>
    149e:	20 f0       	brcs	.+8      	; 0x14a8 <__addsf3+0x18>
    14a0:	31 f4       	brne	.+12     	; 0x14ae <__addsf3+0x1e>
    14a2:	9f 3f       	cpi	r25, 0xFF	; 255
    14a4:	11 f4       	brne	.+4      	; 0x14aa <__addsf3+0x1a>
    14a6:	1e f4       	brtc	.+6      	; 0x14ae <__addsf3+0x1e>
    14a8:	2a c1       	rjmp	.+596    	; 0x16fe <__fp_nan>
    14aa:	0e f4       	brtc	.+2      	; 0x14ae <__addsf3+0x1e>
    14ac:	e0 95       	com	r30
    14ae:	e7 fb       	bst	r30, 7
    14b0:	20 c1       	rjmp	.+576    	; 0x16f2 <__fp_inf>

000014b2 <__addsf3x>:
    14b2:	e9 2f       	mov	r30, r25
    14b4:	46 d1       	rcall	.+652    	; 0x1742 <__fp_split3>
    14b6:	80 f3       	brcs	.-32     	; 0x1498 <__addsf3+0x8>
    14b8:	ba 17       	cp	r27, r26
    14ba:	62 07       	cpc	r22, r18
    14bc:	73 07       	cpc	r23, r19
    14be:	84 07       	cpc	r24, r20
    14c0:	95 07       	cpc	r25, r21
    14c2:	18 f0       	brcs	.+6      	; 0x14ca <__addsf3x+0x18>
    14c4:	71 f4       	brne	.+28     	; 0x14e2 <__addsf3x+0x30>
    14c6:	9e f5       	brtc	.+102    	; 0x152e <__addsf3x+0x7c>
    14c8:	5e c1       	rjmp	.+700    	; 0x1786 <__fp_zero>
    14ca:	0e f4       	brtc	.+2      	; 0x14ce <__addsf3x+0x1c>
    14cc:	e0 95       	com	r30
    14ce:	0b 2e       	mov	r0, r27
    14d0:	ba 2f       	mov	r27, r26
    14d2:	a0 2d       	mov	r26, r0
    14d4:	0b 01       	movw	r0, r22
    14d6:	b9 01       	movw	r22, r18
    14d8:	90 01       	movw	r18, r0
    14da:	0c 01       	movw	r0, r24
    14dc:	ca 01       	movw	r24, r20
    14de:	a0 01       	movw	r20, r0
    14e0:	11 24       	eor	r1, r1
    14e2:	ff 27       	eor	r31, r31
    14e4:	59 1b       	sub	r21, r25
    14e6:	99 f0       	breq	.+38     	; 0x150e <__addsf3x+0x5c>
    14e8:	59 3f       	cpi	r21, 0xF9	; 249
    14ea:	50 f4       	brcc	.+20     	; 0x1500 <__addsf3x+0x4e>
    14ec:	50 3e       	cpi	r21, 0xE0	; 224
    14ee:	68 f1       	brcs	.+90     	; 0x154a <__addsf3x+0x98>
    14f0:	1a 16       	cp	r1, r26
    14f2:	f0 40       	sbci	r31, 0x00	; 0
    14f4:	a2 2f       	mov	r26, r18
    14f6:	23 2f       	mov	r18, r19
    14f8:	34 2f       	mov	r19, r20
    14fa:	44 27       	eor	r20, r20
    14fc:	58 5f       	subi	r21, 0xF8	; 248
    14fe:	f3 cf       	rjmp	.-26     	; 0x14e6 <__addsf3x+0x34>
    1500:	46 95       	lsr	r20
    1502:	37 95       	ror	r19
    1504:	27 95       	ror	r18
    1506:	a7 95       	ror	r26
    1508:	f0 40       	sbci	r31, 0x00	; 0
    150a:	53 95       	inc	r21
    150c:	c9 f7       	brne	.-14     	; 0x1500 <__addsf3x+0x4e>
    150e:	7e f4       	brtc	.+30     	; 0x152e <__addsf3x+0x7c>
    1510:	1f 16       	cp	r1, r31
    1512:	ba 0b       	sbc	r27, r26
    1514:	62 0b       	sbc	r22, r18
    1516:	73 0b       	sbc	r23, r19
    1518:	84 0b       	sbc	r24, r20
    151a:	ba f0       	brmi	.+46     	; 0x154a <__addsf3x+0x98>
    151c:	91 50       	subi	r25, 0x01	; 1
    151e:	a1 f0       	breq	.+40     	; 0x1548 <__addsf3x+0x96>
    1520:	ff 0f       	add	r31, r31
    1522:	bb 1f       	adc	r27, r27
    1524:	66 1f       	adc	r22, r22
    1526:	77 1f       	adc	r23, r23
    1528:	88 1f       	adc	r24, r24
    152a:	c2 f7       	brpl	.-16     	; 0x151c <__addsf3x+0x6a>
    152c:	0e c0       	rjmp	.+28     	; 0x154a <__addsf3x+0x98>
    152e:	ba 0f       	add	r27, r26
    1530:	62 1f       	adc	r22, r18
    1532:	73 1f       	adc	r23, r19
    1534:	84 1f       	adc	r24, r20
    1536:	48 f4       	brcc	.+18     	; 0x154a <__addsf3x+0x98>
    1538:	87 95       	ror	r24
    153a:	77 95       	ror	r23
    153c:	67 95       	ror	r22
    153e:	b7 95       	ror	r27
    1540:	f7 95       	ror	r31
    1542:	9e 3f       	cpi	r25, 0xFE	; 254
    1544:	08 f0       	brcs	.+2      	; 0x1548 <__addsf3x+0x96>
    1546:	b3 cf       	rjmp	.-154    	; 0x14ae <__addsf3+0x1e>
    1548:	93 95       	inc	r25
    154a:	88 0f       	add	r24, r24
    154c:	08 f0       	brcs	.+2      	; 0x1550 <__addsf3x+0x9e>
    154e:	99 27       	eor	r25, r25
    1550:	ee 0f       	add	r30, r30
    1552:	97 95       	ror	r25
    1554:	87 95       	ror	r24
    1556:	08 95       	ret

00001558 <__cmpsf2>:
    1558:	a8 d0       	rcall	.+336    	; 0x16aa <__fp_cmp>
    155a:	08 f4       	brcc	.+2      	; 0x155e <__cmpsf2+0x6>
    155c:	81 e0       	ldi	r24, 0x01	; 1
    155e:	08 95       	ret

00001560 <__divsf3>:
    1560:	0c d0       	rcall	.+24     	; 0x157a <__divsf3x>
    1562:	de c0       	rjmp	.+444    	; 0x1720 <__fp_round>
    1564:	d6 d0       	rcall	.+428    	; 0x1712 <__fp_pscB>
    1566:	40 f0       	brcs	.+16     	; 0x1578 <__divsf3+0x18>
    1568:	cd d0       	rcall	.+410    	; 0x1704 <__fp_pscA>
    156a:	30 f0       	brcs	.+12     	; 0x1578 <__divsf3+0x18>
    156c:	21 f4       	brne	.+8      	; 0x1576 <__divsf3+0x16>
    156e:	5f 3f       	cpi	r21, 0xFF	; 255
    1570:	19 f0       	breq	.+6      	; 0x1578 <__divsf3+0x18>
    1572:	bf c0       	rjmp	.+382    	; 0x16f2 <__fp_inf>
    1574:	51 11       	cpse	r21, r1
    1576:	08 c1       	rjmp	.+528    	; 0x1788 <__fp_szero>
    1578:	c2 c0       	rjmp	.+388    	; 0x16fe <__fp_nan>

0000157a <__divsf3x>:
    157a:	e3 d0       	rcall	.+454    	; 0x1742 <__fp_split3>
    157c:	98 f3       	brcs	.-26     	; 0x1564 <__divsf3+0x4>

0000157e <__divsf3_pse>:
    157e:	99 23       	and	r25, r25
    1580:	c9 f3       	breq	.-14     	; 0x1574 <__divsf3+0x14>
    1582:	55 23       	and	r21, r21
    1584:	b1 f3       	breq	.-20     	; 0x1572 <__divsf3+0x12>
    1586:	95 1b       	sub	r25, r21
    1588:	55 0b       	sbc	r21, r21
    158a:	bb 27       	eor	r27, r27
    158c:	aa 27       	eor	r26, r26
    158e:	62 17       	cp	r22, r18
    1590:	73 07       	cpc	r23, r19
    1592:	84 07       	cpc	r24, r20
    1594:	38 f0       	brcs	.+14     	; 0x15a4 <__divsf3_pse+0x26>
    1596:	9f 5f       	subi	r25, 0xFF	; 255
    1598:	5f 4f       	sbci	r21, 0xFF	; 255
    159a:	22 0f       	add	r18, r18
    159c:	33 1f       	adc	r19, r19
    159e:	44 1f       	adc	r20, r20
    15a0:	aa 1f       	adc	r26, r26
    15a2:	a9 f3       	breq	.-22     	; 0x158e <__divsf3_pse+0x10>
    15a4:	33 d0       	rcall	.+102    	; 0x160c <__divsf3_pse+0x8e>
    15a6:	0e 2e       	mov	r0, r30
    15a8:	3a f0       	brmi	.+14     	; 0x15b8 <__divsf3_pse+0x3a>
    15aa:	e0 e8       	ldi	r30, 0x80	; 128
    15ac:	30 d0       	rcall	.+96     	; 0x160e <__divsf3_pse+0x90>
    15ae:	91 50       	subi	r25, 0x01	; 1
    15b0:	50 40       	sbci	r21, 0x00	; 0
    15b2:	e6 95       	lsr	r30
    15b4:	00 1c       	adc	r0, r0
    15b6:	ca f7       	brpl	.-14     	; 0x15aa <__divsf3_pse+0x2c>
    15b8:	29 d0       	rcall	.+82     	; 0x160c <__divsf3_pse+0x8e>
    15ba:	fe 2f       	mov	r31, r30
    15bc:	27 d0       	rcall	.+78     	; 0x160c <__divsf3_pse+0x8e>
    15be:	66 0f       	add	r22, r22
    15c0:	77 1f       	adc	r23, r23
    15c2:	88 1f       	adc	r24, r24
    15c4:	bb 1f       	adc	r27, r27
    15c6:	26 17       	cp	r18, r22
    15c8:	37 07       	cpc	r19, r23
    15ca:	48 07       	cpc	r20, r24
    15cc:	ab 07       	cpc	r26, r27
    15ce:	b0 e8       	ldi	r27, 0x80	; 128
    15d0:	09 f0       	breq	.+2      	; 0x15d4 <__divsf3_pse+0x56>
    15d2:	bb 0b       	sbc	r27, r27
    15d4:	80 2d       	mov	r24, r0
    15d6:	bf 01       	movw	r22, r30
    15d8:	ff 27       	eor	r31, r31
    15da:	93 58       	subi	r25, 0x83	; 131
    15dc:	5f 4f       	sbci	r21, 0xFF	; 255
    15de:	2a f0       	brmi	.+10     	; 0x15ea <__divsf3_pse+0x6c>
    15e0:	9e 3f       	cpi	r25, 0xFE	; 254
    15e2:	51 05       	cpc	r21, r1
    15e4:	68 f0       	brcs	.+26     	; 0x1600 <__divsf3_pse+0x82>
    15e6:	85 c0       	rjmp	.+266    	; 0x16f2 <__fp_inf>
    15e8:	cf c0       	rjmp	.+414    	; 0x1788 <__fp_szero>
    15ea:	5f 3f       	cpi	r21, 0xFF	; 255
    15ec:	ec f3       	brlt	.-6      	; 0x15e8 <__divsf3_pse+0x6a>
    15ee:	98 3e       	cpi	r25, 0xE8	; 232
    15f0:	dc f3       	brlt	.-10     	; 0x15e8 <__divsf3_pse+0x6a>
    15f2:	86 95       	lsr	r24
    15f4:	77 95       	ror	r23
    15f6:	67 95       	ror	r22
    15f8:	b7 95       	ror	r27
    15fa:	f7 95       	ror	r31
    15fc:	9f 5f       	subi	r25, 0xFF	; 255
    15fe:	c9 f7       	brne	.-14     	; 0x15f2 <__divsf3_pse+0x74>
    1600:	88 0f       	add	r24, r24
    1602:	91 1d       	adc	r25, r1
    1604:	96 95       	lsr	r25
    1606:	87 95       	ror	r24
    1608:	97 f9       	bld	r25, 7
    160a:	08 95       	ret
    160c:	e1 e0       	ldi	r30, 0x01	; 1
    160e:	66 0f       	add	r22, r22
    1610:	77 1f       	adc	r23, r23
    1612:	88 1f       	adc	r24, r24
    1614:	bb 1f       	adc	r27, r27
    1616:	62 17       	cp	r22, r18
    1618:	73 07       	cpc	r23, r19
    161a:	84 07       	cpc	r24, r20
    161c:	ba 07       	cpc	r27, r26
    161e:	20 f0       	brcs	.+8      	; 0x1628 <__divsf3_pse+0xaa>
    1620:	62 1b       	sub	r22, r18
    1622:	73 0b       	sbc	r23, r19
    1624:	84 0b       	sbc	r24, r20
    1626:	ba 0b       	sbc	r27, r26
    1628:	ee 1f       	adc	r30, r30
    162a:	88 f7       	brcc	.-30     	; 0x160e <__divsf3_pse+0x90>
    162c:	e0 95       	com	r30
    162e:	08 95       	ret

00001630 <__floatunsisf>:
    1630:	e8 94       	clt
    1632:	09 c0       	rjmp	.+18     	; 0x1646 <__floatsisf+0x12>

00001634 <__floatsisf>:
    1634:	97 fb       	bst	r25, 7
    1636:	3e f4       	brtc	.+14     	; 0x1646 <__floatsisf+0x12>
    1638:	90 95       	com	r25
    163a:	80 95       	com	r24
    163c:	70 95       	com	r23
    163e:	61 95       	neg	r22
    1640:	7f 4f       	sbci	r23, 0xFF	; 255
    1642:	8f 4f       	sbci	r24, 0xFF	; 255
    1644:	9f 4f       	sbci	r25, 0xFF	; 255
    1646:	99 23       	and	r25, r25
    1648:	a9 f0       	breq	.+42     	; 0x1674 <__floatsisf+0x40>
    164a:	f9 2f       	mov	r31, r25
    164c:	96 e9       	ldi	r25, 0x96	; 150
    164e:	bb 27       	eor	r27, r27
    1650:	93 95       	inc	r25
    1652:	f6 95       	lsr	r31
    1654:	87 95       	ror	r24
    1656:	77 95       	ror	r23
    1658:	67 95       	ror	r22
    165a:	b7 95       	ror	r27
    165c:	f1 11       	cpse	r31, r1
    165e:	f8 cf       	rjmp	.-16     	; 0x1650 <__floatsisf+0x1c>
    1660:	fa f4       	brpl	.+62     	; 0x16a0 <__floatsisf+0x6c>
    1662:	bb 0f       	add	r27, r27
    1664:	11 f4       	brne	.+4      	; 0x166a <__floatsisf+0x36>
    1666:	60 ff       	sbrs	r22, 0
    1668:	1b c0       	rjmp	.+54     	; 0x16a0 <__floatsisf+0x6c>
    166a:	6f 5f       	subi	r22, 0xFF	; 255
    166c:	7f 4f       	sbci	r23, 0xFF	; 255
    166e:	8f 4f       	sbci	r24, 0xFF	; 255
    1670:	9f 4f       	sbci	r25, 0xFF	; 255
    1672:	16 c0       	rjmp	.+44     	; 0x16a0 <__floatsisf+0x6c>
    1674:	88 23       	and	r24, r24
    1676:	11 f0       	breq	.+4      	; 0x167c <__floatsisf+0x48>
    1678:	96 e9       	ldi	r25, 0x96	; 150
    167a:	11 c0       	rjmp	.+34     	; 0x169e <__floatsisf+0x6a>
    167c:	77 23       	and	r23, r23
    167e:	21 f0       	breq	.+8      	; 0x1688 <__floatsisf+0x54>
    1680:	9e e8       	ldi	r25, 0x8E	; 142
    1682:	87 2f       	mov	r24, r23
    1684:	76 2f       	mov	r23, r22
    1686:	05 c0       	rjmp	.+10     	; 0x1692 <__floatsisf+0x5e>
    1688:	66 23       	and	r22, r22
    168a:	71 f0       	breq	.+28     	; 0x16a8 <__floatsisf+0x74>
    168c:	96 e8       	ldi	r25, 0x86	; 134
    168e:	86 2f       	mov	r24, r22
    1690:	70 e0       	ldi	r23, 0x00	; 0
    1692:	60 e0       	ldi	r22, 0x00	; 0
    1694:	2a f0       	brmi	.+10     	; 0x16a0 <__floatsisf+0x6c>
    1696:	9a 95       	dec	r25
    1698:	66 0f       	add	r22, r22
    169a:	77 1f       	adc	r23, r23
    169c:	88 1f       	adc	r24, r24
    169e:	da f7       	brpl	.-10     	; 0x1696 <__floatsisf+0x62>
    16a0:	88 0f       	add	r24, r24
    16a2:	96 95       	lsr	r25
    16a4:	87 95       	ror	r24
    16a6:	97 f9       	bld	r25, 7
    16a8:	08 95       	ret

000016aa <__fp_cmp>:
    16aa:	99 0f       	add	r25, r25
    16ac:	00 08       	sbc	r0, r0
    16ae:	55 0f       	add	r21, r21
    16b0:	aa 0b       	sbc	r26, r26
    16b2:	e0 e8       	ldi	r30, 0x80	; 128
    16b4:	fe ef       	ldi	r31, 0xFE	; 254
    16b6:	16 16       	cp	r1, r22
    16b8:	17 06       	cpc	r1, r23
    16ba:	e8 07       	cpc	r30, r24
    16bc:	f9 07       	cpc	r31, r25
    16be:	c0 f0       	brcs	.+48     	; 0x16f0 <__fp_cmp+0x46>
    16c0:	12 16       	cp	r1, r18
    16c2:	13 06       	cpc	r1, r19
    16c4:	e4 07       	cpc	r30, r20
    16c6:	f5 07       	cpc	r31, r21
    16c8:	98 f0       	brcs	.+38     	; 0x16f0 <__fp_cmp+0x46>
    16ca:	62 1b       	sub	r22, r18
    16cc:	73 0b       	sbc	r23, r19
    16ce:	84 0b       	sbc	r24, r20
    16d0:	95 0b       	sbc	r25, r21
    16d2:	39 f4       	brne	.+14     	; 0x16e2 <__fp_cmp+0x38>
    16d4:	0a 26       	eor	r0, r26
    16d6:	61 f0       	breq	.+24     	; 0x16f0 <__fp_cmp+0x46>
    16d8:	23 2b       	or	r18, r19
    16da:	24 2b       	or	r18, r20
    16dc:	25 2b       	or	r18, r21
    16de:	21 f4       	brne	.+8      	; 0x16e8 <__fp_cmp+0x3e>
    16e0:	08 95       	ret
    16e2:	0a 26       	eor	r0, r26
    16e4:	09 f4       	brne	.+2      	; 0x16e8 <__fp_cmp+0x3e>
    16e6:	a1 40       	sbci	r26, 0x01	; 1
    16e8:	a6 95       	lsr	r26
    16ea:	8f ef       	ldi	r24, 0xFF	; 255
    16ec:	81 1d       	adc	r24, r1
    16ee:	81 1d       	adc	r24, r1
    16f0:	08 95       	ret

000016f2 <__fp_inf>:
    16f2:	97 f9       	bld	r25, 7
    16f4:	9f 67       	ori	r25, 0x7F	; 127
    16f6:	80 e8       	ldi	r24, 0x80	; 128
    16f8:	70 e0       	ldi	r23, 0x00	; 0
    16fa:	60 e0       	ldi	r22, 0x00	; 0
    16fc:	08 95       	ret

000016fe <__fp_nan>:
    16fe:	9f ef       	ldi	r25, 0xFF	; 255
    1700:	80 ec       	ldi	r24, 0xC0	; 192
    1702:	08 95       	ret

00001704 <__fp_pscA>:
    1704:	00 24       	eor	r0, r0
    1706:	0a 94       	dec	r0
    1708:	16 16       	cp	r1, r22
    170a:	17 06       	cpc	r1, r23
    170c:	18 06       	cpc	r1, r24
    170e:	09 06       	cpc	r0, r25
    1710:	08 95       	ret

00001712 <__fp_pscB>:
    1712:	00 24       	eor	r0, r0
    1714:	0a 94       	dec	r0
    1716:	12 16       	cp	r1, r18
    1718:	13 06       	cpc	r1, r19
    171a:	14 06       	cpc	r1, r20
    171c:	05 06       	cpc	r0, r21
    171e:	08 95       	ret

00001720 <__fp_round>:
    1720:	09 2e       	mov	r0, r25
    1722:	03 94       	inc	r0
    1724:	00 0c       	add	r0, r0
    1726:	11 f4       	brne	.+4      	; 0x172c <__fp_round+0xc>
    1728:	88 23       	and	r24, r24
    172a:	52 f0       	brmi	.+20     	; 0x1740 <__fp_round+0x20>
    172c:	bb 0f       	add	r27, r27
    172e:	40 f4       	brcc	.+16     	; 0x1740 <__fp_round+0x20>
    1730:	bf 2b       	or	r27, r31
    1732:	11 f4       	brne	.+4      	; 0x1738 <__fp_round+0x18>
    1734:	60 ff       	sbrs	r22, 0
    1736:	04 c0       	rjmp	.+8      	; 0x1740 <__fp_round+0x20>
    1738:	6f 5f       	subi	r22, 0xFF	; 255
    173a:	7f 4f       	sbci	r23, 0xFF	; 255
    173c:	8f 4f       	sbci	r24, 0xFF	; 255
    173e:	9f 4f       	sbci	r25, 0xFF	; 255
    1740:	08 95       	ret

00001742 <__fp_split3>:
    1742:	57 fd       	sbrc	r21, 7
    1744:	90 58       	subi	r25, 0x80	; 128
    1746:	44 0f       	add	r20, r20
    1748:	55 1f       	adc	r21, r21
    174a:	59 f0       	breq	.+22     	; 0x1762 <__fp_splitA+0x10>
    174c:	5f 3f       	cpi	r21, 0xFF	; 255
    174e:	71 f0       	breq	.+28     	; 0x176c <__fp_splitA+0x1a>
    1750:	47 95       	ror	r20

00001752 <__fp_splitA>:
    1752:	88 0f       	add	r24, r24
    1754:	97 fb       	bst	r25, 7
    1756:	99 1f       	adc	r25, r25
    1758:	61 f0       	breq	.+24     	; 0x1772 <__fp_splitA+0x20>
    175a:	9f 3f       	cpi	r25, 0xFF	; 255
    175c:	79 f0       	breq	.+30     	; 0x177c <__fp_splitA+0x2a>
    175e:	87 95       	ror	r24
    1760:	08 95       	ret
    1762:	12 16       	cp	r1, r18
    1764:	13 06       	cpc	r1, r19
    1766:	14 06       	cpc	r1, r20
    1768:	55 1f       	adc	r21, r21
    176a:	f2 cf       	rjmp	.-28     	; 0x1750 <__fp_split3+0xe>
    176c:	46 95       	lsr	r20
    176e:	f1 df       	rcall	.-30     	; 0x1752 <__fp_splitA>
    1770:	08 c0       	rjmp	.+16     	; 0x1782 <__fp_splitA+0x30>
    1772:	16 16       	cp	r1, r22
    1774:	17 06       	cpc	r1, r23
    1776:	18 06       	cpc	r1, r24
    1778:	99 1f       	adc	r25, r25
    177a:	f1 cf       	rjmp	.-30     	; 0x175e <__fp_splitA+0xc>
    177c:	86 95       	lsr	r24
    177e:	71 05       	cpc	r23, r1
    1780:	61 05       	cpc	r22, r1
    1782:	08 94       	sec
    1784:	08 95       	ret

00001786 <__fp_zero>:
    1786:	e8 94       	clt

00001788 <__fp_szero>:
    1788:	bb 27       	eor	r27, r27
    178a:	66 27       	eor	r22, r22
    178c:	77 27       	eor	r23, r23
    178e:	cb 01       	movw	r24, r22
    1790:	97 f9       	bld	r25, 7
    1792:	08 95       	ret

00001794 <__gesf2>:
    1794:	8a df       	rcall	.-236    	; 0x16aa <__fp_cmp>
    1796:	08 f4       	brcc	.+2      	; 0x179a <__gesf2+0x6>
    1798:	8f ef       	ldi	r24, 0xFF	; 255
    179a:	08 95       	ret

0000179c <__mulsf3>:
    179c:	0b d0       	rcall	.+22     	; 0x17b4 <__mulsf3x>
    179e:	c0 cf       	rjmp	.-128    	; 0x1720 <__fp_round>
    17a0:	b1 df       	rcall	.-158    	; 0x1704 <__fp_pscA>
    17a2:	28 f0       	brcs	.+10     	; 0x17ae <__mulsf3+0x12>
    17a4:	b6 df       	rcall	.-148    	; 0x1712 <__fp_pscB>
    17a6:	18 f0       	brcs	.+6      	; 0x17ae <__mulsf3+0x12>
    17a8:	95 23       	and	r25, r21
    17aa:	09 f0       	breq	.+2      	; 0x17ae <__mulsf3+0x12>
    17ac:	a2 cf       	rjmp	.-188    	; 0x16f2 <__fp_inf>
    17ae:	a7 cf       	rjmp	.-178    	; 0x16fe <__fp_nan>
    17b0:	11 24       	eor	r1, r1
    17b2:	ea cf       	rjmp	.-44     	; 0x1788 <__fp_szero>

000017b4 <__mulsf3x>:
    17b4:	c6 df       	rcall	.-116    	; 0x1742 <__fp_split3>
    17b6:	a0 f3       	brcs	.-24     	; 0x17a0 <__mulsf3+0x4>

000017b8 <__mulsf3_pse>:
    17b8:	95 9f       	mul	r25, r21
    17ba:	d1 f3       	breq	.-12     	; 0x17b0 <__mulsf3+0x14>
    17bc:	95 0f       	add	r25, r21
    17be:	50 e0       	ldi	r21, 0x00	; 0
    17c0:	55 1f       	adc	r21, r21
    17c2:	62 9f       	mul	r22, r18
    17c4:	f0 01       	movw	r30, r0
    17c6:	72 9f       	mul	r23, r18
    17c8:	bb 27       	eor	r27, r27
    17ca:	f0 0d       	add	r31, r0
    17cc:	b1 1d       	adc	r27, r1
    17ce:	63 9f       	mul	r22, r19
    17d0:	aa 27       	eor	r26, r26
    17d2:	f0 0d       	add	r31, r0
    17d4:	b1 1d       	adc	r27, r1
    17d6:	aa 1f       	adc	r26, r26
    17d8:	64 9f       	mul	r22, r20
    17da:	66 27       	eor	r22, r22
    17dc:	b0 0d       	add	r27, r0
    17de:	a1 1d       	adc	r26, r1
    17e0:	66 1f       	adc	r22, r22
    17e2:	82 9f       	mul	r24, r18
    17e4:	22 27       	eor	r18, r18
    17e6:	b0 0d       	add	r27, r0
    17e8:	a1 1d       	adc	r26, r1
    17ea:	62 1f       	adc	r22, r18
    17ec:	73 9f       	mul	r23, r19
    17ee:	b0 0d       	add	r27, r0
    17f0:	a1 1d       	adc	r26, r1
    17f2:	62 1f       	adc	r22, r18
    17f4:	83 9f       	mul	r24, r19
    17f6:	a0 0d       	add	r26, r0
    17f8:	61 1d       	adc	r22, r1
    17fa:	22 1f       	adc	r18, r18
    17fc:	74 9f       	mul	r23, r20
    17fe:	33 27       	eor	r19, r19
    1800:	a0 0d       	add	r26, r0
    1802:	61 1d       	adc	r22, r1
    1804:	23 1f       	adc	r18, r19
    1806:	84 9f       	mul	r24, r20
    1808:	60 0d       	add	r22, r0
    180a:	21 1d       	adc	r18, r1
    180c:	82 2f       	mov	r24, r18
    180e:	76 2f       	mov	r23, r22
    1810:	6a 2f       	mov	r22, r26
    1812:	11 24       	eor	r1, r1
    1814:	9f 57       	subi	r25, 0x7F	; 127
    1816:	50 40       	sbci	r21, 0x00	; 0
    1818:	8a f0       	brmi	.+34     	; 0x183c <__mulsf3_pse+0x84>
    181a:	e1 f0       	breq	.+56     	; 0x1854 <__mulsf3_pse+0x9c>
    181c:	88 23       	and	r24, r24
    181e:	4a f0       	brmi	.+18     	; 0x1832 <__mulsf3_pse+0x7a>
    1820:	ee 0f       	add	r30, r30
    1822:	ff 1f       	adc	r31, r31
    1824:	bb 1f       	adc	r27, r27
    1826:	66 1f       	adc	r22, r22
    1828:	77 1f       	adc	r23, r23
    182a:	88 1f       	adc	r24, r24
    182c:	91 50       	subi	r25, 0x01	; 1
    182e:	50 40       	sbci	r21, 0x00	; 0
    1830:	a9 f7       	brne	.-22     	; 0x181c <__mulsf3_pse+0x64>
    1832:	9e 3f       	cpi	r25, 0xFE	; 254
    1834:	51 05       	cpc	r21, r1
    1836:	70 f0       	brcs	.+28     	; 0x1854 <__mulsf3_pse+0x9c>
    1838:	5c cf       	rjmp	.-328    	; 0x16f2 <__fp_inf>
    183a:	a6 cf       	rjmp	.-180    	; 0x1788 <__fp_szero>
    183c:	5f 3f       	cpi	r21, 0xFF	; 255
    183e:	ec f3       	brlt	.-6      	; 0x183a <__mulsf3_pse+0x82>
    1840:	98 3e       	cpi	r25, 0xE8	; 232
    1842:	dc f3       	brlt	.-10     	; 0x183a <__mulsf3_pse+0x82>
    1844:	86 95       	lsr	r24
    1846:	77 95       	ror	r23
    1848:	67 95       	ror	r22
    184a:	b7 95       	ror	r27
    184c:	f7 95       	ror	r31
    184e:	e7 95       	ror	r30
    1850:	9f 5f       	subi	r25, 0xFF	; 255
    1852:	c1 f7       	brne	.-16     	; 0x1844 <__mulsf3_pse+0x8c>
    1854:	fe 2b       	or	r31, r30
    1856:	88 0f       	add	r24, r24
    1858:	91 1d       	adc	r25, r1
    185a:	96 95       	lsr	r25
    185c:	87 95       	ror	r24
    185e:	97 f9       	bld	r25, 7
    1860:	08 95       	ret

00001862 <malloc>:
    1862:	cf 93       	push	r28
    1864:	df 93       	push	r29
    1866:	82 30       	cpi	r24, 0x02	; 2
    1868:	91 05       	cpc	r25, r1
    186a:	10 f4       	brcc	.+4      	; 0x1870 <malloc+0xe>
    186c:	82 e0       	ldi	r24, 0x02	; 2
    186e:	90 e0       	ldi	r25, 0x00	; 0
    1870:	e0 91 34 03 	lds	r30, 0x0334
    1874:	f0 91 35 03 	lds	r31, 0x0335
    1878:	20 e0       	ldi	r18, 0x00	; 0
    187a:	30 e0       	ldi	r19, 0x00	; 0
    187c:	a0 e0       	ldi	r26, 0x00	; 0
    187e:	b0 e0       	ldi	r27, 0x00	; 0
    1880:	30 97       	sbiw	r30, 0x00	; 0
    1882:	39 f1       	breq	.+78     	; 0x18d2 <malloc+0x70>
    1884:	40 81       	ld	r20, Z
    1886:	51 81       	ldd	r21, Z+1	; 0x01
    1888:	48 17       	cp	r20, r24
    188a:	59 07       	cpc	r21, r25
    188c:	b8 f0       	brcs	.+46     	; 0x18bc <malloc+0x5a>
    188e:	48 17       	cp	r20, r24
    1890:	59 07       	cpc	r21, r25
    1892:	71 f4       	brne	.+28     	; 0x18b0 <malloc+0x4e>
    1894:	82 81       	ldd	r24, Z+2	; 0x02
    1896:	93 81       	ldd	r25, Z+3	; 0x03
    1898:	10 97       	sbiw	r26, 0x00	; 0
    189a:	29 f0       	breq	.+10     	; 0x18a6 <malloc+0x44>
    189c:	13 96       	adiw	r26, 0x03	; 3
    189e:	9c 93       	st	X, r25
    18a0:	8e 93       	st	-X, r24
    18a2:	12 97       	sbiw	r26, 0x02	; 2
    18a4:	2c c0       	rjmp	.+88     	; 0x18fe <malloc+0x9c>
    18a6:	90 93 35 03 	sts	0x0335, r25
    18aa:	80 93 34 03 	sts	0x0334, r24
    18ae:	27 c0       	rjmp	.+78     	; 0x18fe <malloc+0x9c>
    18b0:	21 15       	cp	r18, r1
    18b2:	31 05       	cpc	r19, r1
    18b4:	31 f0       	breq	.+12     	; 0x18c2 <malloc+0x60>
    18b6:	42 17       	cp	r20, r18
    18b8:	53 07       	cpc	r21, r19
    18ba:	18 f0       	brcs	.+6      	; 0x18c2 <malloc+0x60>
    18bc:	a9 01       	movw	r20, r18
    18be:	db 01       	movw	r26, r22
    18c0:	01 c0       	rjmp	.+2      	; 0x18c4 <malloc+0x62>
    18c2:	ef 01       	movw	r28, r30
    18c4:	9a 01       	movw	r18, r20
    18c6:	bd 01       	movw	r22, r26
    18c8:	df 01       	movw	r26, r30
    18ca:	02 80       	ldd	r0, Z+2	; 0x02
    18cc:	f3 81       	ldd	r31, Z+3	; 0x03
    18ce:	e0 2d       	mov	r30, r0
    18d0:	d7 cf       	rjmp	.-82     	; 0x1880 <malloc+0x1e>
    18d2:	21 15       	cp	r18, r1
    18d4:	31 05       	cpc	r19, r1
    18d6:	f9 f0       	breq	.+62     	; 0x1916 <malloc+0xb4>
    18d8:	28 1b       	sub	r18, r24
    18da:	39 0b       	sbc	r19, r25
    18dc:	24 30       	cpi	r18, 0x04	; 4
    18de:	31 05       	cpc	r19, r1
    18e0:	80 f4       	brcc	.+32     	; 0x1902 <malloc+0xa0>
    18e2:	8a 81       	ldd	r24, Y+2	; 0x02
    18e4:	9b 81       	ldd	r25, Y+3	; 0x03
    18e6:	61 15       	cp	r22, r1
    18e8:	71 05       	cpc	r23, r1
    18ea:	21 f0       	breq	.+8      	; 0x18f4 <malloc+0x92>
    18ec:	fb 01       	movw	r30, r22
    18ee:	93 83       	std	Z+3, r25	; 0x03
    18f0:	82 83       	std	Z+2, r24	; 0x02
    18f2:	04 c0       	rjmp	.+8      	; 0x18fc <malloc+0x9a>
    18f4:	90 93 35 03 	sts	0x0335, r25
    18f8:	80 93 34 03 	sts	0x0334, r24
    18fc:	fe 01       	movw	r30, r28
    18fe:	32 96       	adiw	r30, 0x02	; 2
    1900:	44 c0       	rjmp	.+136    	; 0x198a <malloc+0x128>
    1902:	fe 01       	movw	r30, r28
    1904:	e2 0f       	add	r30, r18
    1906:	f3 1f       	adc	r31, r19
    1908:	81 93       	st	Z+, r24
    190a:	91 93       	st	Z+, r25
    190c:	22 50       	subi	r18, 0x02	; 2
    190e:	31 09       	sbc	r19, r1
    1910:	39 83       	std	Y+1, r19	; 0x01
    1912:	28 83       	st	Y, r18
    1914:	3a c0       	rjmp	.+116    	; 0x198a <malloc+0x128>
    1916:	20 91 32 03 	lds	r18, 0x0332
    191a:	30 91 33 03 	lds	r19, 0x0333
    191e:	23 2b       	or	r18, r19
    1920:	41 f4       	brne	.+16     	; 0x1932 <malloc+0xd0>
    1922:	20 91 02 01 	lds	r18, 0x0102
    1926:	30 91 03 01 	lds	r19, 0x0103
    192a:	30 93 33 03 	sts	0x0333, r19
    192e:	20 93 32 03 	sts	0x0332, r18
    1932:	20 91 00 01 	lds	r18, 0x0100
    1936:	30 91 01 01 	lds	r19, 0x0101
    193a:	21 15       	cp	r18, r1
    193c:	31 05       	cpc	r19, r1
    193e:	41 f4       	brne	.+16     	; 0x1950 <malloc+0xee>
    1940:	2d b7       	in	r18, 0x3d	; 61
    1942:	3e b7       	in	r19, 0x3e	; 62
    1944:	40 91 04 01 	lds	r20, 0x0104
    1948:	50 91 05 01 	lds	r21, 0x0105
    194c:	24 1b       	sub	r18, r20
    194e:	35 0b       	sbc	r19, r21
    1950:	e0 91 32 03 	lds	r30, 0x0332
    1954:	f0 91 33 03 	lds	r31, 0x0333
    1958:	e2 17       	cp	r30, r18
    195a:	f3 07       	cpc	r31, r19
    195c:	a0 f4       	brcc	.+40     	; 0x1986 <malloc+0x124>
    195e:	2e 1b       	sub	r18, r30
    1960:	3f 0b       	sbc	r19, r31
    1962:	28 17       	cp	r18, r24
    1964:	39 07       	cpc	r19, r25
    1966:	78 f0       	brcs	.+30     	; 0x1986 <malloc+0x124>
    1968:	ac 01       	movw	r20, r24
    196a:	4e 5f       	subi	r20, 0xFE	; 254
    196c:	5f 4f       	sbci	r21, 0xFF	; 255
    196e:	24 17       	cp	r18, r20
    1970:	35 07       	cpc	r19, r21
    1972:	48 f0       	brcs	.+18     	; 0x1986 <malloc+0x124>
    1974:	4e 0f       	add	r20, r30
    1976:	5f 1f       	adc	r21, r31
    1978:	50 93 33 03 	sts	0x0333, r21
    197c:	40 93 32 03 	sts	0x0332, r20
    1980:	81 93       	st	Z+, r24
    1982:	91 93       	st	Z+, r25
    1984:	02 c0       	rjmp	.+4      	; 0x198a <malloc+0x128>
    1986:	e0 e0       	ldi	r30, 0x00	; 0
    1988:	f0 e0       	ldi	r31, 0x00	; 0
    198a:	cf 01       	movw	r24, r30
    198c:	df 91       	pop	r29
    198e:	cf 91       	pop	r28
    1990:	08 95       	ret

00001992 <free>:
    1992:	cf 93       	push	r28
    1994:	df 93       	push	r29
    1996:	00 97       	sbiw	r24, 0x00	; 0
    1998:	09 f4       	brne	.+2      	; 0x199c <free+0xa>
    199a:	87 c0       	rjmp	.+270    	; 0x1aaa <free+0x118>
    199c:	fc 01       	movw	r30, r24
    199e:	32 97       	sbiw	r30, 0x02	; 2
    19a0:	13 82       	std	Z+3, r1	; 0x03
    19a2:	12 82       	std	Z+2, r1	; 0x02
    19a4:	c0 91 34 03 	lds	r28, 0x0334
    19a8:	d0 91 35 03 	lds	r29, 0x0335
    19ac:	20 97       	sbiw	r28, 0x00	; 0
    19ae:	81 f4       	brne	.+32     	; 0x19d0 <free+0x3e>
    19b0:	20 81       	ld	r18, Z
    19b2:	31 81       	ldd	r19, Z+1	; 0x01
    19b4:	28 0f       	add	r18, r24
    19b6:	39 1f       	adc	r19, r25
    19b8:	80 91 32 03 	lds	r24, 0x0332
    19bc:	90 91 33 03 	lds	r25, 0x0333
    19c0:	82 17       	cp	r24, r18
    19c2:	93 07       	cpc	r25, r19
    19c4:	79 f5       	brne	.+94     	; 0x1a24 <free+0x92>
    19c6:	f0 93 33 03 	sts	0x0333, r31
    19ca:	e0 93 32 03 	sts	0x0332, r30
    19ce:	6d c0       	rjmp	.+218    	; 0x1aaa <free+0x118>
    19d0:	de 01       	movw	r26, r28
    19d2:	20 e0       	ldi	r18, 0x00	; 0
    19d4:	30 e0       	ldi	r19, 0x00	; 0
    19d6:	ae 17       	cp	r26, r30
    19d8:	bf 07       	cpc	r27, r31
    19da:	50 f4       	brcc	.+20     	; 0x19f0 <free+0x5e>
    19dc:	12 96       	adiw	r26, 0x02	; 2
    19de:	4d 91       	ld	r20, X+
    19e0:	5c 91       	ld	r21, X
    19e2:	13 97       	sbiw	r26, 0x03	; 3
    19e4:	9d 01       	movw	r18, r26
    19e6:	41 15       	cp	r20, r1
    19e8:	51 05       	cpc	r21, r1
    19ea:	09 f1       	breq	.+66     	; 0x1a2e <free+0x9c>
    19ec:	da 01       	movw	r26, r20
    19ee:	f3 cf       	rjmp	.-26     	; 0x19d6 <free+0x44>
    19f0:	b3 83       	std	Z+3, r27	; 0x03
    19f2:	a2 83       	std	Z+2, r26	; 0x02
    19f4:	40 81       	ld	r20, Z
    19f6:	51 81       	ldd	r21, Z+1	; 0x01
    19f8:	84 0f       	add	r24, r20
    19fa:	95 1f       	adc	r25, r21
    19fc:	8a 17       	cp	r24, r26
    19fe:	9b 07       	cpc	r25, r27
    1a00:	71 f4       	brne	.+28     	; 0x1a1e <free+0x8c>
    1a02:	8d 91       	ld	r24, X+
    1a04:	9c 91       	ld	r25, X
    1a06:	11 97       	sbiw	r26, 0x01	; 1
    1a08:	84 0f       	add	r24, r20
    1a0a:	95 1f       	adc	r25, r21
    1a0c:	02 96       	adiw	r24, 0x02	; 2
    1a0e:	91 83       	std	Z+1, r25	; 0x01
    1a10:	80 83       	st	Z, r24
    1a12:	12 96       	adiw	r26, 0x02	; 2
    1a14:	8d 91       	ld	r24, X+
    1a16:	9c 91       	ld	r25, X
    1a18:	13 97       	sbiw	r26, 0x03	; 3
    1a1a:	93 83       	std	Z+3, r25	; 0x03
    1a1c:	82 83       	std	Z+2, r24	; 0x02
    1a1e:	21 15       	cp	r18, r1
    1a20:	31 05       	cpc	r19, r1
    1a22:	29 f4       	brne	.+10     	; 0x1a2e <free+0x9c>
    1a24:	f0 93 35 03 	sts	0x0335, r31
    1a28:	e0 93 34 03 	sts	0x0334, r30
    1a2c:	3e c0       	rjmp	.+124    	; 0x1aaa <free+0x118>
    1a2e:	d9 01       	movw	r26, r18
    1a30:	13 96       	adiw	r26, 0x03	; 3
    1a32:	fc 93       	st	X, r31
    1a34:	ee 93       	st	-X, r30
    1a36:	12 97       	sbiw	r26, 0x02	; 2
    1a38:	4d 91       	ld	r20, X+
    1a3a:	5d 91       	ld	r21, X+
    1a3c:	a4 0f       	add	r26, r20
    1a3e:	b5 1f       	adc	r27, r21
    1a40:	ea 17       	cp	r30, r26
    1a42:	fb 07       	cpc	r31, r27
    1a44:	79 f4       	brne	.+30     	; 0x1a64 <free+0xd2>
    1a46:	80 81       	ld	r24, Z
    1a48:	91 81       	ldd	r25, Z+1	; 0x01
    1a4a:	84 0f       	add	r24, r20
    1a4c:	95 1f       	adc	r25, r21
    1a4e:	02 96       	adiw	r24, 0x02	; 2
    1a50:	d9 01       	movw	r26, r18
    1a52:	11 96       	adiw	r26, 0x01	; 1
    1a54:	9c 93       	st	X, r25
    1a56:	8e 93       	st	-X, r24
    1a58:	82 81       	ldd	r24, Z+2	; 0x02
    1a5a:	93 81       	ldd	r25, Z+3	; 0x03
    1a5c:	13 96       	adiw	r26, 0x03	; 3
    1a5e:	9c 93       	st	X, r25
    1a60:	8e 93       	st	-X, r24
    1a62:	12 97       	sbiw	r26, 0x02	; 2
    1a64:	e0 e0       	ldi	r30, 0x00	; 0
    1a66:	f0 e0       	ldi	r31, 0x00	; 0
    1a68:	8a 81       	ldd	r24, Y+2	; 0x02
    1a6a:	9b 81       	ldd	r25, Y+3	; 0x03
    1a6c:	00 97       	sbiw	r24, 0x00	; 0
    1a6e:	19 f0       	breq	.+6      	; 0x1a76 <free+0xe4>
    1a70:	fe 01       	movw	r30, r28
    1a72:	ec 01       	movw	r28, r24
    1a74:	f9 cf       	rjmp	.-14     	; 0x1a68 <free+0xd6>
    1a76:	ce 01       	movw	r24, r28
    1a78:	02 96       	adiw	r24, 0x02	; 2
    1a7a:	28 81       	ld	r18, Y
    1a7c:	39 81       	ldd	r19, Y+1	; 0x01
    1a7e:	82 0f       	add	r24, r18
    1a80:	93 1f       	adc	r25, r19
    1a82:	20 91 32 03 	lds	r18, 0x0332
    1a86:	30 91 33 03 	lds	r19, 0x0333
    1a8a:	28 17       	cp	r18, r24
    1a8c:	39 07       	cpc	r19, r25
    1a8e:	69 f4       	brne	.+26     	; 0x1aaa <free+0x118>
    1a90:	30 97       	sbiw	r30, 0x00	; 0
    1a92:	29 f4       	brne	.+10     	; 0x1a9e <free+0x10c>
    1a94:	10 92 35 03 	sts	0x0335, r1
    1a98:	10 92 34 03 	sts	0x0334, r1
    1a9c:	02 c0       	rjmp	.+4      	; 0x1aa2 <free+0x110>
    1a9e:	13 82       	std	Z+3, r1	; 0x03
    1aa0:	12 82       	std	Z+2, r1	; 0x02
    1aa2:	d0 93 33 03 	sts	0x0333, r29
    1aa6:	c0 93 32 03 	sts	0x0332, r28
    1aaa:	df 91       	pop	r29
    1aac:	cf 91       	pop	r28
    1aae:	08 95       	ret

00001ab0 <do_rand>:
    1ab0:	8f 92       	push	r8
    1ab2:	9f 92       	push	r9
    1ab4:	af 92       	push	r10
    1ab6:	bf 92       	push	r11
    1ab8:	cf 92       	push	r12
    1aba:	df 92       	push	r13
    1abc:	ef 92       	push	r14
    1abe:	ff 92       	push	r15
    1ac0:	cf 93       	push	r28
    1ac2:	df 93       	push	r29
    1ac4:	ec 01       	movw	r28, r24
    1ac6:	68 81       	ld	r22, Y
    1ac8:	79 81       	ldd	r23, Y+1	; 0x01
    1aca:	8a 81       	ldd	r24, Y+2	; 0x02
    1acc:	9b 81       	ldd	r25, Y+3	; 0x03
    1ace:	61 15       	cp	r22, r1
    1ad0:	71 05       	cpc	r23, r1
    1ad2:	81 05       	cpc	r24, r1
    1ad4:	91 05       	cpc	r25, r1
    1ad6:	21 f4       	brne	.+8      	; 0x1ae0 <do_rand+0x30>
    1ad8:	64 e2       	ldi	r22, 0x24	; 36
    1ada:	79 ed       	ldi	r23, 0xD9	; 217
    1adc:	8b e5       	ldi	r24, 0x5B	; 91
    1ade:	97 e0       	ldi	r25, 0x07	; 7
    1ae0:	2d e1       	ldi	r18, 0x1D	; 29
    1ae2:	33 ef       	ldi	r19, 0xF3	; 243
    1ae4:	41 e0       	ldi	r20, 0x01	; 1
    1ae6:	50 e0       	ldi	r21, 0x00	; 0
    1ae8:	0e 94 ed 10 	call	0x21da	; 0x21da <__divmodsi4>
    1aec:	49 01       	movw	r8, r18
    1aee:	5a 01       	movw	r10, r20
    1af0:	9b 01       	movw	r18, r22
    1af2:	ac 01       	movw	r20, r24
    1af4:	a7 ea       	ldi	r26, 0xA7	; 167
    1af6:	b1 e4       	ldi	r27, 0x41	; 65
    1af8:	0e 94 0c 11 	call	0x2218	; 0x2218 <__muluhisi3>
    1afc:	6b 01       	movw	r12, r22
    1afe:	7c 01       	movw	r14, r24
    1b00:	ac ee       	ldi	r26, 0xEC	; 236
    1b02:	b4 ef       	ldi	r27, 0xF4	; 244
    1b04:	a5 01       	movw	r20, r10
    1b06:	94 01       	movw	r18, r8
    1b08:	0e 94 1a 11 	call	0x2234	; 0x2234 <__mulohisi3>
    1b0c:	c6 0e       	add	r12, r22
    1b0e:	d7 1e       	adc	r13, r23
    1b10:	e8 1e       	adc	r14, r24
    1b12:	f9 1e       	adc	r15, r25
    1b14:	f7 fe       	sbrs	r15, 7
    1b16:	06 c0       	rjmp	.+12     	; 0x1b24 <do_rand+0x74>
    1b18:	81 e0       	ldi	r24, 0x01	; 1
    1b1a:	c8 1a       	sub	r12, r24
    1b1c:	d1 08       	sbc	r13, r1
    1b1e:	e1 08       	sbc	r14, r1
    1b20:	80 e8       	ldi	r24, 0x80	; 128
    1b22:	f8 0a       	sbc	r15, r24
    1b24:	c8 82       	st	Y, r12
    1b26:	d9 82       	std	Y+1, r13	; 0x01
    1b28:	ea 82       	std	Y+2, r14	; 0x02
    1b2a:	fb 82       	std	Y+3, r15	; 0x03
    1b2c:	c6 01       	movw	r24, r12
    1b2e:	9f 77       	andi	r25, 0x7F	; 127
    1b30:	df 91       	pop	r29
    1b32:	cf 91       	pop	r28
    1b34:	ff 90       	pop	r15
    1b36:	ef 90       	pop	r14
    1b38:	df 90       	pop	r13
    1b3a:	cf 90       	pop	r12
    1b3c:	bf 90       	pop	r11
    1b3e:	af 90       	pop	r10
    1b40:	9f 90       	pop	r9
    1b42:	8f 90       	pop	r8
    1b44:	08 95       	ret

00001b46 <rand_r>:
    1b46:	0e 94 58 0d 	call	0x1ab0	; 0x1ab0 <do_rand>
    1b4a:	08 95       	ret

00001b4c <rand>:
    1b4c:	86 e0       	ldi	r24, 0x06	; 6
    1b4e:	91 e0       	ldi	r25, 0x01	; 1
    1b50:	0e 94 58 0d 	call	0x1ab0	; 0x1ab0 <do_rand>
    1b54:	08 95       	ret

00001b56 <srand>:
    1b56:	a0 e0       	ldi	r26, 0x00	; 0
    1b58:	b0 e0       	ldi	r27, 0x00	; 0
    1b5a:	80 93 06 01 	sts	0x0106, r24
    1b5e:	90 93 07 01 	sts	0x0107, r25
    1b62:	a0 93 08 01 	sts	0x0108, r26
    1b66:	b0 93 09 01 	sts	0x0109, r27
    1b6a:	08 95       	ret

00001b6c <strcmp>:
    1b6c:	fb 01       	movw	r30, r22
    1b6e:	dc 01       	movw	r26, r24
    1b70:	8d 91       	ld	r24, X+
    1b72:	01 90       	ld	r0, Z+
    1b74:	80 19       	sub	r24, r0
    1b76:	01 10       	cpse	r0, r1
    1b78:	d9 f3       	breq	.-10     	; 0x1b70 <strcmp+0x4>
    1b7a:	99 0b       	sbc	r25, r25
    1b7c:	08 95       	ret

00001b7e <fdevopen>:
    1b7e:	0f 93       	push	r16
    1b80:	1f 93       	push	r17
    1b82:	cf 93       	push	r28
    1b84:	df 93       	push	r29
    1b86:	ec 01       	movw	r28, r24
    1b88:	8b 01       	movw	r16, r22
    1b8a:	00 97       	sbiw	r24, 0x00	; 0
    1b8c:	31 f4       	brne	.+12     	; 0x1b9a <fdevopen+0x1c>
    1b8e:	61 15       	cp	r22, r1
    1b90:	71 05       	cpc	r23, r1
    1b92:	19 f4       	brne	.+6      	; 0x1b9a <fdevopen+0x1c>
    1b94:	80 e0       	ldi	r24, 0x00	; 0
    1b96:	90 e0       	ldi	r25, 0x00	; 0
    1b98:	38 c0       	rjmp	.+112    	; 0x1c0a <fdevopen+0x8c>
    1b9a:	6e e0       	ldi	r22, 0x0E	; 14
    1b9c:	70 e0       	ldi	r23, 0x00	; 0
    1b9e:	81 e0       	ldi	r24, 0x01	; 1
    1ba0:	90 e0       	ldi	r25, 0x00	; 0
    1ba2:	0e 94 24 10 	call	0x2048	; 0x2048 <calloc>
    1ba6:	fc 01       	movw	r30, r24
    1ba8:	00 97       	sbiw	r24, 0x00	; 0
    1baa:	a1 f3       	breq	.-24     	; 0x1b94 <fdevopen+0x16>
    1bac:	80 e8       	ldi	r24, 0x80	; 128
    1bae:	83 83       	std	Z+3, r24	; 0x03
    1bb0:	01 15       	cp	r16, r1
    1bb2:	11 05       	cpc	r17, r1
    1bb4:	71 f0       	breq	.+28     	; 0x1bd2 <fdevopen+0x54>
    1bb6:	13 87       	std	Z+11, r17	; 0x0b
    1bb8:	02 87       	std	Z+10, r16	; 0x0a
    1bba:	81 e8       	ldi	r24, 0x81	; 129
    1bbc:	83 83       	std	Z+3, r24	; 0x03
    1bbe:	80 91 36 03 	lds	r24, 0x0336
    1bc2:	90 91 37 03 	lds	r25, 0x0337
    1bc6:	89 2b       	or	r24, r25
    1bc8:	21 f4       	brne	.+8      	; 0x1bd2 <fdevopen+0x54>
    1bca:	f0 93 37 03 	sts	0x0337, r31
    1bce:	e0 93 36 03 	sts	0x0336, r30
    1bd2:	20 97       	sbiw	r28, 0x00	; 0
    1bd4:	c9 f0       	breq	.+50     	; 0x1c08 <fdevopen+0x8a>
    1bd6:	d1 87       	std	Z+9, r29	; 0x09
    1bd8:	c0 87       	std	Z+8, r28	; 0x08
    1bda:	83 81       	ldd	r24, Z+3	; 0x03
    1bdc:	82 60       	ori	r24, 0x02	; 2
    1bde:	83 83       	std	Z+3, r24	; 0x03
    1be0:	80 91 38 03 	lds	r24, 0x0338
    1be4:	90 91 39 03 	lds	r25, 0x0339
    1be8:	89 2b       	or	r24, r25
    1bea:	71 f4       	brne	.+28     	; 0x1c08 <fdevopen+0x8a>
    1bec:	f0 93 39 03 	sts	0x0339, r31
    1bf0:	e0 93 38 03 	sts	0x0338, r30
    1bf4:	80 91 3a 03 	lds	r24, 0x033A
    1bf8:	90 91 3b 03 	lds	r25, 0x033B
    1bfc:	89 2b       	or	r24, r25
    1bfe:	21 f4       	brne	.+8      	; 0x1c08 <fdevopen+0x8a>
    1c00:	f0 93 3b 03 	sts	0x033B, r31
    1c04:	e0 93 3a 03 	sts	0x033A, r30
    1c08:	cf 01       	movw	r24, r30
    1c0a:	df 91       	pop	r29
    1c0c:	cf 91       	pop	r28
    1c0e:	1f 91       	pop	r17
    1c10:	0f 91       	pop	r16
    1c12:	08 95       	ret

00001c14 <printf>:
    1c14:	a0 e0       	ldi	r26, 0x00	; 0
    1c16:	b0 e0       	ldi	r27, 0x00	; 0
    1c18:	e0 e1       	ldi	r30, 0x10	; 16
    1c1a:	fe e0       	ldi	r31, 0x0E	; 14
    1c1c:	0c 94 2f 11 	jmp	0x225e	; 0x225e <__prologue_saves__+0x20>
    1c20:	fe 01       	movw	r30, r28
    1c22:	35 96       	adiw	r30, 0x05	; 5
    1c24:	61 91       	ld	r22, Z+
    1c26:	71 91       	ld	r23, Z+
    1c28:	af 01       	movw	r20, r30
    1c2a:	80 91 38 03 	lds	r24, 0x0338
    1c2e:	90 91 39 03 	lds	r25, 0x0339
    1c32:	0e 94 52 0e 	call	0x1ca4	; 0x1ca4 <vfprintf>
    1c36:	e2 e0       	ldi	r30, 0x02	; 2
    1c38:	0c 94 4b 11 	jmp	0x2296	; 0x2296 <__epilogue_restores__+0x20>

00001c3c <putchar>:
    1c3c:	60 91 38 03 	lds	r22, 0x0338
    1c40:	70 91 39 03 	lds	r23, 0x0339
    1c44:	0e 94 5d 10 	call	0x20ba	; 0x20ba <fputc>
    1c48:	08 95       	ret

00001c4a <puts>:
    1c4a:	0f 93       	push	r16
    1c4c:	1f 93       	push	r17
    1c4e:	cf 93       	push	r28
    1c50:	df 93       	push	r29
    1c52:	e0 91 38 03 	lds	r30, 0x0338
    1c56:	f0 91 39 03 	lds	r31, 0x0339
    1c5a:	23 81       	ldd	r18, Z+3	; 0x03
    1c5c:	21 ff       	sbrs	r18, 1
    1c5e:	1b c0       	rjmp	.+54     	; 0x1c96 <puts+0x4c>
    1c60:	ec 01       	movw	r28, r24
    1c62:	00 e0       	ldi	r16, 0x00	; 0
    1c64:	10 e0       	ldi	r17, 0x00	; 0
    1c66:	89 91       	ld	r24, Y+
    1c68:	60 91 38 03 	lds	r22, 0x0338
    1c6c:	70 91 39 03 	lds	r23, 0x0339
    1c70:	db 01       	movw	r26, r22
    1c72:	18 96       	adiw	r26, 0x08	; 8
    1c74:	ed 91       	ld	r30, X+
    1c76:	fc 91       	ld	r31, X
    1c78:	19 97       	sbiw	r26, 0x09	; 9
    1c7a:	88 23       	and	r24, r24
    1c7c:	31 f0       	breq	.+12     	; 0x1c8a <puts+0x40>
    1c7e:	09 95       	icall
    1c80:	89 2b       	or	r24, r25
    1c82:	89 f3       	breq	.-30     	; 0x1c66 <puts+0x1c>
    1c84:	0f ef       	ldi	r16, 0xFF	; 255
    1c86:	1f ef       	ldi	r17, 0xFF	; 255
    1c88:	ee cf       	rjmp	.-36     	; 0x1c66 <puts+0x1c>
    1c8a:	8a e0       	ldi	r24, 0x0A	; 10
    1c8c:	09 95       	icall
    1c8e:	89 2b       	or	r24, r25
    1c90:	11 f4       	brne	.+4      	; 0x1c96 <puts+0x4c>
    1c92:	c8 01       	movw	r24, r16
    1c94:	02 c0       	rjmp	.+4      	; 0x1c9a <puts+0x50>
    1c96:	8f ef       	ldi	r24, 0xFF	; 255
    1c98:	9f ef       	ldi	r25, 0xFF	; 255
    1c9a:	df 91       	pop	r29
    1c9c:	cf 91       	pop	r28
    1c9e:	1f 91       	pop	r17
    1ca0:	0f 91       	pop	r16
    1ca2:	08 95       	ret

00001ca4 <vfprintf>:
    1ca4:	ac e0       	ldi	r26, 0x0C	; 12
    1ca6:	b0 e0       	ldi	r27, 0x00	; 0
    1ca8:	e8 e5       	ldi	r30, 0x58	; 88
    1caa:	fe e0       	ldi	r31, 0x0E	; 14
    1cac:	0c 94 1f 11 	jmp	0x223e	; 0x223e <__prologue_saves__>
    1cb0:	7c 01       	movw	r14, r24
    1cb2:	6b 01       	movw	r12, r22
    1cb4:	8a 01       	movw	r16, r20
    1cb6:	fc 01       	movw	r30, r24
    1cb8:	17 82       	std	Z+7, r1	; 0x07
    1cba:	16 82       	std	Z+6, r1	; 0x06
    1cbc:	83 81       	ldd	r24, Z+3	; 0x03
    1cbe:	81 ff       	sbrs	r24, 1
    1cc0:	bd c1       	rjmp	.+890    	; 0x203c <vfprintf+0x398>
    1cc2:	ce 01       	movw	r24, r28
    1cc4:	01 96       	adiw	r24, 0x01	; 1
    1cc6:	4c 01       	movw	r8, r24
    1cc8:	f7 01       	movw	r30, r14
    1cca:	93 81       	ldd	r25, Z+3	; 0x03
    1ccc:	f6 01       	movw	r30, r12
    1cce:	93 fd       	sbrc	r25, 3
    1cd0:	85 91       	lpm	r24, Z+
    1cd2:	93 ff       	sbrs	r25, 3
    1cd4:	81 91       	ld	r24, Z+
    1cd6:	6f 01       	movw	r12, r30
    1cd8:	88 23       	and	r24, r24
    1cda:	09 f4       	brne	.+2      	; 0x1cde <vfprintf+0x3a>
    1cdc:	ab c1       	rjmp	.+854    	; 0x2034 <vfprintf+0x390>
    1cde:	85 32       	cpi	r24, 0x25	; 37
    1ce0:	39 f4       	brne	.+14     	; 0x1cf0 <vfprintf+0x4c>
    1ce2:	93 fd       	sbrc	r25, 3
    1ce4:	85 91       	lpm	r24, Z+
    1ce6:	93 ff       	sbrs	r25, 3
    1ce8:	81 91       	ld	r24, Z+
    1cea:	6f 01       	movw	r12, r30
    1cec:	85 32       	cpi	r24, 0x25	; 37
    1cee:	29 f4       	brne	.+10     	; 0x1cfa <vfprintf+0x56>
    1cf0:	b7 01       	movw	r22, r14
    1cf2:	90 e0       	ldi	r25, 0x00	; 0
    1cf4:	0e 94 5d 10 	call	0x20ba	; 0x20ba <fputc>
    1cf8:	e7 cf       	rjmp	.-50     	; 0x1cc8 <vfprintf+0x24>
    1cfa:	51 2c       	mov	r5, r1
    1cfc:	31 2c       	mov	r3, r1
    1cfe:	20 e0       	ldi	r18, 0x00	; 0
    1d00:	20 32       	cpi	r18, 0x20	; 32
    1d02:	a0 f4       	brcc	.+40     	; 0x1d2c <vfprintf+0x88>
    1d04:	8b 32       	cpi	r24, 0x2B	; 43
    1d06:	69 f0       	breq	.+26     	; 0x1d22 <vfprintf+0x7e>
    1d08:	30 f4       	brcc	.+12     	; 0x1d16 <vfprintf+0x72>
    1d0a:	80 32       	cpi	r24, 0x20	; 32
    1d0c:	59 f0       	breq	.+22     	; 0x1d24 <vfprintf+0x80>
    1d0e:	83 32       	cpi	r24, 0x23	; 35
    1d10:	69 f4       	brne	.+26     	; 0x1d2c <vfprintf+0x88>
    1d12:	20 61       	ori	r18, 0x10	; 16
    1d14:	2c c0       	rjmp	.+88     	; 0x1d6e <vfprintf+0xca>
    1d16:	8d 32       	cpi	r24, 0x2D	; 45
    1d18:	39 f0       	breq	.+14     	; 0x1d28 <vfprintf+0x84>
    1d1a:	80 33       	cpi	r24, 0x30	; 48
    1d1c:	39 f4       	brne	.+14     	; 0x1d2c <vfprintf+0x88>
    1d1e:	21 60       	ori	r18, 0x01	; 1
    1d20:	26 c0       	rjmp	.+76     	; 0x1d6e <vfprintf+0xca>
    1d22:	22 60       	ori	r18, 0x02	; 2
    1d24:	24 60       	ori	r18, 0x04	; 4
    1d26:	23 c0       	rjmp	.+70     	; 0x1d6e <vfprintf+0xca>
    1d28:	28 60       	ori	r18, 0x08	; 8
    1d2a:	21 c0       	rjmp	.+66     	; 0x1d6e <vfprintf+0xca>
    1d2c:	27 fd       	sbrc	r18, 7
    1d2e:	27 c0       	rjmp	.+78     	; 0x1d7e <vfprintf+0xda>
    1d30:	30 ed       	ldi	r19, 0xD0	; 208
    1d32:	38 0f       	add	r19, r24
    1d34:	3a 30       	cpi	r19, 0x0A	; 10
    1d36:	78 f4       	brcc	.+30     	; 0x1d56 <vfprintf+0xb2>
    1d38:	26 ff       	sbrs	r18, 6
    1d3a:	06 c0       	rjmp	.+12     	; 0x1d48 <vfprintf+0xa4>
    1d3c:	fa e0       	ldi	r31, 0x0A	; 10
    1d3e:	5f 9e       	mul	r5, r31
    1d40:	30 0d       	add	r19, r0
    1d42:	11 24       	eor	r1, r1
    1d44:	53 2e       	mov	r5, r19
    1d46:	13 c0       	rjmp	.+38     	; 0x1d6e <vfprintf+0xca>
    1d48:	8a e0       	ldi	r24, 0x0A	; 10
    1d4a:	38 9e       	mul	r3, r24
    1d4c:	30 0d       	add	r19, r0
    1d4e:	11 24       	eor	r1, r1
    1d50:	33 2e       	mov	r3, r19
    1d52:	20 62       	ori	r18, 0x20	; 32
    1d54:	0c c0       	rjmp	.+24     	; 0x1d6e <vfprintf+0xca>
    1d56:	8e 32       	cpi	r24, 0x2E	; 46
    1d58:	21 f4       	brne	.+8      	; 0x1d62 <vfprintf+0xbe>
    1d5a:	26 fd       	sbrc	r18, 6
    1d5c:	6b c1       	rjmp	.+726    	; 0x2034 <vfprintf+0x390>
    1d5e:	20 64       	ori	r18, 0x40	; 64
    1d60:	06 c0       	rjmp	.+12     	; 0x1d6e <vfprintf+0xca>
    1d62:	8c 36       	cpi	r24, 0x6C	; 108
    1d64:	11 f4       	brne	.+4      	; 0x1d6a <vfprintf+0xc6>
    1d66:	20 68       	ori	r18, 0x80	; 128
    1d68:	02 c0       	rjmp	.+4      	; 0x1d6e <vfprintf+0xca>
    1d6a:	88 36       	cpi	r24, 0x68	; 104
    1d6c:	41 f4       	brne	.+16     	; 0x1d7e <vfprintf+0xda>
    1d6e:	f6 01       	movw	r30, r12
    1d70:	93 fd       	sbrc	r25, 3
    1d72:	85 91       	lpm	r24, Z+
    1d74:	93 ff       	sbrs	r25, 3
    1d76:	81 91       	ld	r24, Z+
    1d78:	6f 01       	movw	r12, r30
    1d7a:	81 11       	cpse	r24, r1
    1d7c:	c1 cf       	rjmp	.-126    	; 0x1d00 <vfprintf+0x5c>
    1d7e:	98 2f       	mov	r25, r24
    1d80:	9f 7d       	andi	r25, 0xDF	; 223
    1d82:	95 54       	subi	r25, 0x45	; 69
    1d84:	93 30       	cpi	r25, 0x03	; 3
    1d86:	28 f4       	brcc	.+10     	; 0x1d92 <vfprintf+0xee>
    1d88:	0c 5f       	subi	r16, 0xFC	; 252
    1d8a:	1f 4f       	sbci	r17, 0xFF	; 255
    1d8c:	ff e3       	ldi	r31, 0x3F	; 63
    1d8e:	f9 83       	std	Y+1, r31	; 0x01
    1d90:	0d c0       	rjmp	.+26     	; 0x1dac <vfprintf+0x108>
    1d92:	83 36       	cpi	r24, 0x63	; 99
    1d94:	31 f0       	breq	.+12     	; 0x1da2 <vfprintf+0xfe>
    1d96:	83 37       	cpi	r24, 0x73	; 115
    1d98:	71 f0       	breq	.+28     	; 0x1db6 <vfprintf+0x112>
    1d9a:	83 35       	cpi	r24, 0x53	; 83
    1d9c:	09 f0       	breq	.+2      	; 0x1da0 <vfprintf+0xfc>
    1d9e:	5b c0       	rjmp	.+182    	; 0x1e56 <vfprintf+0x1b2>
    1da0:	22 c0       	rjmp	.+68     	; 0x1de6 <vfprintf+0x142>
    1da2:	f8 01       	movw	r30, r16
    1da4:	80 81       	ld	r24, Z
    1da6:	89 83       	std	Y+1, r24	; 0x01
    1da8:	0e 5f       	subi	r16, 0xFE	; 254
    1daa:	1f 4f       	sbci	r17, 0xFF	; 255
    1dac:	44 24       	eor	r4, r4
    1dae:	43 94       	inc	r4
    1db0:	51 2c       	mov	r5, r1
    1db2:	54 01       	movw	r10, r8
    1db4:	15 c0       	rjmp	.+42     	; 0x1de0 <vfprintf+0x13c>
    1db6:	38 01       	movw	r6, r16
    1db8:	f2 e0       	ldi	r31, 0x02	; 2
    1dba:	6f 0e       	add	r6, r31
    1dbc:	71 1c       	adc	r7, r1
    1dbe:	f8 01       	movw	r30, r16
    1dc0:	a0 80       	ld	r10, Z
    1dc2:	b1 80       	ldd	r11, Z+1	; 0x01
    1dc4:	26 ff       	sbrs	r18, 6
    1dc6:	03 c0       	rjmp	.+6      	; 0x1dce <vfprintf+0x12a>
    1dc8:	65 2d       	mov	r22, r5
    1dca:	70 e0       	ldi	r23, 0x00	; 0
    1dcc:	02 c0       	rjmp	.+4      	; 0x1dd2 <vfprintf+0x12e>
    1dce:	6f ef       	ldi	r22, 0xFF	; 255
    1dd0:	7f ef       	ldi	r23, 0xFF	; 255
    1dd2:	c5 01       	movw	r24, r10
    1dd4:	2c 87       	std	Y+12, r18	; 0x0c
    1dd6:	0e 94 52 10 	call	0x20a4	; 0x20a4 <strnlen>
    1dda:	2c 01       	movw	r4, r24
    1ddc:	83 01       	movw	r16, r6
    1dde:	2c 85       	ldd	r18, Y+12	; 0x0c
    1de0:	2f 77       	andi	r18, 0x7F	; 127
    1de2:	22 2e       	mov	r2, r18
    1de4:	17 c0       	rjmp	.+46     	; 0x1e14 <vfprintf+0x170>
    1de6:	38 01       	movw	r6, r16
    1de8:	f2 e0       	ldi	r31, 0x02	; 2
    1dea:	6f 0e       	add	r6, r31
    1dec:	71 1c       	adc	r7, r1
    1dee:	f8 01       	movw	r30, r16
    1df0:	a0 80       	ld	r10, Z
    1df2:	b1 80       	ldd	r11, Z+1	; 0x01
    1df4:	26 ff       	sbrs	r18, 6
    1df6:	03 c0       	rjmp	.+6      	; 0x1dfe <vfprintf+0x15a>
    1df8:	65 2d       	mov	r22, r5
    1dfa:	70 e0       	ldi	r23, 0x00	; 0
    1dfc:	02 c0       	rjmp	.+4      	; 0x1e02 <vfprintf+0x15e>
    1dfe:	6f ef       	ldi	r22, 0xFF	; 255
    1e00:	7f ef       	ldi	r23, 0xFF	; 255
    1e02:	c5 01       	movw	r24, r10
    1e04:	2c 87       	std	Y+12, r18	; 0x0c
    1e06:	0e 94 40 10 	call	0x2080	; 0x2080 <strnlen_P>
    1e0a:	2c 01       	movw	r4, r24
    1e0c:	2c 85       	ldd	r18, Y+12	; 0x0c
    1e0e:	20 68       	ori	r18, 0x80	; 128
    1e10:	22 2e       	mov	r2, r18
    1e12:	83 01       	movw	r16, r6
    1e14:	23 fc       	sbrc	r2, 3
    1e16:	1b c0       	rjmp	.+54     	; 0x1e4e <vfprintf+0x1aa>
    1e18:	83 2d       	mov	r24, r3
    1e1a:	90 e0       	ldi	r25, 0x00	; 0
    1e1c:	48 16       	cp	r4, r24
    1e1e:	59 06       	cpc	r5, r25
    1e20:	b0 f4       	brcc	.+44     	; 0x1e4e <vfprintf+0x1aa>
    1e22:	b7 01       	movw	r22, r14
    1e24:	80 e2       	ldi	r24, 0x20	; 32
    1e26:	90 e0       	ldi	r25, 0x00	; 0
    1e28:	0e 94 5d 10 	call	0x20ba	; 0x20ba <fputc>
    1e2c:	3a 94       	dec	r3
    1e2e:	f4 cf       	rjmp	.-24     	; 0x1e18 <vfprintf+0x174>
    1e30:	f5 01       	movw	r30, r10
    1e32:	27 fc       	sbrc	r2, 7
    1e34:	85 91       	lpm	r24, Z+
    1e36:	27 fe       	sbrs	r2, 7
    1e38:	81 91       	ld	r24, Z+
    1e3a:	5f 01       	movw	r10, r30
    1e3c:	b7 01       	movw	r22, r14
    1e3e:	90 e0       	ldi	r25, 0x00	; 0
    1e40:	0e 94 5d 10 	call	0x20ba	; 0x20ba <fputc>
    1e44:	31 10       	cpse	r3, r1
    1e46:	3a 94       	dec	r3
    1e48:	f1 e0       	ldi	r31, 0x01	; 1
    1e4a:	4f 1a       	sub	r4, r31
    1e4c:	51 08       	sbc	r5, r1
    1e4e:	41 14       	cp	r4, r1
    1e50:	51 04       	cpc	r5, r1
    1e52:	71 f7       	brne	.-36     	; 0x1e30 <vfprintf+0x18c>
    1e54:	e5 c0       	rjmp	.+458    	; 0x2020 <vfprintf+0x37c>
    1e56:	84 36       	cpi	r24, 0x64	; 100
    1e58:	11 f0       	breq	.+4      	; 0x1e5e <vfprintf+0x1ba>
    1e5a:	89 36       	cpi	r24, 0x69	; 105
    1e5c:	39 f5       	brne	.+78     	; 0x1eac <vfprintf+0x208>
    1e5e:	f8 01       	movw	r30, r16
    1e60:	27 ff       	sbrs	r18, 7
    1e62:	07 c0       	rjmp	.+14     	; 0x1e72 <vfprintf+0x1ce>
    1e64:	60 81       	ld	r22, Z
    1e66:	71 81       	ldd	r23, Z+1	; 0x01
    1e68:	82 81       	ldd	r24, Z+2	; 0x02
    1e6a:	93 81       	ldd	r25, Z+3	; 0x03
    1e6c:	0c 5f       	subi	r16, 0xFC	; 252
    1e6e:	1f 4f       	sbci	r17, 0xFF	; 255
    1e70:	08 c0       	rjmp	.+16     	; 0x1e82 <vfprintf+0x1de>
    1e72:	60 81       	ld	r22, Z
    1e74:	71 81       	ldd	r23, Z+1	; 0x01
    1e76:	88 27       	eor	r24, r24
    1e78:	77 fd       	sbrc	r23, 7
    1e7a:	80 95       	com	r24
    1e7c:	98 2f       	mov	r25, r24
    1e7e:	0e 5f       	subi	r16, 0xFE	; 254
    1e80:	1f 4f       	sbci	r17, 0xFF	; 255
    1e82:	2f 76       	andi	r18, 0x6F	; 111
    1e84:	b2 2e       	mov	r11, r18
    1e86:	97 ff       	sbrs	r25, 7
    1e88:	09 c0       	rjmp	.+18     	; 0x1e9c <vfprintf+0x1f8>
    1e8a:	90 95       	com	r25
    1e8c:	80 95       	com	r24
    1e8e:	70 95       	com	r23
    1e90:	61 95       	neg	r22
    1e92:	7f 4f       	sbci	r23, 0xFF	; 255
    1e94:	8f 4f       	sbci	r24, 0xFF	; 255
    1e96:	9f 4f       	sbci	r25, 0xFF	; 255
    1e98:	20 68       	ori	r18, 0x80	; 128
    1e9a:	b2 2e       	mov	r11, r18
    1e9c:	2a e0       	ldi	r18, 0x0A	; 10
    1e9e:	30 e0       	ldi	r19, 0x00	; 0
    1ea0:	a4 01       	movw	r20, r8
    1ea2:	0e 94 8f 10 	call	0x211e	; 0x211e <__ultoa_invert>
    1ea6:	a8 2e       	mov	r10, r24
    1ea8:	a8 18       	sub	r10, r8
    1eaa:	44 c0       	rjmp	.+136    	; 0x1f34 <vfprintf+0x290>
    1eac:	85 37       	cpi	r24, 0x75	; 117
    1eae:	29 f4       	brne	.+10     	; 0x1eba <vfprintf+0x216>
    1eb0:	2f 7e       	andi	r18, 0xEF	; 239
    1eb2:	b2 2e       	mov	r11, r18
    1eb4:	2a e0       	ldi	r18, 0x0A	; 10
    1eb6:	30 e0       	ldi	r19, 0x00	; 0
    1eb8:	25 c0       	rjmp	.+74     	; 0x1f04 <vfprintf+0x260>
    1eba:	f2 2f       	mov	r31, r18
    1ebc:	f9 7f       	andi	r31, 0xF9	; 249
    1ebe:	bf 2e       	mov	r11, r31
    1ec0:	8f 36       	cpi	r24, 0x6F	; 111
    1ec2:	c1 f0       	breq	.+48     	; 0x1ef4 <vfprintf+0x250>
    1ec4:	18 f4       	brcc	.+6      	; 0x1ecc <vfprintf+0x228>
    1ec6:	88 35       	cpi	r24, 0x58	; 88
    1ec8:	79 f0       	breq	.+30     	; 0x1ee8 <vfprintf+0x244>
    1eca:	b4 c0       	rjmp	.+360    	; 0x2034 <vfprintf+0x390>
    1ecc:	80 37       	cpi	r24, 0x70	; 112
    1ece:	19 f0       	breq	.+6      	; 0x1ed6 <vfprintf+0x232>
    1ed0:	88 37       	cpi	r24, 0x78	; 120
    1ed2:	21 f0       	breq	.+8      	; 0x1edc <vfprintf+0x238>
    1ed4:	af c0       	rjmp	.+350    	; 0x2034 <vfprintf+0x390>
    1ed6:	2f 2f       	mov	r18, r31
    1ed8:	20 61       	ori	r18, 0x10	; 16
    1eda:	b2 2e       	mov	r11, r18
    1edc:	b4 fe       	sbrs	r11, 4
    1ede:	0d c0       	rjmp	.+26     	; 0x1efa <vfprintf+0x256>
    1ee0:	8b 2d       	mov	r24, r11
    1ee2:	84 60       	ori	r24, 0x04	; 4
    1ee4:	b8 2e       	mov	r11, r24
    1ee6:	09 c0       	rjmp	.+18     	; 0x1efa <vfprintf+0x256>
    1ee8:	24 ff       	sbrs	r18, 4
    1eea:	0a c0       	rjmp	.+20     	; 0x1f00 <vfprintf+0x25c>
    1eec:	9f 2f       	mov	r25, r31
    1eee:	96 60       	ori	r25, 0x06	; 6
    1ef0:	b9 2e       	mov	r11, r25
    1ef2:	06 c0       	rjmp	.+12     	; 0x1f00 <vfprintf+0x25c>
    1ef4:	28 e0       	ldi	r18, 0x08	; 8
    1ef6:	30 e0       	ldi	r19, 0x00	; 0
    1ef8:	05 c0       	rjmp	.+10     	; 0x1f04 <vfprintf+0x260>
    1efa:	20 e1       	ldi	r18, 0x10	; 16
    1efc:	30 e0       	ldi	r19, 0x00	; 0
    1efe:	02 c0       	rjmp	.+4      	; 0x1f04 <vfprintf+0x260>
    1f00:	20 e1       	ldi	r18, 0x10	; 16
    1f02:	32 e0       	ldi	r19, 0x02	; 2
    1f04:	f8 01       	movw	r30, r16
    1f06:	b7 fe       	sbrs	r11, 7
    1f08:	07 c0       	rjmp	.+14     	; 0x1f18 <vfprintf+0x274>
    1f0a:	60 81       	ld	r22, Z
    1f0c:	71 81       	ldd	r23, Z+1	; 0x01
    1f0e:	82 81       	ldd	r24, Z+2	; 0x02
    1f10:	93 81       	ldd	r25, Z+3	; 0x03
    1f12:	0c 5f       	subi	r16, 0xFC	; 252
    1f14:	1f 4f       	sbci	r17, 0xFF	; 255
    1f16:	06 c0       	rjmp	.+12     	; 0x1f24 <vfprintf+0x280>
    1f18:	60 81       	ld	r22, Z
    1f1a:	71 81       	ldd	r23, Z+1	; 0x01
    1f1c:	80 e0       	ldi	r24, 0x00	; 0
    1f1e:	90 e0       	ldi	r25, 0x00	; 0
    1f20:	0e 5f       	subi	r16, 0xFE	; 254
    1f22:	1f 4f       	sbci	r17, 0xFF	; 255
    1f24:	a4 01       	movw	r20, r8
    1f26:	0e 94 8f 10 	call	0x211e	; 0x211e <__ultoa_invert>
    1f2a:	a8 2e       	mov	r10, r24
    1f2c:	a8 18       	sub	r10, r8
    1f2e:	fb 2d       	mov	r31, r11
    1f30:	ff 77       	andi	r31, 0x7F	; 127
    1f32:	bf 2e       	mov	r11, r31
    1f34:	b6 fe       	sbrs	r11, 6
    1f36:	0b c0       	rjmp	.+22     	; 0x1f4e <vfprintf+0x2aa>
    1f38:	2b 2d       	mov	r18, r11
    1f3a:	2e 7f       	andi	r18, 0xFE	; 254
    1f3c:	a5 14       	cp	r10, r5
    1f3e:	50 f4       	brcc	.+20     	; 0x1f54 <vfprintf+0x2b0>
    1f40:	b4 fe       	sbrs	r11, 4
    1f42:	0a c0       	rjmp	.+20     	; 0x1f58 <vfprintf+0x2b4>
    1f44:	b2 fc       	sbrc	r11, 2
    1f46:	08 c0       	rjmp	.+16     	; 0x1f58 <vfprintf+0x2b4>
    1f48:	2b 2d       	mov	r18, r11
    1f4a:	2e 7e       	andi	r18, 0xEE	; 238
    1f4c:	05 c0       	rjmp	.+10     	; 0x1f58 <vfprintf+0x2b4>
    1f4e:	7a 2c       	mov	r7, r10
    1f50:	2b 2d       	mov	r18, r11
    1f52:	03 c0       	rjmp	.+6      	; 0x1f5a <vfprintf+0x2b6>
    1f54:	7a 2c       	mov	r7, r10
    1f56:	01 c0       	rjmp	.+2      	; 0x1f5a <vfprintf+0x2b6>
    1f58:	75 2c       	mov	r7, r5
    1f5a:	24 ff       	sbrs	r18, 4
    1f5c:	0d c0       	rjmp	.+26     	; 0x1f78 <vfprintf+0x2d4>
    1f5e:	fe 01       	movw	r30, r28
    1f60:	ea 0d       	add	r30, r10
    1f62:	f1 1d       	adc	r31, r1
    1f64:	80 81       	ld	r24, Z
    1f66:	80 33       	cpi	r24, 0x30	; 48
    1f68:	11 f4       	brne	.+4      	; 0x1f6e <vfprintf+0x2ca>
    1f6a:	29 7e       	andi	r18, 0xE9	; 233
    1f6c:	09 c0       	rjmp	.+18     	; 0x1f80 <vfprintf+0x2dc>
    1f6e:	22 ff       	sbrs	r18, 2
    1f70:	06 c0       	rjmp	.+12     	; 0x1f7e <vfprintf+0x2da>
    1f72:	73 94       	inc	r7
    1f74:	73 94       	inc	r7
    1f76:	04 c0       	rjmp	.+8      	; 0x1f80 <vfprintf+0x2dc>
    1f78:	82 2f       	mov	r24, r18
    1f7a:	86 78       	andi	r24, 0x86	; 134
    1f7c:	09 f0       	breq	.+2      	; 0x1f80 <vfprintf+0x2dc>
    1f7e:	73 94       	inc	r7
    1f80:	23 fd       	sbrc	r18, 3
    1f82:	13 c0       	rjmp	.+38     	; 0x1faa <vfprintf+0x306>
    1f84:	20 ff       	sbrs	r18, 0
    1f86:	06 c0       	rjmp	.+12     	; 0x1f94 <vfprintf+0x2f0>
    1f88:	5a 2c       	mov	r5, r10
    1f8a:	73 14       	cp	r7, r3
    1f8c:	18 f4       	brcc	.+6      	; 0x1f94 <vfprintf+0x2f0>
    1f8e:	53 0c       	add	r5, r3
    1f90:	57 18       	sub	r5, r7
    1f92:	73 2c       	mov	r7, r3
    1f94:	73 14       	cp	r7, r3
    1f96:	68 f4       	brcc	.+26     	; 0x1fb2 <vfprintf+0x30e>
    1f98:	b7 01       	movw	r22, r14
    1f9a:	80 e2       	ldi	r24, 0x20	; 32
    1f9c:	90 e0       	ldi	r25, 0x00	; 0
    1f9e:	2c 87       	std	Y+12, r18	; 0x0c
    1fa0:	0e 94 5d 10 	call	0x20ba	; 0x20ba <fputc>
    1fa4:	73 94       	inc	r7
    1fa6:	2c 85       	ldd	r18, Y+12	; 0x0c
    1fa8:	f5 cf       	rjmp	.-22     	; 0x1f94 <vfprintf+0x2f0>
    1faa:	73 14       	cp	r7, r3
    1fac:	10 f4       	brcc	.+4      	; 0x1fb2 <vfprintf+0x30e>
    1fae:	37 18       	sub	r3, r7
    1fb0:	01 c0       	rjmp	.+2      	; 0x1fb4 <vfprintf+0x310>
    1fb2:	31 2c       	mov	r3, r1
    1fb4:	24 ff       	sbrs	r18, 4
    1fb6:	12 c0       	rjmp	.+36     	; 0x1fdc <vfprintf+0x338>
    1fb8:	b7 01       	movw	r22, r14
    1fba:	80 e3       	ldi	r24, 0x30	; 48
    1fbc:	90 e0       	ldi	r25, 0x00	; 0
    1fbe:	2c 87       	std	Y+12, r18	; 0x0c
    1fc0:	0e 94 5d 10 	call	0x20ba	; 0x20ba <fputc>
    1fc4:	2c 85       	ldd	r18, Y+12	; 0x0c
    1fc6:	22 ff       	sbrs	r18, 2
    1fc8:	17 c0       	rjmp	.+46     	; 0x1ff8 <vfprintf+0x354>
    1fca:	21 ff       	sbrs	r18, 1
    1fcc:	03 c0       	rjmp	.+6      	; 0x1fd4 <vfprintf+0x330>
    1fce:	88 e5       	ldi	r24, 0x58	; 88
    1fd0:	90 e0       	ldi	r25, 0x00	; 0
    1fd2:	02 c0       	rjmp	.+4      	; 0x1fd8 <vfprintf+0x334>
    1fd4:	88 e7       	ldi	r24, 0x78	; 120
    1fd6:	90 e0       	ldi	r25, 0x00	; 0
    1fd8:	b7 01       	movw	r22, r14
    1fda:	0c c0       	rjmp	.+24     	; 0x1ff4 <vfprintf+0x350>
    1fdc:	82 2f       	mov	r24, r18
    1fde:	86 78       	andi	r24, 0x86	; 134
    1fe0:	59 f0       	breq	.+22     	; 0x1ff8 <vfprintf+0x354>
    1fe2:	21 fd       	sbrc	r18, 1
    1fe4:	02 c0       	rjmp	.+4      	; 0x1fea <vfprintf+0x346>
    1fe6:	80 e2       	ldi	r24, 0x20	; 32
    1fe8:	01 c0       	rjmp	.+2      	; 0x1fec <vfprintf+0x348>
    1fea:	8b e2       	ldi	r24, 0x2B	; 43
    1fec:	27 fd       	sbrc	r18, 7
    1fee:	8d e2       	ldi	r24, 0x2D	; 45
    1ff0:	b7 01       	movw	r22, r14
    1ff2:	90 e0       	ldi	r25, 0x00	; 0
    1ff4:	0e 94 5d 10 	call	0x20ba	; 0x20ba <fputc>
    1ff8:	a5 14       	cp	r10, r5
    1ffa:	38 f4       	brcc	.+14     	; 0x200a <vfprintf+0x366>
    1ffc:	b7 01       	movw	r22, r14
    1ffe:	80 e3       	ldi	r24, 0x30	; 48
    2000:	90 e0       	ldi	r25, 0x00	; 0
    2002:	0e 94 5d 10 	call	0x20ba	; 0x20ba <fputc>
    2006:	5a 94       	dec	r5
    2008:	f7 cf       	rjmp	.-18     	; 0x1ff8 <vfprintf+0x354>
    200a:	aa 94       	dec	r10
    200c:	f4 01       	movw	r30, r8
    200e:	ea 0d       	add	r30, r10
    2010:	f1 1d       	adc	r31, r1
    2012:	80 81       	ld	r24, Z
    2014:	b7 01       	movw	r22, r14
    2016:	90 e0       	ldi	r25, 0x00	; 0
    2018:	0e 94 5d 10 	call	0x20ba	; 0x20ba <fputc>
    201c:	a1 10       	cpse	r10, r1
    201e:	f5 cf       	rjmp	.-22     	; 0x200a <vfprintf+0x366>
    2020:	33 20       	and	r3, r3
    2022:	09 f4       	brne	.+2      	; 0x2026 <vfprintf+0x382>
    2024:	51 ce       	rjmp	.-862    	; 0x1cc8 <vfprintf+0x24>
    2026:	b7 01       	movw	r22, r14
    2028:	80 e2       	ldi	r24, 0x20	; 32
    202a:	90 e0       	ldi	r25, 0x00	; 0
    202c:	0e 94 5d 10 	call	0x20ba	; 0x20ba <fputc>
    2030:	3a 94       	dec	r3
    2032:	f6 cf       	rjmp	.-20     	; 0x2020 <vfprintf+0x37c>
    2034:	f7 01       	movw	r30, r14
    2036:	86 81       	ldd	r24, Z+6	; 0x06
    2038:	97 81       	ldd	r25, Z+7	; 0x07
    203a:	02 c0       	rjmp	.+4      	; 0x2040 <vfprintf+0x39c>
    203c:	8f ef       	ldi	r24, 0xFF	; 255
    203e:	9f ef       	ldi	r25, 0xFF	; 255
    2040:	2c 96       	adiw	r28, 0x0c	; 12
    2042:	e2 e1       	ldi	r30, 0x12	; 18
    2044:	0c 94 3b 11 	jmp	0x2276	; 0x2276 <__epilogue_restores__>

00002048 <calloc>:
    2048:	0f 93       	push	r16
    204a:	1f 93       	push	r17
    204c:	cf 93       	push	r28
    204e:	df 93       	push	r29
    2050:	86 9f       	mul	r24, r22
    2052:	80 01       	movw	r16, r0
    2054:	87 9f       	mul	r24, r23
    2056:	10 0d       	add	r17, r0
    2058:	96 9f       	mul	r25, r22
    205a:	10 0d       	add	r17, r0
    205c:	11 24       	eor	r1, r1
    205e:	c8 01       	movw	r24, r16
    2060:	0e 94 31 0c 	call	0x1862	; 0x1862 <malloc>
    2064:	ec 01       	movw	r28, r24
    2066:	00 97       	sbiw	r24, 0x00	; 0
    2068:	29 f0       	breq	.+10     	; 0x2074 <calloc+0x2c>
    206a:	a8 01       	movw	r20, r16
    206c:	60 e0       	ldi	r22, 0x00	; 0
    206e:	70 e0       	ldi	r23, 0x00	; 0
    2070:	0e 94 4b 10 	call	0x2096	; 0x2096 <memset>
    2074:	ce 01       	movw	r24, r28
    2076:	df 91       	pop	r29
    2078:	cf 91       	pop	r28
    207a:	1f 91       	pop	r17
    207c:	0f 91       	pop	r16
    207e:	08 95       	ret

00002080 <strnlen_P>:
    2080:	fc 01       	movw	r30, r24
    2082:	05 90       	lpm	r0, Z+
    2084:	61 50       	subi	r22, 0x01	; 1
    2086:	70 40       	sbci	r23, 0x00	; 0
    2088:	01 10       	cpse	r0, r1
    208a:	d8 f7       	brcc	.-10     	; 0x2082 <strnlen_P+0x2>
    208c:	80 95       	com	r24
    208e:	90 95       	com	r25
    2090:	8e 0f       	add	r24, r30
    2092:	9f 1f       	adc	r25, r31
    2094:	08 95       	ret

00002096 <memset>:
    2096:	dc 01       	movw	r26, r24
    2098:	01 c0       	rjmp	.+2      	; 0x209c <memset+0x6>
    209a:	6d 93       	st	X+, r22
    209c:	41 50       	subi	r20, 0x01	; 1
    209e:	50 40       	sbci	r21, 0x00	; 0
    20a0:	e0 f7       	brcc	.-8      	; 0x209a <memset+0x4>
    20a2:	08 95       	ret

000020a4 <strnlen>:
    20a4:	fc 01       	movw	r30, r24
    20a6:	61 50       	subi	r22, 0x01	; 1
    20a8:	70 40       	sbci	r23, 0x00	; 0
    20aa:	01 90       	ld	r0, Z+
    20ac:	01 10       	cpse	r0, r1
    20ae:	d8 f7       	brcc	.-10     	; 0x20a6 <strnlen+0x2>
    20b0:	80 95       	com	r24
    20b2:	90 95       	com	r25
    20b4:	8e 0f       	add	r24, r30
    20b6:	9f 1f       	adc	r25, r31
    20b8:	08 95       	ret

000020ba <fputc>:
    20ba:	0f 93       	push	r16
    20bc:	1f 93       	push	r17
    20be:	cf 93       	push	r28
    20c0:	df 93       	push	r29
    20c2:	18 2f       	mov	r17, r24
    20c4:	09 2f       	mov	r16, r25
    20c6:	eb 01       	movw	r28, r22
    20c8:	8b 81       	ldd	r24, Y+3	; 0x03
    20ca:	81 fd       	sbrc	r24, 1
    20cc:	03 c0       	rjmp	.+6      	; 0x20d4 <fputc+0x1a>
    20ce:	8f ef       	ldi	r24, 0xFF	; 255
    20d0:	9f ef       	ldi	r25, 0xFF	; 255
    20d2:	20 c0       	rjmp	.+64     	; 0x2114 <fputc+0x5a>
    20d4:	82 ff       	sbrs	r24, 2
    20d6:	10 c0       	rjmp	.+32     	; 0x20f8 <fputc+0x3e>
    20d8:	4e 81       	ldd	r20, Y+6	; 0x06
    20da:	5f 81       	ldd	r21, Y+7	; 0x07
    20dc:	2c 81       	ldd	r18, Y+4	; 0x04
    20de:	3d 81       	ldd	r19, Y+5	; 0x05
    20e0:	42 17       	cp	r20, r18
    20e2:	53 07       	cpc	r21, r19
    20e4:	7c f4       	brge	.+30     	; 0x2104 <fputc+0x4a>
    20e6:	e8 81       	ld	r30, Y
    20e8:	f9 81       	ldd	r31, Y+1	; 0x01
    20ea:	9f 01       	movw	r18, r30
    20ec:	2f 5f       	subi	r18, 0xFF	; 255
    20ee:	3f 4f       	sbci	r19, 0xFF	; 255
    20f0:	39 83       	std	Y+1, r19	; 0x01
    20f2:	28 83       	st	Y, r18
    20f4:	10 83       	st	Z, r17
    20f6:	06 c0       	rjmp	.+12     	; 0x2104 <fputc+0x4a>
    20f8:	e8 85       	ldd	r30, Y+8	; 0x08
    20fa:	f9 85       	ldd	r31, Y+9	; 0x09
    20fc:	81 2f       	mov	r24, r17
    20fe:	09 95       	icall
    2100:	89 2b       	or	r24, r25
    2102:	29 f7       	brne	.-54     	; 0x20ce <fputc+0x14>
    2104:	2e 81       	ldd	r18, Y+6	; 0x06
    2106:	3f 81       	ldd	r19, Y+7	; 0x07
    2108:	2f 5f       	subi	r18, 0xFF	; 255
    210a:	3f 4f       	sbci	r19, 0xFF	; 255
    210c:	3f 83       	std	Y+7, r19	; 0x07
    210e:	2e 83       	std	Y+6, r18	; 0x06
    2110:	81 2f       	mov	r24, r17
    2112:	90 2f       	mov	r25, r16
    2114:	df 91       	pop	r29
    2116:	cf 91       	pop	r28
    2118:	1f 91       	pop	r17
    211a:	0f 91       	pop	r16
    211c:	08 95       	ret

0000211e <__ultoa_invert>:
    211e:	fa 01       	movw	r30, r20
    2120:	aa 27       	eor	r26, r26
    2122:	28 30       	cpi	r18, 0x08	; 8
    2124:	51 f1       	breq	.+84     	; 0x217a <__ultoa_invert+0x5c>
    2126:	20 31       	cpi	r18, 0x10	; 16
    2128:	81 f1       	breq	.+96     	; 0x218a <__ultoa_invert+0x6c>
    212a:	e8 94       	clt
    212c:	6f 93       	push	r22
    212e:	6e 7f       	andi	r22, 0xFE	; 254
    2130:	6e 5f       	subi	r22, 0xFE	; 254
    2132:	7f 4f       	sbci	r23, 0xFF	; 255
    2134:	8f 4f       	sbci	r24, 0xFF	; 255
    2136:	9f 4f       	sbci	r25, 0xFF	; 255
    2138:	af 4f       	sbci	r26, 0xFF	; 255
    213a:	b1 e0       	ldi	r27, 0x01	; 1
    213c:	3e d0       	rcall	.+124    	; 0x21ba <__ultoa_invert+0x9c>
    213e:	b4 e0       	ldi	r27, 0x04	; 4
    2140:	3c d0       	rcall	.+120    	; 0x21ba <__ultoa_invert+0x9c>
    2142:	67 0f       	add	r22, r23
    2144:	78 1f       	adc	r23, r24
    2146:	89 1f       	adc	r24, r25
    2148:	9a 1f       	adc	r25, r26
    214a:	a1 1d       	adc	r26, r1
    214c:	68 0f       	add	r22, r24
    214e:	79 1f       	adc	r23, r25
    2150:	8a 1f       	adc	r24, r26
    2152:	91 1d       	adc	r25, r1
    2154:	a1 1d       	adc	r26, r1
    2156:	6a 0f       	add	r22, r26
    2158:	71 1d       	adc	r23, r1
    215a:	81 1d       	adc	r24, r1
    215c:	91 1d       	adc	r25, r1
    215e:	a1 1d       	adc	r26, r1
    2160:	20 d0       	rcall	.+64     	; 0x21a2 <__ultoa_invert+0x84>
    2162:	09 f4       	brne	.+2      	; 0x2166 <__ultoa_invert+0x48>
    2164:	68 94       	set
    2166:	3f 91       	pop	r19
    2168:	2a e0       	ldi	r18, 0x0A	; 10
    216a:	26 9f       	mul	r18, r22
    216c:	11 24       	eor	r1, r1
    216e:	30 19       	sub	r19, r0
    2170:	30 5d       	subi	r19, 0xD0	; 208
    2172:	31 93       	st	Z+, r19
    2174:	de f6       	brtc	.-74     	; 0x212c <__ultoa_invert+0xe>
    2176:	cf 01       	movw	r24, r30
    2178:	08 95       	ret
    217a:	46 2f       	mov	r20, r22
    217c:	47 70       	andi	r20, 0x07	; 7
    217e:	40 5d       	subi	r20, 0xD0	; 208
    2180:	41 93       	st	Z+, r20
    2182:	b3 e0       	ldi	r27, 0x03	; 3
    2184:	0f d0       	rcall	.+30     	; 0x21a4 <__ultoa_invert+0x86>
    2186:	c9 f7       	brne	.-14     	; 0x217a <__ultoa_invert+0x5c>
    2188:	f6 cf       	rjmp	.-20     	; 0x2176 <__ultoa_invert+0x58>
    218a:	46 2f       	mov	r20, r22
    218c:	4f 70       	andi	r20, 0x0F	; 15
    218e:	40 5d       	subi	r20, 0xD0	; 208
    2190:	4a 33       	cpi	r20, 0x3A	; 58
    2192:	18 f0       	brcs	.+6      	; 0x219a <__ultoa_invert+0x7c>
    2194:	49 5d       	subi	r20, 0xD9	; 217
    2196:	31 fd       	sbrc	r19, 1
    2198:	40 52       	subi	r20, 0x20	; 32
    219a:	41 93       	st	Z+, r20
    219c:	02 d0       	rcall	.+4      	; 0x21a2 <__ultoa_invert+0x84>
    219e:	a9 f7       	brne	.-22     	; 0x218a <__ultoa_invert+0x6c>
    21a0:	ea cf       	rjmp	.-44     	; 0x2176 <__ultoa_invert+0x58>
    21a2:	b4 e0       	ldi	r27, 0x04	; 4
    21a4:	a6 95       	lsr	r26
    21a6:	97 95       	ror	r25
    21a8:	87 95       	ror	r24
    21aa:	77 95       	ror	r23
    21ac:	67 95       	ror	r22
    21ae:	ba 95       	dec	r27
    21b0:	c9 f7       	brne	.-14     	; 0x21a4 <__ultoa_invert+0x86>
    21b2:	00 97       	sbiw	r24, 0x00	; 0
    21b4:	61 05       	cpc	r22, r1
    21b6:	71 05       	cpc	r23, r1
    21b8:	08 95       	ret
    21ba:	9b 01       	movw	r18, r22
    21bc:	ac 01       	movw	r20, r24
    21be:	0a 2e       	mov	r0, r26
    21c0:	06 94       	lsr	r0
    21c2:	57 95       	ror	r21
    21c4:	47 95       	ror	r20
    21c6:	37 95       	ror	r19
    21c8:	27 95       	ror	r18
    21ca:	ba 95       	dec	r27
    21cc:	c9 f7       	brne	.-14     	; 0x21c0 <__ultoa_invert+0xa2>
    21ce:	62 0f       	add	r22, r18
    21d0:	73 1f       	adc	r23, r19
    21d2:	84 1f       	adc	r24, r20
    21d4:	95 1f       	adc	r25, r21
    21d6:	a0 1d       	adc	r26, r0
    21d8:	08 95       	ret

000021da <__divmodsi4>:
    21da:	05 2e       	mov	r0, r21
    21dc:	97 fb       	bst	r25, 7
    21de:	1e f4       	brtc	.+6      	; 0x21e6 <__divmodsi4+0xc>
    21e0:	00 94       	com	r0
    21e2:	0e 94 04 11 	call	0x2208	; 0x2208 <__negsi2>
    21e6:	57 fd       	sbrc	r21, 7
    21e8:	07 d0       	rcall	.+14     	; 0x21f8 <__divmodsi4_neg2>
    21ea:	0e 94 56 11 	call	0x22ac	; 0x22ac <__udivmodsi4>
    21ee:	07 fc       	sbrc	r0, 7
    21f0:	03 d0       	rcall	.+6      	; 0x21f8 <__divmodsi4_neg2>
    21f2:	4e f4       	brtc	.+18     	; 0x2206 <__divmodsi4_exit>
    21f4:	0c 94 04 11 	jmp	0x2208	; 0x2208 <__negsi2>

000021f8 <__divmodsi4_neg2>:
    21f8:	50 95       	com	r21
    21fa:	40 95       	com	r20
    21fc:	30 95       	com	r19
    21fe:	21 95       	neg	r18
    2200:	3f 4f       	sbci	r19, 0xFF	; 255
    2202:	4f 4f       	sbci	r20, 0xFF	; 255
    2204:	5f 4f       	sbci	r21, 0xFF	; 255

00002206 <__divmodsi4_exit>:
    2206:	08 95       	ret

00002208 <__negsi2>:
    2208:	90 95       	com	r25
    220a:	80 95       	com	r24
    220c:	70 95       	com	r23
    220e:	61 95       	neg	r22
    2210:	7f 4f       	sbci	r23, 0xFF	; 255
    2212:	8f 4f       	sbci	r24, 0xFF	; 255
    2214:	9f 4f       	sbci	r25, 0xFF	; 255
    2216:	08 95       	ret

00002218 <__muluhisi3>:
    2218:	0e 94 78 11 	call	0x22f0	; 0x22f0 <__umulhisi3>
    221c:	a5 9f       	mul	r26, r21
    221e:	90 0d       	add	r25, r0
    2220:	b4 9f       	mul	r27, r20
    2222:	90 0d       	add	r25, r0
    2224:	a4 9f       	mul	r26, r20
    2226:	80 0d       	add	r24, r0
    2228:	91 1d       	adc	r25, r1
    222a:	11 24       	eor	r1, r1
    222c:	08 95       	ret

0000222e <__mulshisi3>:
    222e:	b7 ff       	sbrs	r27, 7
    2230:	0c 94 0c 11 	jmp	0x2218	; 0x2218 <__muluhisi3>

00002234 <__mulohisi3>:
    2234:	0e 94 0c 11 	call	0x2218	; 0x2218 <__muluhisi3>
    2238:	82 1b       	sub	r24, r18
    223a:	93 0b       	sbc	r25, r19
    223c:	08 95       	ret

0000223e <__prologue_saves__>:
    223e:	2f 92       	push	r2
    2240:	3f 92       	push	r3
    2242:	4f 92       	push	r4
    2244:	5f 92       	push	r5
    2246:	6f 92       	push	r6
    2248:	7f 92       	push	r7
    224a:	8f 92       	push	r8
    224c:	9f 92       	push	r9
    224e:	af 92       	push	r10
    2250:	bf 92       	push	r11
    2252:	cf 92       	push	r12
    2254:	df 92       	push	r13
    2256:	ef 92       	push	r14
    2258:	ff 92       	push	r15
    225a:	0f 93       	push	r16
    225c:	1f 93       	push	r17
    225e:	cf 93       	push	r28
    2260:	df 93       	push	r29
    2262:	cd b7       	in	r28, 0x3d	; 61
    2264:	de b7       	in	r29, 0x3e	; 62
    2266:	ca 1b       	sub	r28, r26
    2268:	db 0b       	sbc	r29, r27
    226a:	0f b6       	in	r0, 0x3f	; 63
    226c:	f8 94       	cli
    226e:	de bf       	out	0x3e, r29	; 62
    2270:	0f be       	out	0x3f, r0	; 63
    2272:	cd bf       	out	0x3d, r28	; 61
    2274:	09 94       	ijmp

00002276 <__epilogue_restores__>:
    2276:	2a 88       	ldd	r2, Y+18	; 0x12
    2278:	39 88       	ldd	r3, Y+17	; 0x11
    227a:	48 88       	ldd	r4, Y+16	; 0x10
    227c:	5f 84       	ldd	r5, Y+15	; 0x0f
    227e:	6e 84       	ldd	r6, Y+14	; 0x0e
    2280:	7d 84       	ldd	r7, Y+13	; 0x0d
    2282:	8c 84       	ldd	r8, Y+12	; 0x0c
    2284:	9b 84       	ldd	r9, Y+11	; 0x0b
    2286:	aa 84       	ldd	r10, Y+10	; 0x0a
    2288:	b9 84       	ldd	r11, Y+9	; 0x09
    228a:	c8 84       	ldd	r12, Y+8	; 0x08
    228c:	df 80       	ldd	r13, Y+7	; 0x07
    228e:	ee 80       	ldd	r14, Y+6	; 0x06
    2290:	fd 80       	ldd	r15, Y+5	; 0x05
    2292:	0c 81       	ldd	r16, Y+4	; 0x04
    2294:	1b 81       	ldd	r17, Y+3	; 0x03
    2296:	aa 81       	ldd	r26, Y+2	; 0x02
    2298:	b9 81       	ldd	r27, Y+1	; 0x01
    229a:	ce 0f       	add	r28, r30
    229c:	d1 1d       	adc	r29, r1
    229e:	0f b6       	in	r0, 0x3f	; 63
    22a0:	f8 94       	cli
    22a2:	de bf       	out	0x3e, r29	; 62
    22a4:	0f be       	out	0x3f, r0	; 63
    22a6:	cd bf       	out	0x3d, r28	; 61
    22a8:	ed 01       	movw	r28, r26
    22aa:	08 95       	ret

000022ac <__udivmodsi4>:
    22ac:	a1 e2       	ldi	r26, 0x21	; 33
    22ae:	1a 2e       	mov	r1, r26
    22b0:	aa 1b       	sub	r26, r26
    22b2:	bb 1b       	sub	r27, r27
    22b4:	fd 01       	movw	r30, r26
    22b6:	0d c0       	rjmp	.+26     	; 0x22d2 <__udivmodsi4_ep>

000022b8 <__udivmodsi4_loop>:
    22b8:	aa 1f       	adc	r26, r26
    22ba:	bb 1f       	adc	r27, r27
    22bc:	ee 1f       	adc	r30, r30
    22be:	ff 1f       	adc	r31, r31
    22c0:	a2 17       	cp	r26, r18
    22c2:	b3 07       	cpc	r27, r19
    22c4:	e4 07       	cpc	r30, r20
    22c6:	f5 07       	cpc	r31, r21
    22c8:	20 f0       	brcs	.+8      	; 0x22d2 <__udivmodsi4_ep>
    22ca:	a2 1b       	sub	r26, r18
    22cc:	b3 0b       	sbc	r27, r19
    22ce:	e4 0b       	sbc	r30, r20
    22d0:	f5 0b       	sbc	r31, r21

000022d2 <__udivmodsi4_ep>:
    22d2:	66 1f       	adc	r22, r22
    22d4:	77 1f       	adc	r23, r23
    22d6:	88 1f       	adc	r24, r24
    22d8:	99 1f       	adc	r25, r25
    22da:	1a 94       	dec	r1
    22dc:	69 f7       	brne	.-38     	; 0x22b8 <__udivmodsi4_loop>
    22de:	60 95       	com	r22
    22e0:	70 95       	com	r23
    22e2:	80 95       	com	r24
    22e4:	90 95       	com	r25
    22e6:	9b 01       	movw	r18, r22
    22e8:	ac 01       	movw	r20, r24
    22ea:	bd 01       	movw	r22, r26
    22ec:	cf 01       	movw	r24, r30
    22ee:	08 95       	ret

000022f0 <__umulhisi3>:
    22f0:	a2 9f       	mul	r26, r18
    22f2:	b0 01       	movw	r22, r0
    22f4:	b3 9f       	mul	r27, r19
    22f6:	c0 01       	movw	r24, r0
    22f8:	a3 9f       	mul	r26, r19
    22fa:	70 0d       	add	r23, r0
    22fc:	81 1d       	adc	r24, r1
    22fe:	11 24       	eor	r1, r1
    2300:	91 1d       	adc	r25, r1
    2302:	b2 9f       	mul	r27, r18
    2304:	70 0d       	add	r23, r0
    2306:	81 1d       	adc	r24, r1
    2308:	11 24       	eor	r1, r1
    230a:	91 1d       	adc	r25, r1
    230c:	08 95       	ret

0000230e <_exit>:
    230e:	f8 94       	cli

00002310 <__stop_program>:
    2310:	ff cf       	rjmp	.-2      	; 0x2310 <__stop_program>
