
Byggern_node2.elf:     file format elf32-avr

Sections:
Idx Name          Size      VMA       LMA       File off  Algn
  0 .data         000001f2  00800200  000010bc  00001150  2**0
                  CONTENTS, ALLOC, LOAD, DATA
  1 .text         000010bc  00000000  00000000  00000094  2**1
                  CONTENTS, ALLOC, LOAD, READONLY, CODE
  2 .bss          00000039  008003f2  008003f2  00001342  2**0
                  ALLOC
  3 .comment      0000005c  00000000  00000000  00001342  2**0
                  CONTENTS, READONLY
  4 .debug_aranges 000001c8  00000000  00000000  0000139e  2**0
                  CONTENTS, READONLY, DEBUGGING
  5 .debug_info   0000175e  00000000  00000000  00001566  2**0
                  CONTENTS, READONLY, DEBUGGING
  6 .debug_abbrev 0000097f  00000000  00000000  00002cc4  2**0
                  CONTENTS, READONLY, DEBUGGING
  7 .debug_line   00000d71  00000000  00000000  00003643  2**0
                  CONTENTS, READONLY, DEBUGGING
  8 .debug_frame  000003d4  00000000  00000000  000043b4  2**2
                  CONTENTS, READONLY, DEBUGGING
  9 .debug_str    0000061a  00000000  00000000  00004788  2**0
                  CONTENTS, READONLY, DEBUGGING
 10 .debug_loc    00000896  00000000  00000000  00004da2  2**0
                  CONTENTS, READONLY, DEBUGGING
 11 .debug_ranges 00000158  00000000  00000000  00005638  2**0
                  CONTENTS, READONLY, DEBUGGING

Disassembly of section .text:

00000000 <__vectors>:
       0:	71 c0       	rjmp	.+226    	; 0xe4 <__ctors_end>
       2:	00 00       	nop
       4:	8e c0       	rjmp	.+284    	; 0x122 <__bad_interrupt>
       6:	00 00       	nop
       8:	8c c0       	rjmp	.+280    	; 0x122 <__bad_interrupt>
       a:	00 00       	nop
       c:	8a c0       	rjmp	.+276    	; 0x122 <__bad_interrupt>
       e:	00 00       	nop
      10:	88 c0       	rjmp	.+272    	; 0x122 <__bad_interrupt>
      12:	00 00       	nop
      14:	8d c1       	rjmp	.+794    	; 0x330 <__vector_5>
      16:	00 00       	nop
      18:	84 c0       	rjmp	.+264    	; 0x122 <__bad_interrupt>
      1a:	00 00       	nop
      1c:	82 c0       	rjmp	.+260    	; 0x122 <__bad_interrupt>
      1e:	00 00       	nop
      20:	80 c0       	rjmp	.+256    	; 0x122 <__bad_interrupt>
      22:	00 00       	nop
      24:	7e c0       	rjmp	.+252    	; 0x122 <__bad_interrupt>
      26:	00 00       	nop
      28:	7c c0       	rjmp	.+248    	; 0x122 <__bad_interrupt>
      2a:	00 00       	nop
      2c:	7a c0       	rjmp	.+244    	; 0x122 <__bad_interrupt>
      2e:	00 00       	nop
      30:	78 c0       	rjmp	.+240    	; 0x122 <__bad_interrupt>
      32:	00 00       	nop
      34:	76 c0       	rjmp	.+236    	; 0x122 <__bad_interrupt>
      36:	00 00       	nop
      38:	74 c0       	rjmp	.+232    	; 0x122 <__bad_interrupt>
      3a:	00 00       	nop
      3c:	72 c0       	rjmp	.+228    	; 0x122 <__bad_interrupt>
      3e:	00 00       	nop
      40:	70 c0       	rjmp	.+224    	; 0x122 <__bad_interrupt>
      42:	00 00       	nop
      44:	6e c0       	rjmp	.+220    	; 0x122 <__bad_interrupt>
      46:	00 00       	nop
      48:	6c c0       	rjmp	.+216    	; 0x122 <__bad_interrupt>
      4a:	00 00       	nop
      4c:	6a c0       	rjmp	.+212    	; 0x122 <__bad_interrupt>
      4e:	00 00       	nop
      50:	68 c0       	rjmp	.+208    	; 0x122 <__bad_interrupt>
      52:	00 00       	nop
      54:	66 c0       	rjmp	.+204    	; 0x122 <__bad_interrupt>
      56:	00 00       	nop
      58:	64 c0       	rjmp	.+200    	; 0x122 <__bad_interrupt>
      5a:	00 00       	nop
      5c:	62 c0       	rjmp	.+196    	; 0x122 <__bad_interrupt>
      5e:	00 00       	nop
      60:	60 c0       	rjmp	.+192    	; 0x122 <__bad_interrupt>
      62:	00 00       	nop
      64:	5e c0       	rjmp	.+188    	; 0x122 <__bad_interrupt>
      66:	00 00       	nop
      68:	5c c0       	rjmp	.+184    	; 0x122 <__bad_interrupt>
      6a:	00 00       	nop
      6c:	5a c0       	rjmp	.+180    	; 0x122 <__bad_interrupt>
      6e:	00 00       	nop
      70:	58 c0       	rjmp	.+176    	; 0x122 <__bad_interrupt>
      72:	00 00       	nop
      74:	56 c0       	rjmp	.+172    	; 0x122 <__bad_interrupt>
      76:	00 00       	nop
      78:	54 c0       	rjmp	.+168    	; 0x122 <__bad_interrupt>
      7a:	00 00       	nop
      7c:	52 c0       	rjmp	.+164    	; 0x122 <__bad_interrupt>
      7e:	00 00       	nop
      80:	50 c0       	rjmp	.+160    	; 0x122 <__bad_interrupt>
      82:	00 00       	nop
      84:	4e c0       	rjmp	.+156    	; 0x122 <__bad_interrupt>
      86:	00 00       	nop
      88:	4c c0       	rjmp	.+152    	; 0x122 <__bad_interrupt>
      8a:	00 00       	nop
      8c:	4a c0       	rjmp	.+148    	; 0x122 <__bad_interrupt>
      8e:	00 00       	nop
      90:	48 c0       	rjmp	.+144    	; 0x122 <__bad_interrupt>
      92:	00 00       	nop
      94:	46 c0       	rjmp	.+140    	; 0x122 <__bad_interrupt>
      96:	00 00       	nop
      98:	44 c0       	rjmp	.+136    	; 0x122 <__bad_interrupt>
      9a:	00 00       	nop
      9c:	42 c0       	rjmp	.+132    	; 0x122 <__bad_interrupt>
      9e:	00 00       	nop
      a0:	40 c0       	rjmp	.+128    	; 0x122 <__bad_interrupt>
      a2:	00 00       	nop
      a4:	3e c0       	rjmp	.+124    	; 0x122 <__bad_interrupt>
      a6:	00 00       	nop
      a8:	3c c0       	rjmp	.+120    	; 0x122 <__bad_interrupt>
      aa:	00 00       	nop
      ac:	3a c0       	rjmp	.+116    	; 0x122 <__bad_interrupt>
      ae:	00 00       	nop
      b0:	38 c0       	rjmp	.+112    	; 0x122 <__bad_interrupt>
      b2:	00 00       	nop
      b4:	36 c0       	rjmp	.+108    	; 0x122 <__bad_interrupt>
      b6:	00 00       	nop
      b8:	34 c0       	rjmp	.+104    	; 0x122 <__bad_interrupt>
      ba:	00 00       	nop
      bc:	32 c0       	rjmp	.+100    	; 0x122 <__bad_interrupt>
      be:	00 00       	nop
      c0:	30 c0       	rjmp	.+96     	; 0x122 <__bad_interrupt>
      c2:	00 00       	nop
      c4:	2e c0       	rjmp	.+92     	; 0x122 <__bad_interrupt>
      c6:	00 00       	nop
      c8:	2c c0       	rjmp	.+88     	; 0x122 <__bad_interrupt>
      ca:	00 00       	nop
      cc:	2a c0       	rjmp	.+84     	; 0x122 <__bad_interrupt>
      ce:	00 00       	nop
      d0:	28 c0       	rjmp	.+80     	; 0x122 <__bad_interrupt>
      d2:	00 00       	nop
      d4:	26 c0       	rjmp	.+76     	; 0x122 <__bad_interrupt>
      d6:	00 00       	nop
      d8:	24 c0       	rjmp	.+72     	; 0x122 <__bad_interrupt>
      da:	00 00       	nop
      dc:	22 c0       	rjmp	.+68     	; 0x122 <__bad_interrupt>
      de:	00 00       	nop
      e0:	20 c0       	rjmp	.+64     	; 0x122 <__bad_interrupt>
	...

000000e4 <__ctors_end>:
      e4:	11 24       	eor	r1, r1
      e6:	1f be       	out	0x3f, r1	; 63
      e8:	cf ef       	ldi	r28, 0xFF	; 255
      ea:	d1 e2       	ldi	r29, 0x21	; 33
      ec:	de bf       	out	0x3e, r29	; 62
      ee:	cd bf       	out	0x3d, r28	; 61
      f0:	00 e0       	ldi	r16, 0x00	; 0
      f2:	0c bf       	out	0x3c, r16	; 60

000000f4 <__do_copy_data>:
      f4:	13 e0       	ldi	r17, 0x03	; 3
      f6:	a0 e0       	ldi	r26, 0x00	; 0
      f8:	b2 e0       	ldi	r27, 0x02	; 2
      fa:	ec eb       	ldi	r30, 0xBC	; 188
      fc:	f0 e1       	ldi	r31, 0x10	; 16
      fe:	00 e0       	ldi	r16, 0x00	; 0
     100:	0b bf       	out	0x3b, r16	; 59
     102:	02 c0       	rjmp	.+4      	; 0x108 <__do_copy_data+0x14>
     104:	07 90       	elpm	r0, Z+
     106:	0d 92       	st	X+, r0
     108:	a2 3f       	cpi	r26, 0xF2	; 242
     10a:	b1 07       	cpc	r27, r17
     10c:	d9 f7       	brne	.-10     	; 0x104 <__do_copy_data+0x10>

0000010e <__do_clear_bss>:
     10e:	24 e0       	ldi	r18, 0x04	; 4
     110:	a2 ef       	ldi	r26, 0xF2	; 242
     112:	b3 e0       	ldi	r27, 0x03	; 3
     114:	01 c0       	rjmp	.+2      	; 0x118 <.do_clear_bss_start>

00000116 <.do_clear_bss_loop>:
     116:	1d 92       	st	X+, r1

00000118 <.do_clear_bss_start>:
     118:	ab 32       	cpi	r26, 0x2B	; 43
     11a:	b2 07       	cpc	r27, r18
     11c:	e1 f7       	brne	.-8      	; 0x116 <.do_clear_bss_loop>
     11e:	64 d1       	rcall	.+712    	; 0x3e8 <main>
     120:	cb c7       	rjmp	.+3990   	; 0x10b8 <_exit>

00000122 <__bad_interrupt>:
     122:	6e cf       	rjmp	.-292    	; 0x0 <__vectors>

00000124 <setup_ADC>:
void start_ADC() {
	ADCSRA |= (1<<ADEN) | (1<<ADATE);
	ADCSRA |= (1<<ADSC);
}
void stop_ADC() {
	ADCSRA &= ~(1<<ADEN);
     124:	e4 e6       	ldi	r30, 0x64	; 100
     126:	f0 e0       	ldi	r31, 0x00	; 0
     128:	80 81       	ld	r24, Z
     12a:	8e 7f       	andi	r24, 0xFE	; 254
     12c:	80 83       	st	Z, r24
     12e:	ec e7       	ldi	r30, 0x7C	; 124
     130:	f0 e0       	ldi	r31, 0x00	; 0
     132:	80 81       	ld	r24, Z
     134:	80 66       	ori	r24, 0x60	; 96
     136:	80 83       	st	Z, r24
     138:	80 81       	ld	r24, Z
     13a:	80 76       	andi	r24, 0x60	; 96
     13c:	80 83       	st	Z, r24
     13e:	ea e7       	ldi	r30, 0x7A	; 122
     140:	f0 e0       	ldi	r31, 0x00	; 0
     142:	80 81       	ld	r24, Z
     144:	80 6a       	ori	r24, 0xA0	; 160
     146:	80 83       	st	Z, r24
     148:	eb e7       	ldi	r30, 0x7B	; 123
     14a:	f0 e0       	ldi	r31, 0x00	; 0
     14c:	80 81       	ld	r24, Z
     14e:	88 7f       	andi	r24, 0xF8	; 248
     150:	80 83       	st	Z, r24
     152:	08 95       	ret

00000154 <start_ADC>:
     154:	ea e7       	ldi	r30, 0x7A	; 122
     156:	f0 e0       	ldi	r31, 0x00	; 0
     158:	80 81       	ld	r24, Z
     15a:	80 6a       	ori	r24, 0xA0	; 160
     15c:	80 83       	st	Z, r24
     15e:	80 81       	ld	r24, Z
     160:	80 64       	ori	r24, 0x40	; 64
     162:	80 83       	st	Z, r24
     164:	08 95       	ret

00000166 <get_ADC_value>:
}

uint8_t get_ADC_value()
{
	return ADCH;
     166:	80 91 79 00 	lds	r24, 0x0079
     16a:	08 95       	ret

0000016c <can_init>:


// Enable loopback mode, for testing without node 2
uint8_t CAN_enable_loopback() {
	return mcp_2515_enable_loopback();
}
     16c:	59 d2       	rcall	.+1202   	; 0x620 <mcp_2515_init>
     16e:	40 e6       	ldi	r20, 0x60	; 96
     170:	64 e6       	ldi	r22, 0x64	; 100
     172:	80 e6       	ldi	r24, 0x60	; 96
     174:	23 d2       	rcall	.+1094   	; 0x5bc <mcp_2515_bit_modify>
     176:	41 e0       	ldi	r20, 0x01	; 1
     178:	6f ef       	ldi	r22, 0xFF	; 255
     17a:	8b e2       	ldi	r24, 0x2B	; 43
     17c:	1f d2       	rcall	.+1086   	; 0x5bc <mcp_2515_bit_modify>
     17e:	ec 9a       	sbi	0x1d, 4	; 29
     180:	ea e6       	ldi	r30, 0x6A	; 106
     182:	f0 e0       	ldi	r31, 0x00	; 0
     184:	80 81       	ld	r24, Z
     186:	82 60       	ori	r24, 0x02	; 2
     188:	80 83       	st	Z, r24
     18a:	80 81       	ld	r24, Z
     18c:	8e 7f       	andi	r24, 0xFE	; 254
     18e:	80 83       	st	Z, r24
     190:	78 94       	sei
     192:	80 e0       	ldi	r24, 0x00	; 0
     194:	08 95       	ret

00000196 <CAN_enable_normal_mode>:

// Enable normal operation for transmission between node 1 and node 2
uint8_t CAN_enable_normal_mode() {
	return mcp_2515_enable_normal_operation();
     196:	26 c2       	rjmp	.+1100   	; 0x5e4 <mcp_2515_enable_normal_operation>
}
     198:	08 95       	ret

0000019a <can_receive_message>:

/*************************************/
/* RECEIVE AND CONSTRUCT CAN MESSAGE */
/*************************************/

can_message* can_receive_message() {
     19a:	ef 92       	push	r14
     19c:	ff 92       	push	r15
     19e:	0f 93       	push	r16
     1a0:	1f 93       	push	r17
     1a2:	cf 93       	push	r28
     1a4:	df 93       	push	r29
     1a6:	cd b7       	in	r28, 0x3d	; 61
     1a8:	de b7       	in	r29, 0x3e	; 62
     1aa:	2b 97       	sbiw	r28, 0x0b	; 11
     1ac:	0f b6       	in	r0, 0x3f	; 63
     1ae:	f8 94       	cli
     1b0:	de bf       	out	0x3e, r29	; 62
     1b2:	0f be       	out	0x3f, r0	; 63
     1b4:	cd bf       	out	0x3d, r28	; 61
	can_message the_message;
	unsigned int id;
	// Check if received flag was set
	if(message_received > 0) {
     1b6:	80 91 f2 03 	lds	r24, 0x03F2
     1ba:	88 23       	and	r24, r24
     1bc:	a9 f1       	breq	.+106    	; 0x228 <can_receive_message+0x8e>
		id = mcp_2515_read(MCP_RXB0SIDH) << 8 | mcp_2515_read(MCP_RXB0SIDL);
     1be:	81 e6       	ldi	r24, 0x61	; 97
     1c0:	d9 d1       	rcall	.+946    	; 0x574 <mcp_2515_read>
     1c2:	18 2f       	mov	r17, r24
     1c4:	82 e6       	ldi	r24, 0x62	; 98
     1c6:	d6 d1       	rcall	.+940    	; 0x574 <mcp_2515_read>
     1c8:	21 2f       	mov	r18, r17
     1ca:	30 e0       	ldi	r19, 0x00	; 0
     1cc:	32 2f       	mov	r19, r18
     1ce:	22 27       	eor	r18, r18
     1d0:	28 2b       	or	r18, r24
		// Mask out lowest 5 bits (only used for extended frames)
		the_message.ID = (id >> 5);
     1d2:	36 95       	lsr	r19
     1d4:	27 95       	ror	r18
     1d6:	32 95       	swap	r19
     1d8:	22 95       	swap	r18
     1da:	2f 70       	andi	r18, 0x0F	; 15
     1dc:	23 27       	eor	r18, r19
     1de:	3f 70       	andi	r19, 0x0F	; 15
     1e0:	23 27       	eor	r18, r19
     1e2:	3a 83       	std	Y+2, r19	; 0x02
     1e4:	29 83       	std	Y+1, r18	; 0x01
		the_message.length = mcp_2515_read(MCP_RXB0DLC);
     1e6:	85 e6       	ldi	r24, 0x65	; 101
     1e8:	c5 d1       	rcall	.+906    	; 0x574 <mcp_2515_read>
     1ea:	8b 83       	std	Y+3, r24	; 0x03
		for(int i = 0; i < the_message.length; i++) {
     1ec:	88 23       	and	r24, r24
     1ee:	99 f0       	breq	.+38     	; 0x216 <can_receive_message+0x7c>
     1f0:	7e 01       	movw	r14, r28
     1f2:	84 e0       	ldi	r24, 0x04	; 4
     1f4:	e8 0e       	add	r14, r24
     1f6:	f1 1c       	adc	r15, r1
     1f8:	00 e0       	ldi	r16, 0x00	; 0
     1fa:	10 e0       	ldi	r17, 0x00	; 0
			the_message.data[i] = mcp_2515_read(MCP_RXB0D+i);
     1fc:	86 e6       	ldi	r24, 0x66	; 102
     1fe:	80 0f       	add	r24, r16
     200:	b9 d1       	rcall	.+882    	; 0x574 <mcp_2515_read>
     202:	f7 01       	movw	r30, r14
     204:	81 93       	st	Z+, r24
     206:	7f 01       	movw	r14, r30
	if(message_received > 0) {
		id = mcp_2515_read(MCP_RXB0SIDH) << 8 | mcp_2515_read(MCP_RXB0SIDL);
		// Mask out lowest 5 bits (only used for extended frames)
		the_message.ID = (id >> 5);
		the_message.length = mcp_2515_read(MCP_RXB0DLC);
		for(int i = 0; i < the_message.length; i++) {
     208:	0f 5f       	subi	r16, 0xFF	; 255
     20a:	1f 4f       	sbci	r17, 0xFF	; 255
     20c:	8b 81       	ldd	r24, Y+3	; 0x03
     20e:	90 e0       	ldi	r25, 0x00	; 0
     210:	08 17       	cp	r16, r24
     212:	19 07       	cpc	r17, r25
     214:	9c f3       	brlt	.-26     	; 0x1fc <can_receive_message+0x62>
			the_message.data[i] = mcp_2515_read(MCP_RXB0D+i);
		}
		mcp_2515_bit_modify(MCP_CANINTF, MCP_RX0IF,0);
     216:	40 e0       	ldi	r20, 0x00	; 0
     218:	61 e0       	ldi	r22, 0x01	; 1
     21a:	8c e2       	ldi	r24, 0x2C	; 44
     21c:	cf d1       	rcall	.+926    	; 0x5bc <mcp_2515_bit_modify>
		message_received --;
     21e:	80 91 f2 03 	lds	r24, 0x03F2
     222:	81 50       	subi	r24, 0x01	; 1
     224:	80 93 f2 03 	sts	0x03F2, r24
		the_message.ID = 0;
		the_message.length = 0;
	}
	return &the_message;
	
}
     228:	ce 01       	movw	r24, r28
     22a:	01 96       	adiw	r24, 0x01	; 1
     22c:	2b 96       	adiw	r28, 0x0b	; 11
     22e:	0f b6       	in	r0, 0x3f	; 63
     230:	f8 94       	cli
     232:	de bf       	out	0x3e, r29	; 62
     234:	0f be       	out	0x3f, r0	; 63
     236:	cd bf       	out	0x3d, r28	; 61
     238:	df 91       	pop	r29
     23a:	cf 91       	pop	r28
     23c:	1f 91       	pop	r17
     23e:	0f 91       	pop	r16
     240:	ff 90       	pop	r15
     242:	ef 90       	pop	r14
     244:	08 95       	ret

00000246 <can_data_received>:

// Check if there is a pending message in the receive buffer
uint8_t can_data_received(){
	return message_received;
}
     246:	80 91 f2 03 	lds	r24, 0x03F2
     24a:	08 95       	ret

0000024c <can_error>:
// Check error flags in the transmit buffer control register TXB0CTRL
uint8_t can_error(){
	uint8_t error_flags = mcp_2515_read(MCP_TXB0CTRL);
     24c:	80 e3       	ldi	r24, 0x30	; 48
     24e:	92 d1       	rcall	.+804    	; 0x574 <mcp_2515_read>
	if(test_bit(error_flags,5))
     250:	85 ff       	sbrs	r24, 5
     252:	05 c0       	rjmp	.+10     	; 0x25e <can_error+0x12>
	{
		printf("Message lost arbitration\n");
     254:	88 e0       	ldi	r24, 0x08	; 8
     256:	92 e0       	ldi	r25, 0x02	; 2
     258:	26 d3       	rcall	.+1612   	; 0x8a6 <puts>
		return 1;
     25a:	91 e0       	ldi	r25, 0x01	; 1
     25c:	13 c0       	rjmp	.+38     	; 0x284 <can_error+0x38>
	}
	if(test_bit(error_flags,4))
     25e:	84 ff       	sbrs	r24, 4
     260:	05 c0       	rjmp	.+10     	; 0x26c <can_error+0x20>
	{
		printf("Transmission error detected\n");
     262:	81 e2       	ldi	r24, 0x21	; 33
     264:	92 e0       	ldi	r25, 0x02	; 2
     266:	1f d3       	rcall	.+1598   	; 0x8a6 <puts>
		return 2;
     268:	92 e0       	ldi	r25, 0x02	; 2
     26a:	0c c0       	rjmp	.+24     	; 0x284 <can_error+0x38>
	}

	if(test_bit(error_flags,6))
     26c:	98 2f       	mov	r25, r24
     26e:	90 74       	andi	r25, 0x40	; 64
     270:	86 ff       	sbrs	r24, 6
     272:	08 c0       	rjmp	.+16     	; 0x284 <can_error+0x38>
	{
		printf("Receive buffer overflow flag set\n");
     274:	8d e3       	ldi	r24, 0x3D	; 61
     276:	92 e0       	ldi	r25, 0x02	; 2
     278:	16 d3       	rcall	.+1580   	; 0x8a6 <puts>
		// reset receivebuffer overflow flag
		mcp_2515_bit_modify(MCP_EFLG,0x40,0x40);
     27a:	40 e4       	ldi	r20, 0x40	; 64
     27c:	60 e4       	ldi	r22, 0x40	; 64
     27e:	8d e2       	ldi	r24, 0x2D	; 45
     280:	9d d1       	rcall	.+826    	; 0x5bc <mcp_2515_bit_modify>
		return 3;
     282:	93 e0       	ldi	r25, 0x03	; 3
	}
	return FALSE;
}
     284:	89 2f       	mov	r24, r25
     286:	08 95       	ret

00000288 <can_transmit_complete>:


uint8_t can_transmit_complete(){
	if (test_bit(mcp_2515_read(MCP_TXB0CTRL),3)) {
     288:	80 e3       	ldi	r24, 0x30	; 48
     28a:	74 d1       	rcall	.+744    	; 0x574 <mcp_2515_read>
     28c:	83 ff       	sbrs	r24, 3
     28e:	14 c0       	rjmp	.+40     	; 0x2b8 <can_transmit_complete+0x30>
		printf("Transmit not complete\n");
     290:	8e e5       	ldi	r24, 0x5E	; 94
     292:	92 e0       	ldi	r25, 0x02	; 2
     294:	08 d3       	rcall	.+1552   	; 0x8a6 <puts>
		number_of_tries++;
     296:	80 91 f4 03 	lds	r24, 0x03F4
     29a:	8f 5f       	subi	r24, 0xFF	; 255
     29c:	80 93 f4 03 	sts	0x03F4, r24
		if(number_of_tries == allowed_tries) {
     2a0:	90 91 06 02 	lds	r25, 0x0206
     2a4:	89 13       	cpse	r24, r25
     2a6:	0a c0       	rjmp	.+20     	; 0x2bc <can_transmit_complete+0x34>
			// Abort transmission
			mcp_2515_bit_modify(MCP_TXB0CTRL,8,0);
     2a8:	40 e0       	ldi	r20, 0x00	; 0
     2aa:	68 e0       	ldi	r22, 0x08	; 8
     2ac:	80 e3       	ldi	r24, 0x30	; 48
     2ae:	86 d1       	rcall	.+780    	; 0x5bc <mcp_2515_bit_modify>
			number_of_tries = 0;
     2b0:	10 92 f4 03 	sts	0x03F4, r1
		}
		return FALSE;
     2b4:	80 e0       	ldi	r24, 0x00	; 0
     2b6:	08 95       	ret
	}
	else return TRUE;
     2b8:	81 e0       	ldi	r24, 0x01	; 1
     2ba:	08 95       	ret
		if(number_of_tries == allowed_tries) {
			// Abort transmission
			mcp_2515_bit_modify(MCP_TXB0CTRL,8,0);
			number_of_tries = 0;
		}
		return FALSE;
     2bc:	80 e0       	ldi	r24, 0x00	; 0
	}
	else return TRUE;
}
     2be:	08 95       	ret

000002c0 <can_send_message>:
	return mcp_2515_enable_normal_operation();
}
/************************************************************************/
/* BUILD AND SEND CAN MESSAGE                                                                     */
/************************************************************************/
uint8_t can_send_message(can_message *can_message){
     2c0:	1f 93       	push	r17
     2c2:	cf 93       	push	r28
     2c4:	df 93       	push	r29
     2c6:	ec 01       	movw	r28, r24
	// Check if previous message was sent
	if (can_transmit_complete()) {
     2c8:	df df       	rcall	.-66     	; 0x288 <can_transmit_complete>
     2ca:	88 23       	and	r24, r24
     2cc:	01 f1       	breq	.+64     	; 0x30e <can_send_message+0x4e>
		unsigned int id= can_message->ID;
     2ce:	18 81       	ld	r17, Y
     2d0:	69 81       	ldd	r22, Y+1	; 0x01
		// Standard frame, mask out lowest five bits of low_ID
		low_ID = (low_ID << 5);
		uint8_t high_ID = (id >> 8);
		
		//writes the ID to the ID High and ID LOW
		mcp_2515_write(MCP_TXB0SIDH, high_ID);
     2d2:	81 e3       	ldi	r24, 0x31	; 49
     2d4:	5c d1       	rcall	.+696    	; 0x58e <mcp_2515_write>

		
		uint8_t low_ID = id & 0xFF;
		
		// Standard frame, mask out lowest five bits of low_ID
		low_ID = (low_ID << 5);
     2d6:	61 2f       	mov	r22, r17
     2d8:	62 95       	swap	r22
     2da:	66 0f       	add	r22, r22
     2dc:	60 7e       	andi	r22, 0xE0	; 224
		uint8_t high_ID = (id >> 8);
		
		//writes the ID to the ID High and ID LOW
		mcp_2515_write(MCP_TXB0SIDH, high_ID);
		mcp_2515_write(MCP_TXB0SIDL, low_ID);
     2de:	82 e3       	ldi	r24, 0x32	; 50
     2e0:	56 d1       	rcall	.+684    	; 0x58e <mcp_2515_write>
		
		mcp_2515_write(MCP_TXB0DLC, can_message->length);
     2e2:	6a 81       	ldd	r22, Y+2	; 0x02
     2e4:	85 e3       	ldi	r24, 0x35	; 53
     2e6:	53 d1       	rcall	.+678    	; 0x58e <mcp_2515_write>
		
		for(uint8_t i=0; i<can_message->length;i++){
     2e8:	8a 81       	ldd	r24, Y+2	; 0x02
     2ea:	88 23       	and	r24, r24
     2ec:	61 f0       	breq	.+24     	; 0x306 <can_send_message+0x46>
     2ee:	10 e0       	ldi	r17, 0x00	; 0
			mcp_2515_write(MCP_TXB0D+i, can_message->data[i]);
     2f0:	fe 01       	movw	r30, r28
     2f2:	e1 0f       	add	r30, r17
     2f4:	f1 1d       	adc	r31, r1
     2f6:	63 81       	ldd	r22, Z+3	; 0x03
     2f8:	86 e3       	ldi	r24, 0x36	; 54
     2fa:	81 0f       	add	r24, r17
     2fc:	48 d1       	rcall	.+656    	; 0x58e <mcp_2515_write>
		mcp_2515_write(MCP_TXB0SIDH, high_ID);
		mcp_2515_write(MCP_TXB0SIDL, low_ID);
		
		mcp_2515_write(MCP_TXB0DLC, can_message->length);
		
		for(uint8_t i=0; i<can_message->length;i++){
     2fe:	1f 5f       	subi	r17, 0xFF	; 255
     300:	8a 81       	ldd	r24, Y+2	; 0x02
     302:	18 17       	cp	r17, r24
     304:	a8 f3       	brcs	.-22     	; 0x2f0 <can_send_message+0x30>
			mcp_2515_write(MCP_TXB0D+i, can_message->data[i]);
		}
		
		mcp_2515_request_to_send(MCP_RTS_TX0);
     306:	81 e8       	ldi	r24, 0x81	; 129
     308:	51 d1       	rcall	.+674    	; 0x5ac <mcp_2515_request_to_send>
		return 1;
     30a:	81 e0       	ldi	r24, 0x01	; 1
     30c:	0d c0       	rjmp	.+26     	; 0x328 <can_send_message+0x68>
	}
	
	else {
		if (can_error() > 0) {
     30e:	9e df       	rcall	.-196    	; 0x24c <can_error>
     310:	88 23       	and	r24, r24
     312:	49 f0       	breq	.+18     	; 0x326 <can_send_message+0x66>
			printf("CAN MESSAGE SEND FAILED!");
     314:	84 e7       	ldi	r24, 0x74	; 116
     316:	92 e0       	ldi	r25, 0x02	; 2
     318:	9f 93       	push	r25
     31a:	8f 93       	push	r24
     31c:	b3 d2       	rcall	.+1382   	; 0x884 <printf>
			return -1;
     31e:	0f 90       	pop	r0
     320:	0f 90       	pop	r0
     322:	8f ef       	ldi	r24, 0xFF	; 255
     324:	01 c0       	rjmp	.+2      	; 0x328 <can_send_message+0x68>
		}
	}

	return 0;
     326:	80 e0       	ldi	r24, 0x00	; 0
}
     328:	df 91       	pop	r29
     32a:	cf 91       	pop	r28
     32c:	1f 91       	pop	r17
     32e:	08 95       	ret

00000330 <__vector_5>:
	}
	else return TRUE;
}


ISR(INT4_vect) {
     330:	1f 92       	push	r1
     332:	0f 92       	push	r0
     334:	0f b6       	in	r0, 0x3f	; 63
     336:	0f 92       	push	r0
     338:	11 24       	eor	r1, r1
     33a:	0b b6       	in	r0, 0x3b	; 59
     33c:	0f 92       	push	r0
     33e:	2f 93       	push	r18
     340:	3f 93       	push	r19
     342:	4f 93       	push	r20
     344:	5f 93       	push	r21
     346:	6f 93       	push	r22
     348:	7f 93       	push	r23
     34a:	8f 93       	push	r24
     34c:	9f 93       	push	r25
     34e:	af 93       	push	r26
     350:	bf 93       	push	r27
     352:	ef 93       	push	r30
     354:	ff 93       	push	r31
     356:	cf 93       	push	r28
     358:	df 93       	push	r29
     35a:	1f 92       	push	r1
     35c:	cd b7       	in	r28, 0x3d	; 61
     35e:	de b7       	in	r29, 0x3e	; 62
	volatile uint8_t interrupt_code = mcp_2515_read(MCP_CANINTF);
     360:	8c e2       	ldi	r24, 0x2C	; 44
     362:	08 d1       	rcall	.+528    	; 0x574 <mcp_2515_read>
     364:	89 83       	std	Y+1, r24	; 0x01

	if((interrupt_code & RXB0_AND_TXB0_INTERRUPT) == RXB0_AND_TXB0_INTERRUPT) {
     366:	89 81       	ldd	r24, Y+1	; 0x01
     368:	85 70       	andi	r24, 0x05	; 5
     36a:	85 30       	cpi	r24, 0x05	; 5
     36c:	41 f4       	brne	.+16     	; 0x37e <__vector_5+0x4e>
		mcp_2515_bit_modify(MCP_CANINTF, MCP_TX0IF,0);
     36e:	40 e0       	ldi	r20, 0x00	; 0
     370:	64 e0       	ldi	r22, 0x04	; 4
     372:	8c e2       	ldi	r24, 0x2C	; 44
     374:	23 d1       	rcall	.+582    	; 0x5bc <mcp_2515_bit_modify>
		mcp_2515_bit_modify(MCP_CANINTF, MCP_RX0IF,0);
     376:	40 e0       	ldi	r20, 0x00	; 0
     378:	61 e0       	ldi	r22, 0x01	; 1
     37a:	8c e2       	ldi	r24, 0x2C	; 44
     37c:	1f d1       	rcall	.+574    	; 0x5bc <mcp_2515_bit_modify>
	}
	if ((MERR_INTERRUPT & interrupt_code) == MERR_INTERRUPT) {
     37e:	89 81       	ldd	r24, Y+1	; 0x01
     380:	88 23       	and	r24, r24
     382:	24 f4       	brge	.+8      	; 0x38c <__vector_5+0x5c>
		// Clear message error flag
		mcp_2515_bit_modify(MCP_CANINTF, MCP_MERRF,0);
     384:	40 e0       	ldi	r20, 0x00	; 0
     386:	60 e8       	ldi	r22, 0x80	; 128
     388:	8c e2       	ldi	r24, 0x2C	; 44
     38a:	18 d1       	rcall	.+560    	; 0x5bc <mcp_2515_bit_modify>
	}
	mcp_2515_bit_modify(MCP_CANINTF,MCP_RX0IF,0);
     38c:	40 e0       	ldi	r20, 0x00	; 0
     38e:	61 e0       	ldi	r22, 0x01	; 1
     390:	8c e2       	ldi	r24, 0x2C	; 44
     392:	14 d1       	rcall	.+552    	; 0x5bc <mcp_2515_bit_modify>

	message_received++;
     394:	80 91 f2 03 	lds	r24, 0x03F2
     398:	8f 5f       	subi	r24, 0xFF	; 255
     39a:	80 93 f2 03 	sts	0x03F2, r24
	//printf("message received: %d",message_received);
	
}
     39e:	0f 90       	pop	r0
     3a0:	df 91       	pop	r29
     3a2:	cf 91       	pop	r28
     3a4:	ff 91       	pop	r31
     3a6:	ef 91       	pop	r30
     3a8:	bf 91       	pop	r27
     3aa:	af 91       	pop	r26
     3ac:	9f 91       	pop	r25
     3ae:	8f 91       	pop	r24
     3b0:	7f 91       	pop	r23
     3b2:	6f 91       	pop	r22
     3b4:	5f 91       	pop	r21
     3b6:	4f 91       	pop	r20
     3b8:	3f 91       	pop	r19
     3ba:	2f 91       	pop	r18
     3bc:	0f 90       	pop	r0
     3be:	0b be       	out	0x3b, r0	; 59
     3c0:	0f 90       	pop	r0
     3c2:	0f be       	out	0x3f, r0	; 63
     3c4:	0f 90       	pop	r0
     3c6:	1f 90       	pop	r1
     3c8:	18 95       	reti

000003ca <init>:
	}
}

void init() {
	int baud = (int) MYUBRR;
	USART_Init(baud);
     3ca:	87 e6       	ldi	r24, 0x67	; 103
     3cc:	90 e0       	ldi	r25, 0x00	; 0
     3ce:	e8 d1       	rcall	.+976    	; 0x7a0 <USART_Init>
	can_init();
     3d0:	cd de       	rcall	.-614    	; 0x16c <can_init>
	CAN_enable_normal_mode();
     3d2:	e1 de       	rcall	.-574    	; 0x196 <CAN_enable_normal_mode>
	pwm_init();
     3d4:	4c d1       	rcall	.+664    	; 0x66e <pwm_init>
	setup_ADC();
     3d6:	a6 de       	rcall	.-692    	; 0x124 <setup_ADC>
	start_ADC();
     3d8:	bd ce       	rjmp	.-646    	; 0x154 <start_ADC>
     3da:	08 95       	ret

000003dc <score_keeper>:
}
uint8_t score_keeper()
{
	score++;
     3dc:	80 91 f3 03 	lds	r24, 0x03F3
     3e0:	8f 5f       	subi	r24, 0xFF	; 255
     3e2:	80 93 f3 03 	sts	0x03F3, r24
	return score;
}
     3e6:	08 95       	ret

000003e8 <main>:
uint8_t score = 0;
float joystick_x_percentage;
float joystick_y_percentage;
uint8_t paused = TRUE;
int main(void)
{
     3e8:	cf 93       	push	r28
     3ea:	df 93       	push	r29
     3ec:	cd b7       	in	r28, 0x3d	; 61
     3ee:	de b7       	in	r29, 0x3e	; 62
     3f0:	2b 97       	sbiw	r28, 0x0b	; 11
     3f2:	0f b6       	in	r0, 0x3f	; 63
     3f4:	f8 94       	cli
     3f6:	de bf       	out	0x3e, r29	; 62
     3f8:	0f be       	out	0x3f, r0	; 63
     3fa:	cd bf       	out	0x3d, r28	; 61
	init();
     3fc:	e6 df       	rcall	.-52     	; 0x3ca <init>
	direction dir;
	int x_axis;
	int y_axis;
	uint8_t counter = 0;
	uint8_t adc_value = 0;
	int accumulated_value = 0;
     3fe:	00 e0       	ldi	r16, 0x00	; 0
     400:	10 e0       	ldi	r17, 0x00	; 0
	can_message send_message;
	joyValues values;
	direction dir;
	int x_axis;
	int y_axis;
	uint8_t counter = 0;
     402:	31 2c       	mov	r3, r1
				if(values.joystick_button == 1) paused = FALSE;
				pwm_set_angle(-x_axis);
			}
			
			
			printf("Received data: id: %d len: %d\n",received.ID,received.length);
     404:	0f 2e       	mov	r0, r31
     406:	f5 ea       	ldi	r31, 0xA5	; 165
     408:	6f 2e       	mov	r6, r31
     40a:	f2 e0       	ldi	r31, 0x02	; 2
     40c:	7f 2e       	mov	r7, r31
     40e:	f0 2d       	mov	r31, r0
			printf("left button: %d , right button: %d , joystick button: %d, direction: %s, x axis: %d, y axis: %d \n", values.right_button, values.right_button, values.joystick_button, stringFromDirection(dir), x_axis,y_axis);
     410:	0f 2e       	mov	r0, r31
     412:	f4 ec       	ldi	r31, 0xC4	; 196
     414:	4f 2e       	mov	r4, r31
     416:	f2 e0       	ldi	r31, 0x02	; 2
     418:	5f 2e       	mov	r5, r31
     41a:	f0 2d       	mov	r31, r0
     41c:	22 c0       	rjmp	.+68     	; 0x462 <main+0x7a>
	int averaged_value=0;

	while(1)
	{
		while(paused == FALSE) {
			adc_value = get_ADC_value();
     41e:	a3 de       	rcall	.-698    	; 0x166 <get_ADC_value>
			accumulated_value += adc_value;
     420:	08 0f       	add	r16, r24
     422:	11 1d       	adc	r17, r1
			counter++;
     424:	33 94       	inc	r3
			if (counter==5)
     426:	25 e0       	ldi	r18, 0x05	; 5
     428:	32 12       	cpse	r3, r18
     42a:	1b c0       	rjmp	.+54     	; 0x462 <main+0x7a>
			{	counter = 0;
				printf("accumulated_value= %d \n",accumulated_value);
     42c:	1f 93       	push	r17
     42e:	0f 93       	push	r16
     430:	ad e8       	ldi	r26, 0x8D	; 141
     432:	b2 e0       	ldi	r27, 0x02	; 2
     434:	bf 93       	push	r27
     436:	af 93       	push	r26
     438:	25 d2       	rcall	.+1098   	; 0x884 <printf>
				averaged_value = accumulated_value/5;
				accumulated_value = 0;
				if (averaged_value < 100) {
     43a:	0f 90       	pop	r0
     43c:	0f 90       	pop	r0
     43e:	0f 90       	pop	r0
     440:	0f 90       	pop	r0
     442:	04 3f       	cpi	r16, 0xF4	; 244
     444:	11 40       	sbci	r17, 0x01	; 1
     446:	54 f4       	brge	.+20     	; 0x45c <main+0x74>
					averaged_value=0;
					score = score_keeper();
     448:	c9 df       	rcall	.-110    	; 0x3dc <score_keeper>
     44a:	80 93 f3 03 	sts	0x03F3, r24
	score++;
	return score;
}

void goal_scored() {
	paused = TRUE;
     44e:	81 e0       	ldi	r24, 0x01	; 1
     450:	80 93 07 02 	sts	0x0207, r24
			counter++;
			if (counter==5)
			{	counter = 0;
				printf("accumulated_value= %d \n",accumulated_value);
				averaged_value = accumulated_value/5;
				accumulated_value = 0;
     454:	00 e0       	ldi	r16, 0x00	; 0
     456:	10 e0       	ldi	r17, 0x00	; 0
		while(paused == FALSE) {
			adc_value = get_ADC_value();
			accumulated_value += adc_value;
			counter++;
			if (counter==5)
			{	counter = 0;
     458:	31 2c       	mov	r3, r1
     45a:	03 c0       	rjmp	.+6      	; 0x462 <main+0x7a>
				printf("accumulated_value= %d \n",accumulated_value);
				averaged_value = accumulated_value/5;
				accumulated_value = 0;
     45c:	00 e0       	ldi	r16, 0x00	; 0
     45e:	10 e0       	ldi	r17, 0x00	; 0
		while(paused == FALSE) {
			adc_value = get_ADC_value();
			accumulated_value += adc_value;
			counter++;
			if (counter==5)
			{	counter = 0;
     460:	31 2c       	mov	r3, r1
	int accumulated_value = 0;
	int averaged_value=0;

	while(1)
	{
		while(paused == FALSE) {
     462:	80 91 07 02 	lds	r24, 0x0207
     466:	88 23       	and	r24, r24
     468:	d1 f2       	breq	.-76     	; 0x41e <main+0x36>
					goal_scored();
				}
			}
		}
		
		if(can_data_received() > 0) {
     46a:	ed de       	rcall	.-550    	; 0x246 <can_data_received>
     46c:	88 23       	and	r24, r24
     46e:	c9 f3       	breq	.-14     	; 0x462 <main+0x7a>
			received = *can_receive_message();
     470:	94 de       	rcall	.-728    	; 0x19a <can_receive_message>
     472:	2b e0       	ldi	r18, 0x0B	; 11
     474:	fc 01       	movw	r30, r24
     476:	a8 e0       	ldi	r26, 0x08	; 8
     478:	b4 e0       	ldi	r27, 0x04	; 4
     47a:	01 90       	ld	r0, Z+
     47c:	0d 92       	st	X+, r0
     47e:	2a 95       	dec	r18
     480:	e1 f7       	brne	.-8      	; 0x47a <main+0x92>
			if(received.ID == 0) {
				// Control message, blablabla
			}
			if (received.ID == 1){
     482:	80 91 08 04 	lds	r24, 0x0408
     486:	90 91 09 04 	lds	r25, 0x0409
     48a:	01 97       	sbiw	r24, 0x01	; 1
     48c:	51 f5       	brne	.+84     	; 0x4e2 <main+0xfa>
				// input data from controller
				values.left_button = received.data[0];
				values.right_button = received.data[1];
     48e:	ac e0       	ldi	r26, 0x0C	; 12
     490:	b4 e0       	ldi	r27, 0x04	; 4
     492:	ec 90       	ld	r14, X
     494:	f1 2c       	mov	r15, r1
				values.joystick_button = received.data[2];
     496:	ed e0       	ldi	r30, 0x0D	; 13
     498:	f4 e0       	ldi	r31, 0x04	; 4
     49a:	a0 80       	ld	r10, Z
     49c:	b1 2c       	mov	r11, r1
				dir = (direction) received.data[3];
     49e:	ae e0       	ldi	r26, 0x0E	; 14
     4a0:	b4 e0       	ldi	r27, 0x04	; 4
     4a2:	2c 90       	ld	r2, X
				x_axis = received.data[4]<<8 | received.data[5];
     4a4:	ef e0       	ldi	r30, 0x0F	; 15
     4a6:	f4 e0       	ldi	r31, 0x04	; 4
     4a8:	c0 80       	ld	r12, Z
     4aa:	d1 2c       	mov	r13, r1
     4ac:	dc 2c       	mov	r13, r12
     4ae:	cc 24       	eor	r12, r12
     4b0:	a0 e1       	ldi	r26, 0x10	; 16
     4b2:	b4 e0       	ldi	r27, 0x04	; 4
     4b4:	8c 91       	ld	r24, X
     4b6:	c8 2a       	or	r12, r24
				y_axis = received.data[6]<<8 | received.data[7];
     4b8:	e1 e1       	ldi	r30, 0x11	; 17
     4ba:	f4 e0       	ldi	r31, 0x04	; 4
     4bc:	80 80       	ld	r8, Z
     4be:	91 2c       	mov	r9, r1
     4c0:	98 2c       	mov	r9, r8
     4c2:	88 24       	eor	r8, r8
     4c4:	a2 e1       	ldi	r26, 0x12	; 18
     4c6:	b4 e0       	ldi	r27, 0x04	; 4
     4c8:	8c 91       	ld	r24, X
     4ca:	88 2a       	or	r8, r24
				if(values.joystick_button == 1) paused = FALSE;
     4cc:	b1 e0       	ldi	r27, 0x01	; 1
     4ce:	ab 16       	cp	r10, r27
     4d0:	b1 04       	cpc	r11, r1
     4d2:	11 f4       	brne	.+4      	; 0x4d8 <main+0xf0>
     4d4:	10 92 07 02 	sts	0x0207, r1
				pwm_set_angle(-x_axis);
     4d8:	88 27       	eor	r24, r24
     4da:	99 27       	eor	r25, r25
     4dc:	8c 19       	sub	r24, r12
     4de:	9d 09       	sbc	r25, r13
     4e0:	07 d1       	rcall	.+526    	; 0x6f0 <pwm_set_angle>
			}
			
			
			printf("Received data: id: %d len: %d\n",received.ID,received.length);
     4e2:	ea e0       	ldi	r30, 0x0A	; 10
     4e4:	f4 e0       	ldi	r31, 0x04	; 4
     4e6:	80 81       	ld	r24, Z
     4e8:	1f 92       	push	r1
     4ea:	8f 93       	push	r24
     4ec:	e8 e0       	ldi	r30, 0x08	; 8
     4ee:	f4 e0       	ldi	r31, 0x04	; 4
     4f0:	81 81       	ldd	r24, Z+1	; 0x01
     4f2:	8f 93       	push	r24
     4f4:	80 81       	ld	r24, Z
     4f6:	8f 93       	push	r24
     4f8:	7f 92       	push	r7
     4fa:	6f 92       	push	r6
     4fc:	c3 d1       	rcall	.+902    	; 0x884 <printf>
			printf("left button: %d , right button: %d , joystick button: %d, direction: %s, x axis: %d, y axis: %d \n", values.right_button, values.right_button, values.joystick_button, stringFromDirection(dir), x_axis,y_axis);
     4fe:	9f 92       	push	r9
     500:	8f 92       	push	r8
     502:	df 92       	push	r13
     504:	cf 92       	push	r12
direction joystick_getDirection(float x, float y);
float convert_to_sliderpercentage(uint8_t digital_value);
static inline char *stringFromDirection(direction d)
{
	static const char *strings[] = { "UP", "DOWN", "LEFT", "RIGHT", "NEUTRAL"};
	return strings[d];
     506:	e2 2d       	mov	r30, r2
     508:	f0 e0       	ldi	r31, 0x00	; 0
     50a:	ee 0f       	add	r30, r30
     50c:	ff 1f       	adc	r31, r31
     50e:	e1 5b       	subi	r30, 0xB1	; 177
     510:	fc 4f       	sbci	r31, 0xFC	; 252
     512:	81 81       	ldd	r24, Z+1	; 0x01
     514:	8f 93       	push	r24
     516:	80 81       	ld	r24, Z
     518:	8f 93       	push	r24
     51a:	bf 92       	push	r11
     51c:	af 92       	push	r10
     51e:	ff 92       	push	r15
     520:	ef 92       	push	r14
     522:	ff 92       	push	r15
     524:	ef 92       	push	r14
     526:	5f 92       	push	r5
     528:	4f 92       	push	r4
     52a:	ac d1       	rcall	.+856    	; 0x884 <printf>
			//Construct return data:
			if(score>=3) {
     52c:	80 91 f3 03 	lds	r24, 0x03F3
     530:	0f b6       	in	r0, 0x3f	; 63
     532:	f8 94       	cli
     534:	de bf       	out	0x3e, r29	; 62
     536:	0f be       	out	0x3f, r0	; 63
     538:	cd bf       	out	0x3d, r28	; 61
     53a:	83 30       	cpi	r24, 0x03	; 3
     53c:	08 f4       	brcc	.+2      	; 0x540 <main+0x158>
     53e:	91 cf       	rjmp	.-222    	; 0x462 <main+0x7a>
				// Game lost, send message
				send_message.ID = 2;
     540:	a2 e0       	ldi	r26, 0x02	; 2
     542:	b0 e0       	ldi	r27, 0x00	; 0
     544:	ba 83       	std	Y+2, r27	; 0x02
     546:	a9 83       	std	Y+1, r26	; 0x01
				send_message.length = 1;
     548:	91 e0       	ldi	r25, 0x01	; 1
     54a:	9b 83       	std	Y+3, r25	; 0x03
				send_message.data[0]=score;
     54c:	8c 83       	std	Y+4, r24	; 0x04
				//printf("ADC value: %d \n", get_ADC_value());
				uint8_t sent = can_send_message(&send_message);
     54e:	ce 01       	movw	r24, r28
     550:	01 96       	adiw	r24, 0x01	; 1
     552:	b6 de       	rcall	.-660    	; 0x2c0 <can_send_message>
	#else
		//round up by default
		__ticks_dc = (uint32_t)(ceil(fabs(__tmp)));
	#endif

	__builtin_avr_delay_cycles(__ticks_dc);
     554:	e3 ed       	ldi	r30, 0xD3	; 211
     556:	f0 e3       	ldi	r31, 0x30	; 48
     558:	31 97       	sbiw	r30, 0x01	; 1
     55a:	f1 f7       	brne	.-4      	; 0x558 <main+0x170>
     55c:	00 c0       	rjmp	.+0      	; 0x55e <main+0x176>
     55e:	00 00       	nop
				_delay_ms(50);
				if (sent == 1) {
     560:	81 30       	cpi	r24, 0x01	; 1
     562:	21 f4       	brne	.+8      	; 0x56c <main+0x184>
					printf("Sent! \n");
     564:	86 e2       	ldi	r24, 0x26	; 38
     566:	93 e0       	ldi	r25, 0x03	; 3
     568:	9e d1       	rcall	.+828    	; 0x8a6 <puts>
     56a:	7b cf       	rjmp	.-266    	; 0x462 <main+0x7a>
				}
				else{
					printf("failed\n");
     56c:	8d e2       	ldi	r24, 0x2D	; 45
     56e:	93 e0       	ldi	r25, 0x03	; 3
     570:	9a d1       	rcall	.+820    	; 0x8a6 <puts>
     572:	77 cf       	rjmp	.-274    	; 0x462 <main+0x7a>

00000574 <mcp_2515_read>:
		printf("NOT in LOOPBACK mode\n");
		return 1;
	}
	printf("Loopback enabled\n");
	return 0;
}
     574:	cf 93       	push	r28
     576:	c8 2f       	mov	r28, r24
     578:	fa d0       	rcall	.+500    	; 0x76e <spi_enable>
     57a:	83 e0       	ldi	r24, 0x03	; 3
     57c:	ed d0       	rcall	.+474    	; 0x758 <spi_send>
     57e:	8c 2f       	mov	r24, r28
     580:	eb d0       	rcall	.+470    	; 0x758 <spi_send>
     582:	ef d0       	rcall	.+478    	; 0x762 <spi_read>
     584:	c8 2f       	mov	r28, r24
     586:	f6 d0       	rcall	.+492    	; 0x774 <spi_disable>
     588:	8c 2f       	mov	r24, r28
     58a:	cf 91       	pop	r28
     58c:	08 95       	ret

0000058e <mcp_2515_write>:
     58e:	cf 93       	push	r28
     590:	df 93       	push	r29
     592:	d8 2f       	mov	r29, r24
     594:	c6 2f       	mov	r28, r22
     596:	eb d0       	rcall	.+470    	; 0x76e <spi_enable>
     598:	82 e0       	ldi	r24, 0x02	; 2
     59a:	de d0       	rcall	.+444    	; 0x758 <spi_send>
     59c:	8d 2f       	mov	r24, r29
     59e:	dc d0       	rcall	.+440    	; 0x758 <spi_send>
     5a0:	8c 2f       	mov	r24, r28
     5a2:	da d0       	rcall	.+436    	; 0x758 <spi_send>
     5a4:	e7 d0       	rcall	.+462    	; 0x774 <spi_disable>
     5a6:	df 91       	pop	r29
     5a8:	cf 91       	pop	r28
     5aa:	08 95       	ret

000005ac <mcp_2515_request_to_send>:
     5ac:	cf 93       	push	r28
     5ae:	c8 2f       	mov	r28, r24
     5b0:	de d0       	rcall	.+444    	; 0x76e <spi_enable>
     5b2:	8c 2f       	mov	r24, r28
     5b4:	d1 d0       	rcall	.+418    	; 0x758 <spi_send>
     5b6:	de d0       	rcall	.+444    	; 0x774 <spi_disable>
     5b8:	cf 91       	pop	r28
     5ba:	08 95       	ret

000005bc <mcp_2515_bit_modify>:
     5bc:	1f 93       	push	r17
     5be:	cf 93       	push	r28
     5c0:	df 93       	push	r29
     5c2:	18 2f       	mov	r17, r24
     5c4:	d6 2f       	mov	r29, r22
     5c6:	c4 2f       	mov	r28, r20
     5c8:	d2 d0       	rcall	.+420    	; 0x76e <spi_enable>
     5ca:	85 e0       	ldi	r24, 0x05	; 5
     5cc:	c5 d0       	rcall	.+394    	; 0x758 <spi_send>
     5ce:	81 2f       	mov	r24, r17
     5d0:	c3 d0       	rcall	.+390    	; 0x758 <spi_send>
     5d2:	8d 2f       	mov	r24, r29
     5d4:	c1 d0       	rcall	.+386    	; 0x758 <spi_send>
     5d6:	8c 2f       	mov	r24, r28
     5d8:	bf d0       	rcall	.+382    	; 0x758 <spi_send>
     5da:	cc d0       	rcall	.+408    	; 0x774 <spi_disable>
     5dc:	df 91       	pop	r29
     5de:	cf 91       	pop	r28
     5e0:	1f 91       	pop	r17
     5e2:	08 95       	ret

000005e4 <mcp_2515_enable_normal_operation>:

uint8_t mcp_2515_enable_normal_operation()
{
     5e4:	cf 93       	push	r28
     5e6:	df 93       	push	r29
     5e8:	1f 92       	push	r1
     5ea:	cd b7       	in	r28, 0x3d	; 61
     5ec:	de b7       	in	r29, 0x3e	; 62
	// Enable normal operation in the CANCTRL-register
	mcp_2515_bit_modify(MCP_CANCTRL,MODE_MASK,MODE_NORMAL);
     5ee:	40 e0       	ldi	r20, 0x00	; 0
     5f0:	60 ee       	ldi	r22, 0xE0	; 224
     5f2:	8f e0       	ldi	r24, 0x0F	; 15
     5f4:	e3 df       	rcall	.-58     	; 0x5bc <mcp_2515_bit_modify>
	// Check if normal mode is enabled
	volatile uint8_t value = mcp_2515_read(MCP_CANSTAT);
     5f6:	8e e0       	ldi	r24, 0x0E	; 14
     5f8:	bd df       	rcall	.-134    	; 0x574 <mcp_2515_read>
     5fa:	89 83       	std	Y+1, r24	; 0x01
	if ((value & MODE_MASK) != MODE_NORMAL)
     5fc:	89 81       	ldd	r24, Y+1	; 0x01
     5fe:	80 7e       	andi	r24, 0xE0	; 224
     600:	29 f4       	brne	.+10     	; 0x60c <mcp_2515_enable_normal_operation+0x28>
	{
		return 1;
	}
	printf("MCP2515 in normal mode\n");
     602:	8f e7       	ldi	r24, 0x7F	; 127
     604:	93 e0       	ldi	r25, 0x03	; 3
     606:	4f d1       	rcall	.+670    	; 0x8a6 <puts>
	return 0;
     608:	80 e0       	ldi	r24, 0x00	; 0
     60a:	01 c0       	rjmp	.+2      	; 0x60e <mcp_2515_enable_normal_operation+0x2a>
	mcp_2515_bit_modify(MCP_CANCTRL,MODE_MASK,MODE_NORMAL);
	// Check if normal mode is enabled
	volatile uint8_t value = mcp_2515_read(MCP_CANSTAT);
	if ((value & MODE_MASK) != MODE_NORMAL)
	{
		return 1;
     60c:	81 e0       	ldi	r24, 0x01	; 1
	}
	printf("MCP2515 in normal mode\n");
	return 0;
}
     60e:	0f 90       	pop	r0
     610:	df 91       	pop	r29
     612:	cf 91       	pop	r28
     614:	08 95       	ret

00000616 <mcp_2515_reset>:
	spi_disable();
}

void mcp_2515_reset(){
	// Enable slave
	spi_enable();
     616:	ab d0       	rcall	.+342    	; 0x76e <spi_enable>
	
	// Send reset-command
	spi_send(MCP_RESET);
     618:	80 ec       	ldi	r24, 0xC0	; 192
     61a:	9e d0       	rcall	.+316    	; 0x758 <spi_send>
	
	// Disable slave
	spi_disable();
     61c:	ab c0       	rjmp	.+342    	; 0x774 <spi_disable>
     61e:	08 95       	ret

00000620 <mcp_2515_init>:

#include "MCP2515.h"
#include "spi.h"
#include "USART.h"

uint8_t mcp_2515_init(){
     620:	cf 93       	push	r28
     622:	df 93       	push	r29
     624:	1f 92       	push	r1
     626:	cd b7       	in	r28, 0x3d	; 61
     628:	de b7       	in	r29, 0x3e	; 62
	volatile uint8_t value;
	
	spi_init();
     62a:	8d d0       	rcall	.+282    	; 0x746 <spi_init>
	mcp_2515_reset();
     62c:	f4 df       	rcall	.-24     	; 0x616 <mcp_2515_reset>
	
	//Self-test
	printf("Read mcp2515\n");
     62e:	86 e9       	ldi	r24, 0x96	; 150
     630:	93 e0       	ldi	r25, 0x03	; 3
     632:	39 d1       	rcall	.+626    	; 0x8a6 <puts>
	value = mcp_2515_read(MCP_CANSTAT);
     634:	8e e0       	ldi	r24, 0x0E	; 14
     636:	9e df       	rcall	.-196    	; 0x574 <mcp_2515_read>
     638:	89 83       	std	Y+1, r24	; 0x01
	if ((value & MODE_MASK) != MODE_CONFIG)
     63a:	89 81       	ldd	r24, Y+1	; 0x01
     63c:	80 7e       	andi	r24, 0xE0	; 224
     63e:	80 38       	cpi	r24, 0x80	; 128
     640:	29 f0       	breq	.+10     	; 0x64c <mcp_2515_init+0x2c>
	{
		printf("MCP2515 is NOT in configuration mode after reset!\n");
     642:	83 ea       	ldi	r24, 0xA3	; 163
     644:	93 e0       	ldi	r25, 0x03	; 3
     646:	2f d1       	rcall	.+606    	; 0x8a6 <puts>
		return 1;
     648:	81 e0       	ldi	r24, 0x01	; 1
     64a:	0d c0       	rjmp	.+26     	; 0x666 <mcp_2515_init+0x46>
	}
	printf("MCP2515 mode after init: %d\n", value);
     64c:	89 81       	ldd	r24, Y+1	; 0x01
     64e:	1f 92       	push	r1
     650:	8f 93       	push	r24
     652:	85 ed       	ldi	r24, 0xD5	; 213
     654:	93 e0       	ldi	r25, 0x03	; 3
     656:	9f 93       	push	r25
     658:	8f 93       	push	r24
     65a:	14 d1       	rcall	.+552    	; 0x884 <printf>
	
	
	return 0;
     65c:	0f 90       	pop	r0
     65e:	0f 90       	pop	r0
     660:	0f 90       	pop	r0
     662:	0f 90       	pop	r0
     664:	80 e0       	ldi	r24, 0x00	; 0
}
     666:	0f 90       	pop	r0
     668:	df 91       	pop	r29
     66a:	cf 91       	pop	r28
     66c:	08 95       	ret

0000066e <pwm_init>:
unsigned int input_end;
unsigned int output_start;
unsigned int output_end;
uint8_t pwm_init(){
	//Mode 14
	TCCR3A |= (1 << WGM31)|(1 << COM3A1);
     66e:	e0 e9       	ldi	r30, 0x90	; 144
     670:	f0 e0       	ldi	r31, 0x00	; 0
     672:	80 81       	ld	r24, Z
     674:	82 68       	ori	r24, 0x82	; 130
     676:	80 83       	st	Z, r24
	TCCR3A &= ~(1 << WGM30)|(1 << COM3A0);
     678:	80 81       	ld	r24, Z
     67a:	8e 7f       	andi	r24, 0xFE	; 254
     67c:	80 83       	st	Z, r24
	TCCR3B |= (1 << WGM32)|(1 << WGM33)|(1 << CS31)|(1 << CS30);
     67e:	e1 e9       	ldi	r30, 0x91	; 145
     680:	f0 e0       	ldi	r31, 0x00	; 0
     682:	80 81       	ld	r24, Z
     684:	8b 61       	ori	r24, 0x1B	; 27
     686:	80 83       	st	Z, r24
	TCCR3B &= ~(1 << CS32);
     688:	80 81       	ld	r24, Z
     68a:	8b 7f       	andi	r24, 0xFB	; 251
     68c:	80 83       	st	Z, r24
	
	
	
	ICR3 = 5000;
     68e:	88 e8       	ldi	r24, 0x88	; 136
     690:	93 e1       	ldi	r25, 0x13	; 19
     692:	90 93 97 00 	sts	0x0097, r25
     696:	80 93 96 00 	sts	0x0096, r24
	set_bit(DDRE,PE3);
     69a:	6b 9a       	sbi	0x0d, 3	; 13
	OCR3A = 375;
     69c:	87 e7       	ldi	r24, 0x77	; 119
     69e:	91 e0       	ldi	r25, 0x01	; 1
     6a0:	90 93 99 00 	sts	0x0099, r25
     6a4:	80 93 98 00 	sts	0x0098, r24

	input_start = -100;
     6a8:	8c e9       	ldi	r24, 0x9C	; 156
     6aa:	9f ef       	ldi	r25, 0xFF	; 255
     6ac:	90 93 14 04 	sts	0x0414, r25
     6b0:	80 93 13 04 	sts	0x0413, r24
	input_end = 100;
     6b4:	84 e6       	ldi	r24, 0x64	; 100
     6b6:	90 e0       	ldi	r25, 0x00	; 0
     6b8:	90 93 16 04 	sts	0x0416, r25
     6bc:	80 93 15 04 	sts	0x0415, r24
	output_start = 250;
     6c0:	8a ef       	ldi	r24, 0xFA	; 250
     6c2:	90 e0       	ldi	r25, 0x00	; 0
     6c4:	90 93 1a 04 	sts	0x041A, r25
     6c8:	80 93 19 04 	sts	0x0419, r24
	output_end = 500;
     6cc:	24 ef       	ldi	r18, 0xF4	; 244
     6ce:	31 e0       	ldi	r19, 0x01	; 1
     6d0:	30 93 1e 04 	sts	0x041E, r19
     6d4:	20 93 1d 04 	sts	0x041D, r18
	input_range = input_end-input_start;
     6d8:	28 ec       	ldi	r18, 0xC8	; 200
     6da:	30 e0       	ldi	r19, 0x00	; 0
     6dc:	30 93 18 04 	sts	0x0418, r19
     6e0:	20 93 17 04 	sts	0x0417, r18
	output_range = output_end-output_start;
     6e4:	90 93 1c 04 	sts	0x041C, r25
     6e8:	80 93 1b 04 	sts	0x041B, r24
	return 0;

}
     6ec:	80 e0       	ldi	r24, 0x00	; 0
     6ee:	08 95       	ret

000006f0 <pwm_set_angle>:

uint8_t pwm_set_angle(int angle){
	
	if(angle>=-100 && angle<= 100){
     6f0:	9c 01       	movw	r18, r24
     6f2:	2c 59       	subi	r18, 0x9C	; 156
     6f4:	3f 4f       	sbci	r19, 0xFF	; 255
     6f6:	29 3c       	cpi	r18, 0xC9	; 201
     6f8:	31 05       	cpc	r19, r1
     6fa:	18 f5       	brcc	.+70     	; 0x742 <pwm_set_angle+0x52>
		OCR3A = (angle-input_start)*output_range / input_range + output_start;
     6fc:	20 91 13 04 	lds	r18, 0x0413
     700:	30 91 14 04 	lds	r19, 0x0414
     704:	ac 01       	movw	r20, r24
     706:	42 1b       	sub	r20, r18
     708:	53 0b       	sbc	r21, r19
     70a:	20 91 1b 04 	lds	r18, 0x041B
     70e:	30 91 1c 04 	lds	r19, 0x041C
     712:	42 9f       	mul	r20, r18
     714:	c0 01       	movw	r24, r0
     716:	43 9f       	mul	r20, r19
     718:	90 0d       	add	r25, r0
     71a:	52 9f       	mul	r21, r18
     71c:	90 0d       	add	r25, r0
     71e:	11 24       	eor	r1, r1
     720:	60 91 17 04 	lds	r22, 0x0417
     724:	70 91 18 04 	lds	r23, 0x0418
     728:	4f d0       	rcall	.+158    	; 0x7c8 <__udivmodhi4>
     72a:	80 91 19 04 	lds	r24, 0x0419
     72e:	90 91 1a 04 	lds	r25, 0x041A
     732:	68 0f       	add	r22, r24
     734:	79 1f       	adc	r23, r25
     736:	70 93 99 00 	sts	0x0099, r23
     73a:	60 93 98 00 	sts	0x0098, r22
		return 0;
     73e:	80 e0       	ldi	r24, 0x00	; 0
     740:	08 95       	ret
	}
	
	return 1;
     742:	81 e0       	ldi	r24, 0x01	; 1
}
     744:	08 95       	ret

00000746 <spi_init>:

void spi_init()
{
	/* Set MOSI and SCK output, all others input */
	// PB7 = !SS, PB2 = MOSI, PB3 = MISO, PB1 = SCK
	DDRB = (1<<PB7)|(1<<PB2)|(1<<PB1)|(1<<PB0);
     746:	87 e8       	ldi	r24, 0x87	; 135
     748:	84 b9       	out	0x04, r24	; 4
	// MISO as input
	clear_bit(DDRB,PB3);
     74a:	23 98       	cbi	0x04, 3	; 4
	set_bit(PORTB,PB3);
     74c:	2b 9a       	sbi	0x05, 3	; 5
	/* Enable SPI, Master, set clock rate fck/16 */
	SPCR = (1<<SPE)|(1<<MSTR)|(1<<SPR0);
     74e:	81 e5       	ldi	r24, 0x51	; 81
     750:	8c bd       	out	0x2c, r24	; 44
	// Read SPSR and SPDR to clear interrupt flag
	char c1 = SPSR;
     752:	8d b5       	in	r24, 0x2d	; 45
	char c2 = SPDR;
     754:	8e b5       	in	r24, 0x2e	; 46
     756:	08 95       	ret

00000758 <spi_send>:
}
void spi_send(char cData)
{
	/* Start transmission */
	SPDR = cData;
     758:	8e bd       	out	0x2e, r24	; 46
	/* Wait for transmission complete */
	while(!(SPSR & (1<<SPIF)));
     75a:	0d b4       	in	r0, 0x2d	; 45
     75c:	07 fe       	sbrs	r0, 7
     75e:	fd cf       	rjmp	.-6      	; 0x75a <spi_send+0x2>
}
     760:	08 95       	ret

00000762 <spi_read>:

char spi_read() 
{

	SPDR = 0x00; // send dummy data
     762:	1e bc       	out	0x2e, r1	; 46
	while(!(SPSR & (1<<SPIF))); // Wait until data is shifted into SPDR
     764:	0d b4       	in	r0, 0x2d	; 45
     766:	07 fe       	sbrs	r0, 7
     768:	fd cf       	rjmp	.-6      	; 0x764 <spi_read+0x2>
	return SPDR;
     76a:	8e b5       	in	r24, 0x2e	; 46
}
     76c:	08 95       	ret

0000076e <spi_enable>:

void spi_enable()
{
	clear_bit(PORTB,PB7);
     76e:	2f 98       	cbi	0x05, 7	; 5
	clear_bit(PORTB,PB0);
     770:	28 98       	cbi	0x05, 0	; 5
     772:	08 95       	ret

00000774 <spi_disable>:
}

void spi_disable()
{
	set_bit(PORTB,PB7);
     774:	2f 9a       	sbi	0x05, 7	; 5
	set_bit(PORTB,PB0);
     776:	28 9a       	sbi	0x05, 0	; 5
     778:	08 95       	ret

0000077a <USART_Transmit>:
int USART_Transmit(char data, struct __file* dummy)
{
    //if(data == '\n') USART_Transmit('\r', dummy);
	// Sjekk om bit UDRE0 i register UCSR0A er satt
	// UDRE0 = usart data register empty
	while(!(UCSR0A & (1<<UDRE0)))
     77a:	e0 ec       	ldi	r30, 0xC0	; 192
     77c:	f0 e0       	ldi	r31, 0x00	; 0
     77e:	90 81       	ld	r25, Z
     780:	95 ff       	sbrs	r25, 5
     782:	fd cf       	rjmp	.-6      	; 0x77e <USART_Transmit+0x4>
		;
	UDR0=data;
     784:	80 93 c6 00 	sts	0x00C6, r24
    return 0;
}
     788:	80 e0       	ldi	r24, 0x00	; 0
     78a:	90 e0       	ldi	r25, 0x00	; 0
     78c:	08 95       	ret

0000078e <USART_Recieve>:

int USART_Recieve(struct __file* dummy)
{
	// Sjekk om bit RXC0 i register UCSR0A
	while (!(UCSR0A & (1<<RXC0)))
     78e:	e0 ec       	ldi	r30, 0xC0	; 192
     790:	f0 e0       	ldi	r31, 0x00	; 0
     792:	80 81       	ld	r24, Z
     794:	88 23       	and	r24, r24
     796:	ec f7       	brge	.-6      	; 0x792 <USART_Recieve+0x4>
		;
	return UDR0;
     798:	80 91 c6 00 	lds	r24, 0x00C6
}
     79c:	90 e0       	ldi	r25, 0x00	; 0
     79e:	08 95       	ret

000007a0 <USART_Init>:


void USART_Init(unsigned int ubrr)
{
    
	UBRR0H =(unsigned char) (ubrr>>8); // Flytt ubrr 8 bits til hyre, lagre i register UBRR0H
     7a0:	90 93 c5 00 	sts	0x00C5, r25
	UBRR0L =(unsigned char) (ubrr); // Lagre frste 8 bits i UBRR0L
     7a4:	80 93 c4 00 	sts	0x00C4, r24
	// Enable mottaker og sender (sett bitt RXEN0 og TXEN0 =1)
	UCSR0B = (1<<RXEN0)|(1<<TXEN0);
     7a8:	88 e1       	ldi	r24, 0x18	; 24
     7aa:	80 93 c1 00 	sts	0x00C1, r24
    // 8 data bits, 2 stop bits
	UCSR0C = (1<<USBS0)|(3<<UCSZ00);
     7ae:	8e e0       	ldi	r24, 0x0E	; 14
     7b0:	80 93 c2 00 	sts	0x00C2, r24
    
	//Breakpoint
    uart = fdevopen(&USART_Transmit,&USART_Recieve);
     7b4:	67 ec       	ldi	r22, 0xC7	; 199
     7b6:	73 e0       	ldi	r23, 0x03	; 3
     7b8:	8d eb       	ldi	r24, 0xBD	; 189
     7ba:	93 e0       	ldi	r25, 0x03	; 3
     7bc:	19 d0       	rcall	.+50     	; 0x7f0 <fdevopen>
     7be:	90 93 20 04 	sts	0x0420, r25
     7c2:	80 93 1f 04 	sts	0x041F, r24
     7c6:	08 95       	ret

000007c8 <__udivmodhi4>:
     7c8:	aa 1b       	sub	r26, r26
     7ca:	bb 1b       	sub	r27, r27
     7cc:	51 e1       	ldi	r21, 0x11	; 17
     7ce:	07 c0       	rjmp	.+14     	; 0x7de <__udivmodhi4_ep>

000007d0 <__udivmodhi4_loop>:
     7d0:	aa 1f       	adc	r26, r26
     7d2:	bb 1f       	adc	r27, r27
     7d4:	a6 17       	cp	r26, r22
     7d6:	b7 07       	cpc	r27, r23
     7d8:	10 f0       	brcs	.+4      	; 0x7de <__udivmodhi4_ep>
     7da:	a6 1b       	sub	r26, r22
     7dc:	b7 0b       	sbc	r27, r23

000007de <__udivmodhi4_ep>:
     7de:	88 1f       	adc	r24, r24
     7e0:	99 1f       	adc	r25, r25
     7e2:	5a 95       	dec	r21
     7e4:	a9 f7       	brne	.-22     	; 0x7d0 <__udivmodhi4_loop>
     7e6:	80 95       	com	r24
     7e8:	90 95       	com	r25
     7ea:	bc 01       	movw	r22, r24
     7ec:	cd 01       	movw	r24, r26
     7ee:	08 95       	ret

000007f0 <fdevopen>:
     7f0:	0f 93       	push	r16
     7f2:	1f 93       	push	r17
     7f4:	cf 93       	push	r28
     7f6:	df 93       	push	r29
     7f8:	ec 01       	movw	r28, r24
     7fa:	8b 01       	movw	r16, r22
     7fc:	00 97       	sbiw	r24, 0x00	; 0
     7fe:	31 f4       	brne	.+12     	; 0x80c <fdevopen+0x1c>
     800:	61 15       	cp	r22, r1
     802:	71 05       	cpc	r23, r1
     804:	19 f4       	brne	.+6      	; 0x80c <fdevopen+0x1c>
     806:	80 e0       	ldi	r24, 0x00	; 0
     808:	90 e0       	ldi	r25, 0x00	; 0
     80a:	37 c0       	rjmp	.+110    	; 0x87a <fdevopen+0x8a>
     80c:	6e e0       	ldi	r22, 0x0E	; 14
     80e:	70 e0       	ldi	r23, 0x00	; 0
     810:	81 e0       	ldi	r24, 0x01	; 1
     812:	90 e0       	ldi	r25, 0x00	; 0
     814:	63 d2       	rcall	.+1222   	; 0xcdc <calloc>
     816:	fc 01       	movw	r30, r24
     818:	00 97       	sbiw	r24, 0x00	; 0
     81a:	a9 f3       	breq	.-22     	; 0x806 <fdevopen+0x16>
     81c:	80 e8       	ldi	r24, 0x80	; 128
     81e:	83 83       	std	Z+3, r24	; 0x03
     820:	01 15       	cp	r16, r1
     822:	11 05       	cpc	r17, r1
     824:	71 f0       	breq	.+28     	; 0x842 <fdevopen+0x52>
     826:	13 87       	std	Z+11, r17	; 0x0b
     828:	02 87       	std	Z+10, r16	; 0x0a
     82a:	81 e8       	ldi	r24, 0x81	; 129
     82c:	83 83       	std	Z+3, r24	; 0x03
     82e:	80 91 21 04 	lds	r24, 0x0421
     832:	90 91 22 04 	lds	r25, 0x0422
     836:	89 2b       	or	r24, r25
     838:	21 f4       	brne	.+8      	; 0x842 <fdevopen+0x52>
     83a:	f0 93 22 04 	sts	0x0422, r31
     83e:	e0 93 21 04 	sts	0x0421, r30
     842:	20 97       	sbiw	r28, 0x00	; 0
     844:	c9 f0       	breq	.+50     	; 0x878 <fdevopen+0x88>
     846:	d1 87       	std	Z+9, r29	; 0x09
     848:	c0 87       	std	Z+8, r28	; 0x08
     84a:	83 81       	ldd	r24, Z+3	; 0x03
     84c:	82 60       	ori	r24, 0x02	; 2
     84e:	83 83       	std	Z+3, r24	; 0x03
     850:	80 91 23 04 	lds	r24, 0x0423
     854:	90 91 24 04 	lds	r25, 0x0424
     858:	89 2b       	or	r24, r25
     85a:	71 f4       	brne	.+28     	; 0x878 <fdevopen+0x88>
     85c:	f0 93 24 04 	sts	0x0424, r31
     860:	e0 93 23 04 	sts	0x0423, r30
     864:	80 91 25 04 	lds	r24, 0x0425
     868:	90 91 26 04 	lds	r25, 0x0426
     86c:	89 2b       	or	r24, r25
     86e:	21 f4       	brne	.+8      	; 0x878 <fdevopen+0x88>
     870:	f0 93 26 04 	sts	0x0426, r31
     874:	e0 93 25 04 	sts	0x0425, r30
     878:	cf 01       	movw	r24, r30
     87a:	df 91       	pop	r29
     87c:	cf 91       	pop	r28
     87e:	1f 91       	pop	r17
     880:	0f 91       	pop	r16
     882:	08 95       	ret

00000884 <printf>:
     884:	cf 93       	push	r28
     886:	df 93       	push	r29
     888:	cd b7       	in	r28, 0x3d	; 61
     88a:	de b7       	in	r29, 0x3e	; 62
     88c:	fe 01       	movw	r30, r28
     88e:	36 96       	adiw	r30, 0x06	; 6
     890:	61 91       	ld	r22, Z+
     892:	71 91       	ld	r23, Z+
     894:	af 01       	movw	r20, r30
     896:	80 91 23 04 	lds	r24, 0x0423
     89a:	90 91 24 04 	lds	r25, 0x0424
     89e:	30 d0       	rcall	.+96     	; 0x900 <vfprintf>
     8a0:	df 91       	pop	r29
     8a2:	cf 91       	pop	r28
     8a4:	08 95       	ret

000008a6 <puts>:
     8a6:	0f 93       	push	r16
     8a8:	1f 93       	push	r17
     8aa:	cf 93       	push	r28
     8ac:	df 93       	push	r29
     8ae:	e0 91 23 04 	lds	r30, 0x0423
     8b2:	f0 91 24 04 	lds	r31, 0x0424
     8b6:	23 81       	ldd	r18, Z+3	; 0x03
     8b8:	21 ff       	sbrs	r18, 1
     8ba:	1b c0       	rjmp	.+54     	; 0x8f2 <puts+0x4c>
     8bc:	ec 01       	movw	r28, r24
     8be:	00 e0       	ldi	r16, 0x00	; 0
     8c0:	10 e0       	ldi	r17, 0x00	; 0
     8c2:	89 91       	ld	r24, Y+
     8c4:	60 91 23 04 	lds	r22, 0x0423
     8c8:	70 91 24 04 	lds	r23, 0x0424
     8cc:	db 01       	movw	r26, r22
     8ce:	18 96       	adiw	r26, 0x08	; 8
     8d0:	ed 91       	ld	r30, X+
     8d2:	fc 91       	ld	r31, X
     8d4:	19 97       	sbiw	r26, 0x09	; 9
     8d6:	88 23       	and	r24, r24
     8d8:	31 f0       	breq	.+12     	; 0x8e6 <puts+0x40>
     8da:	19 95       	eicall
     8dc:	89 2b       	or	r24, r25
     8de:	89 f3       	breq	.-30     	; 0x8c2 <puts+0x1c>
     8e0:	0f ef       	ldi	r16, 0xFF	; 255
     8e2:	1f ef       	ldi	r17, 0xFF	; 255
     8e4:	ee cf       	rjmp	.-36     	; 0x8c2 <puts+0x1c>
     8e6:	8a e0       	ldi	r24, 0x0A	; 10
     8e8:	19 95       	eicall
     8ea:	89 2b       	or	r24, r25
     8ec:	11 f4       	brne	.+4      	; 0x8f2 <puts+0x4c>
     8ee:	c8 01       	movw	r24, r16
     8f0:	02 c0       	rjmp	.+4      	; 0x8f6 <puts+0x50>
     8f2:	8f ef       	ldi	r24, 0xFF	; 255
     8f4:	9f ef       	ldi	r25, 0xFF	; 255
     8f6:	df 91       	pop	r29
     8f8:	cf 91       	pop	r28
     8fa:	1f 91       	pop	r17
     8fc:	0f 91       	pop	r16
     8fe:	08 95       	ret

00000900 <vfprintf>:
     900:	2f 92       	push	r2
     902:	3f 92       	push	r3
     904:	4f 92       	push	r4
     906:	5f 92       	push	r5
     908:	6f 92       	push	r6
     90a:	7f 92       	push	r7
     90c:	8f 92       	push	r8
     90e:	9f 92       	push	r9
     910:	af 92       	push	r10
     912:	bf 92       	push	r11
     914:	cf 92       	push	r12
     916:	df 92       	push	r13
     918:	ef 92       	push	r14
     91a:	ff 92       	push	r15
     91c:	0f 93       	push	r16
     91e:	1f 93       	push	r17
     920:	cf 93       	push	r28
     922:	df 93       	push	r29
     924:	cd b7       	in	r28, 0x3d	; 61
     926:	de b7       	in	r29, 0x3e	; 62
     928:	2c 97       	sbiw	r28, 0x0c	; 12
     92a:	0f b6       	in	r0, 0x3f	; 63
     92c:	f8 94       	cli
     92e:	de bf       	out	0x3e, r29	; 62
     930:	0f be       	out	0x3f, r0	; 63
     932:	cd bf       	out	0x3d, r28	; 61
     934:	7c 01       	movw	r14, r24
     936:	6b 01       	movw	r12, r22
     938:	8a 01       	movw	r16, r20
     93a:	fc 01       	movw	r30, r24
     93c:	17 82       	std	Z+7, r1	; 0x07
     93e:	16 82       	std	Z+6, r1	; 0x06
     940:	83 81       	ldd	r24, Z+3	; 0x03
     942:	81 ff       	sbrs	r24, 1
     944:	b0 c1       	rjmp	.+864    	; 0xca6 <vfprintf+0x3a6>
     946:	ce 01       	movw	r24, r28
     948:	01 96       	adiw	r24, 0x01	; 1
     94a:	4c 01       	movw	r8, r24
     94c:	f7 01       	movw	r30, r14
     94e:	93 81       	ldd	r25, Z+3	; 0x03
     950:	f6 01       	movw	r30, r12
     952:	93 fd       	sbrc	r25, 3
     954:	85 91       	lpm	r24, Z+
     956:	93 ff       	sbrs	r25, 3
     958:	81 91       	ld	r24, Z+
     95a:	6f 01       	movw	r12, r30
     95c:	88 23       	and	r24, r24
     95e:	09 f4       	brne	.+2      	; 0x962 <vfprintf+0x62>
     960:	9e c1       	rjmp	.+828    	; 0xc9e <vfprintf+0x39e>
     962:	85 32       	cpi	r24, 0x25	; 37
     964:	39 f4       	brne	.+14     	; 0x974 <vfprintf+0x74>
     966:	93 fd       	sbrc	r25, 3
     968:	85 91       	lpm	r24, Z+
     96a:	93 ff       	sbrs	r25, 3
     96c:	81 91       	ld	r24, Z+
     96e:	6f 01       	movw	r12, r30
     970:	85 32       	cpi	r24, 0x25	; 37
     972:	21 f4       	brne	.+8      	; 0x97c <vfprintf+0x7c>
     974:	b7 01       	movw	r22, r14
     976:	90 e0       	ldi	r25, 0x00	; 0
     978:	0f d3       	rcall	.+1566   	; 0xf98 <fputc>
     97a:	e8 cf       	rjmp	.-48     	; 0x94c <vfprintf+0x4c>
     97c:	51 2c       	mov	r5, r1
     97e:	31 2c       	mov	r3, r1
     980:	20 e0       	ldi	r18, 0x00	; 0
     982:	20 32       	cpi	r18, 0x20	; 32
     984:	a0 f4       	brcc	.+40     	; 0x9ae <vfprintf+0xae>
     986:	8b 32       	cpi	r24, 0x2B	; 43
     988:	69 f0       	breq	.+26     	; 0x9a4 <vfprintf+0xa4>
     98a:	30 f4       	brcc	.+12     	; 0x998 <vfprintf+0x98>
     98c:	80 32       	cpi	r24, 0x20	; 32
     98e:	59 f0       	breq	.+22     	; 0x9a6 <vfprintf+0xa6>
     990:	83 32       	cpi	r24, 0x23	; 35
     992:	69 f4       	brne	.+26     	; 0x9ae <vfprintf+0xae>
     994:	20 61       	ori	r18, 0x10	; 16
     996:	2c c0       	rjmp	.+88     	; 0x9f0 <vfprintf+0xf0>
     998:	8d 32       	cpi	r24, 0x2D	; 45
     99a:	39 f0       	breq	.+14     	; 0x9aa <vfprintf+0xaa>
     99c:	80 33       	cpi	r24, 0x30	; 48
     99e:	39 f4       	brne	.+14     	; 0x9ae <vfprintf+0xae>
     9a0:	21 60       	ori	r18, 0x01	; 1
     9a2:	26 c0       	rjmp	.+76     	; 0x9f0 <vfprintf+0xf0>
     9a4:	22 60       	ori	r18, 0x02	; 2
     9a6:	24 60       	ori	r18, 0x04	; 4
     9a8:	23 c0       	rjmp	.+70     	; 0x9f0 <vfprintf+0xf0>
     9aa:	28 60       	ori	r18, 0x08	; 8
     9ac:	21 c0       	rjmp	.+66     	; 0x9f0 <vfprintf+0xf0>
     9ae:	27 fd       	sbrc	r18, 7
     9b0:	27 c0       	rjmp	.+78     	; 0xa00 <vfprintf+0x100>
     9b2:	30 ed       	ldi	r19, 0xD0	; 208
     9b4:	38 0f       	add	r19, r24
     9b6:	3a 30       	cpi	r19, 0x0A	; 10
     9b8:	78 f4       	brcc	.+30     	; 0x9d8 <vfprintf+0xd8>
     9ba:	26 ff       	sbrs	r18, 6
     9bc:	06 c0       	rjmp	.+12     	; 0x9ca <vfprintf+0xca>
     9be:	fa e0       	ldi	r31, 0x0A	; 10
     9c0:	5f 9e       	mul	r5, r31
     9c2:	30 0d       	add	r19, r0
     9c4:	11 24       	eor	r1, r1
     9c6:	53 2e       	mov	r5, r19
     9c8:	13 c0       	rjmp	.+38     	; 0x9f0 <vfprintf+0xf0>
     9ca:	8a e0       	ldi	r24, 0x0A	; 10
     9cc:	38 9e       	mul	r3, r24
     9ce:	30 0d       	add	r19, r0
     9d0:	11 24       	eor	r1, r1
     9d2:	33 2e       	mov	r3, r19
     9d4:	20 62       	ori	r18, 0x20	; 32
     9d6:	0c c0       	rjmp	.+24     	; 0x9f0 <vfprintf+0xf0>
     9d8:	8e 32       	cpi	r24, 0x2E	; 46
     9da:	21 f4       	brne	.+8      	; 0x9e4 <vfprintf+0xe4>
     9dc:	26 fd       	sbrc	r18, 6
     9de:	5f c1       	rjmp	.+702    	; 0xc9e <vfprintf+0x39e>
     9e0:	20 64       	ori	r18, 0x40	; 64
     9e2:	06 c0       	rjmp	.+12     	; 0x9f0 <vfprintf+0xf0>
     9e4:	8c 36       	cpi	r24, 0x6C	; 108
     9e6:	11 f4       	brne	.+4      	; 0x9ec <vfprintf+0xec>
     9e8:	20 68       	ori	r18, 0x80	; 128
     9ea:	02 c0       	rjmp	.+4      	; 0x9f0 <vfprintf+0xf0>
     9ec:	88 36       	cpi	r24, 0x68	; 104
     9ee:	41 f4       	brne	.+16     	; 0xa00 <vfprintf+0x100>
     9f0:	f6 01       	movw	r30, r12
     9f2:	93 fd       	sbrc	r25, 3
     9f4:	85 91       	lpm	r24, Z+
     9f6:	93 ff       	sbrs	r25, 3
     9f8:	81 91       	ld	r24, Z+
     9fa:	6f 01       	movw	r12, r30
     9fc:	81 11       	cpse	r24, r1
     9fe:	c1 cf       	rjmp	.-126    	; 0x982 <vfprintf+0x82>
     a00:	98 2f       	mov	r25, r24
     a02:	9f 7d       	andi	r25, 0xDF	; 223
     a04:	95 54       	subi	r25, 0x45	; 69
     a06:	93 30       	cpi	r25, 0x03	; 3
     a08:	28 f4       	brcc	.+10     	; 0xa14 <vfprintf+0x114>
     a0a:	0c 5f       	subi	r16, 0xFC	; 252
     a0c:	1f 4f       	sbci	r17, 0xFF	; 255
     a0e:	ff e3       	ldi	r31, 0x3F	; 63
     a10:	f9 83       	std	Y+1, r31	; 0x01
     a12:	0d c0       	rjmp	.+26     	; 0xa2e <vfprintf+0x12e>
     a14:	83 36       	cpi	r24, 0x63	; 99
     a16:	31 f0       	breq	.+12     	; 0xa24 <vfprintf+0x124>
     a18:	83 37       	cpi	r24, 0x73	; 115
     a1a:	71 f0       	breq	.+28     	; 0xa38 <vfprintf+0x138>
     a1c:	83 35       	cpi	r24, 0x53	; 83
     a1e:	09 f0       	breq	.+2      	; 0xa22 <vfprintf+0x122>
     a20:	57 c0       	rjmp	.+174    	; 0xad0 <vfprintf+0x1d0>
     a22:	21 c0       	rjmp	.+66     	; 0xa66 <vfprintf+0x166>
     a24:	f8 01       	movw	r30, r16
     a26:	80 81       	ld	r24, Z
     a28:	89 83       	std	Y+1, r24	; 0x01
     a2a:	0e 5f       	subi	r16, 0xFE	; 254
     a2c:	1f 4f       	sbci	r17, 0xFF	; 255
     a2e:	44 24       	eor	r4, r4
     a30:	43 94       	inc	r4
     a32:	51 2c       	mov	r5, r1
     a34:	54 01       	movw	r10, r8
     a36:	14 c0       	rjmp	.+40     	; 0xa60 <vfprintf+0x160>
     a38:	38 01       	movw	r6, r16
     a3a:	f2 e0       	ldi	r31, 0x02	; 2
     a3c:	6f 0e       	add	r6, r31
     a3e:	71 1c       	adc	r7, r1
     a40:	f8 01       	movw	r30, r16
     a42:	a0 80       	ld	r10, Z
     a44:	b1 80       	ldd	r11, Z+1	; 0x01
     a46:	26 ff       	sbrs	r18, 6
     a48:	03 c0       	rjmp	.+6      	; 0xa50 <vfprintf+0x150>
     a4a:	65 2d       	mov	r22, r5
     a4c:	70 e0       	ldi	r23, 0x00	; 0
     a4e:	02 c0       	rjmp	.+4      	; 0xa54 <vfprintf+0x154>
     a50:	6f ef       	ldi	r22, 0xFF	; 255
     a52:	7f ef       	ldi	r23, 0xFF	; 255
     a54:	c5 01       	movw	r24, r10
     a56:	2c 87       	std	Y+12, r18	; 0x0c
     a58:	94 d2       	rcall	.+1320   	; 0xf82 <strnlen>
     a5a:	2c 01       	movw	r4, r24
     a5c:	83 01       	movw	r16, r6
     a5e:	2c 85       	ldd	r18, Y+12	; 0x0c
     a60:	2f 77       	andi	r18, 0x7F	; 127
     a62:	22 2e       	mov	r2, r18
     a64:	16 c0       	rjmp	.+44     	; 0xa92 <vfprintf+0x192>
     a66:	38 01       	movw	r6, r16
     a68:	f2 e0       	ldi	r31, 0x02	; 2
     a6a:	6f 0e       	add	r6, r31
     a6c:	71 1c       	adc	r7, r1
     a6e:	f8 01       	movw	r30, r16
     a70:	a0 80       	ld	r10, Z
     a72:	b1 80       	ldd	r11, Z+1	; 0x01
     a74:	26 ff       	sbrs	r18, 6
     a76:	03 c0       	rjmp	.+6      	; 0xa7e <vfprintf+0x17e>
     a78:	65 2d       	mov	r22, r5
     a7a:	70 e0       	ldi	r23, 0x00	; 0
     a7c:	02 c0       	rjmp	.+4      	; 0xa82 <vfprintf+0x182>
     a7e:	6f ef       	ldi	r22, 0xFF	; 255
     a80:	7f ef       	ldi	r23, 0xFF	; 255
     a82:	c5 01       	movw	r24, r10
     a84:	2c 87       	std	Y+12, r18	; 0x0c
     a86:	6b d2       	rcall	.+1238   	; 0xf5e <strnlen_P>
     a88:	2c 01       	movw	r4, r24
     a8a:	2c 85       	ldd	r18, Y+12	; 0x0c
     a8c:	20 68       	ori	r18, 0x80	; 128
     a8e:	22 2e       	mov	r2, r18
     a90:	83 01       	movw	r16, r6
     a92:	23 fc       	sbrc	r2, 3
     a94:	19 c0       	rjmp	.+50     	; 0xac8 <vfprintf+0x1c8>
     a96:	83 2d       	mov	r24, r3
     a98:	90 e0       	ldi	r25, 0x00	; 0
     a9a:	48 16       	cp	r4, r24
     a9c:	59 06       	cpc	r5, r25
     a9e:	a0 f4       	brcc	.+40     	; 0xac8 <vfprintf+0x1c8>
     aa0:	b7 01       	movw	r22, r14
     aa2:	80 e2       	ldi	r24, 0x20	; 32
     aa4:	90 e0       	ldi	r25, 0x00	; 0
     aa6:	78 d2       	rcall	.+1264   	; 0xf98 <fputc>
     aa8:	3a 94       	dec	r3
     aaa:	f5 cf       	rjmp	.-22     	; 0xa96 <vfprintf+0x196>
     aac:	f5 01       	movw	r30, r10
     aae:	27 fc       	sbrc	r2, 7
     ab0:	85 91       	lpm	r24, Z+
     ab2:	27 fe       	sbrs	r2, 7
     ab4:	81 91       	ld	r24, Z+
     ab6:	5f 01       	movw	r10, r30
     ab8:	b7 01       	movw	r22, r14
     aba:	90 e0       	ldi	r25, 0x00	; 0
     abc:	6d d2       	rcall	.+1242   	; 0xf98 <fputc>
     abe:	31 10       	cpse	r3, r1
     ac0:	3a 94       	dec	r3
     ac2:	f1 e0       	ldi	r31, 0x01	; 1
     ac4:	4f 1a       	sub	r4, r31
     ac6:	51 08       	sbc	r5, r1
     ac8:	41 14       	cp	r4, r1
     aca:	51 04       	cpc	r5, r1
     acc:	79 f7       	brne	.-34     	; 0xaac <vfprintf+0x1ac>
     ace:	de c0       	rjmp	.+444    	; 0xc8c <vfprintf+0x38c>
     ad0:	84 36       	cpi	r24, 0x64	; 100
     ad2:	11 f0       	breq	.+4      	; 0xad8 <vfprintf+0x1d8>
     ad4:	89 36       	cpi	r24, 0x69	; 105
     ad6:	31 f5       	brne	.+76     	; 0xb24 <vfprintf+0x224>
     ad8:	f8 01       	movw	r30, r16
     ada:	27 ff       	sbrs	r18, 7
     adc:	07 c0       	rjmp	.+14     	; 0xaec <vfprintf+0x1ec>
     ade:	60 81       	ld	r22, Z
     ae0:	71 81       	ldd	r23, Z+1	; 0x01
     ae2:	82 81       	ldd	r24, Z+2	; 0x02
     ae4:	93 81       	ldd	r25, Z+3	; 0x03
     ae6:	0c 5f       	subi	r16, 0xFC	; 252
     ae8:	1f 4f       	sbci	r17, 0xFF	; 255
     aea:	08 c0       	rjmp	.+16     	; 0xafc <vfprintf+0x1fc>
     aec:	60 81       	ld	r22, Z
     aee:	71 81       	ldd	r23, Z+1	; 0x01
     af0:	88 27       	eor	r24, r24
     af2:	77 fd       	sbrc	r23, 7
     af4:	80 95       	com	r24
     af6:	98 2f       	mov	r25, r24
     af8:	0e 5f       	subi	r16, 0xFE	; 254
     afa:	1f 4f       	sbci	r17, 0xFF	; 255
     afc:	2f 76       	andi	r18, 0x6F	; 111
     afe:	b2 2e       	mov	r11, r18
     b00:	97 ff       	sbrs	r25, 7
     b02:	09 c0       	rjmp	.+18     	; 0xb16 <vfprintf+0x216>
     b04:	90 95       	com	r25
     b06:	80 95       	com	r24
     b08:	70 95       	com	r23
     b0a:	61 95       	neg	r22
     b0c:	7f 4f       	sbci	r23, 0xFF	; 255
     b0e:	8f 4f       	sbci	r24, 0xFF	; 255
     b10:	9f 4f       	sbci	r25, 0xFF	; 255
     b12:	20 68       	ori	r18, 0x80	; 128
     b14:	b2 2e       	mov	r11, r18
     b16:	2a e0       	ldi	r18, 0x0A	; 10
     b18:	30 e0       	ldi	r19, 0x00	; 0
     b1a:	a4 01       	movw	r20, r8
     b1c:	6f d2       	rcall	.+1246   	; 0xffc <__ultoa_invert>
     b1e:	a8 2e       	mov	r10, r24
     b20:	a8 18       	sub	r10, r8
     b22:	43 c0       	rjmp	.+134    	; 0xbaa <vfprintf+0x2aa>
     b24:	85 37       	cpi	r24, 0x75	; 117
     b26:	29 f4       	brne	.+10     	; 0xb32 <vfprintf+0x232>
     b28:	2f 7e       	andi	r18, 0xEF	; 239
     b2a:	b2 2e       	mov	r11, r18
     b2c:	2a e0       	ldi	r18, 0x0A	; 10
     b2e:	30 e0       	ldi	r19, 0x00	; 0
     b30:	25 c0       	rjmp	.+74     	; 0xb7c <vfprintf+0x27c>
     b32:	f2 2f       	mov	r31, r18
     b34:	f9 7f       	andi	r31, 0xF9	; 249
     b36:	bf 2e       	mov	r11, r31
     b38:	8f 36       	cpi	r24, 0x6F	; 111
     b3a:	c1 f0       	breq	.+48     	; 0xb6c <vfprintf+0x26c>
     b3c:	18 f4       	brcc	.+6      	; 0xb44 <vfprintf+0x244>
     b3e:	88 35       	cpi	r24, 0x58	; 88
     b40:	79 f0       	breq	.+30     	; 0xb60 <vfprintf+0x260>
     b42:	ad c0       	rjmp	.+346    	; 0xc9e <vfprintf+0x39e>
     b44:	80 37       	cpi	r24, 0x70	; 112
     b46:	19 f0       	breq	.+6      	; 0xb4e <vfprintf+0x24e>
     b48:	88 37       	cpi	r24, 0x78	; 120
     b4a:	21 f0       	breq	.+8      	; 0xb54 <vfprintf+0x254>
     b4c:	a8 c0       	rjmp	.+336    	; 0xc9e <vfprintf+0x39e>
     b4e:	2f 2f       	mov	r18, r31
     b50:	20 61       	ori	r18, 0x10	; 16
     b52:	b2 2e       	mov	r11, r18
     b54:	b4 fe       	sbrs	r11, 4
     b56:	0d c0       	rjmp	.+26     	; 0xb72 <vfprintf+0x272>
     b58:	8b 2d       	mov	r24, r11
     b5a:	84 60       	ori	r24, 0x04	; 4
     b5c:	b8 2e       	mov	r11, r24
     b5e:	09 c0       	rjmp	.+18     	; 0xb72 <vfprintf+0x272>
     b60:	24 ff       	sbrs	r18, 4
     b62:	0a c0       	rjmp	.+20     	; 0xb78 <vfprintf+0x278>
     b64:	9f 2f       	mov	r25, r31
     b66:	96 60       	ori	r25, 0x06	; 6
     b68:	b9 2e       	mov	r11, r25
     b6a:	06 c0       	rjmp	.+12     	; 0xb78 <vfprintf+0x278>
     b6c:	28 e0       	ldi	r18, 0x08	; 8
     b6e:	30 e0       	ldi	r19, 0x00	; 0
     b70:	05 c0       	rjmp	.+10     	; 0xb7c <vfprintf+0x27c>
     b72:	20 e1       	ldi	r18, 0x10	; 16
     b74:	30 e0       	ldi	r19, 0x00	; 0
     b76:	02 c0       	rjmp	.+4      	; 0xb7c <vfprintf+0x27c>
     b78:	20 e1       	ldi	r18, 0x10	; 16
     b7a:	32 e0       	ldi	r19, 0x02	; 2
     b7c:	f8 01       	movw	r30, r16
     b7e:	b7 fe       	sbrs	r11, 7
     b80:	07 c0       	rjmp	.+14     	; 0xb90 <vfprintf+0x290>
     b82:	60 81       	ld	r22, Z
     b84:	71 81       	ldd	r23, Z+1	; 0x01
     b86:	82 81       	ldd	r24, Z+2	; 0x02
     b88:	93 81       	ldd	r25, Z+3	; 0x03
     b8a:	0c 5f       	subi	r16, 0xFC	; 252
     b8c:	1f 4f       	sbci	r17, 0xFF	; 255
     b8e:	06 c0       	rjmp	.+12     	; 0xb9c <vfprintf+0x29c>
     b90:	60 81       	ld	r22, Z
     b92:	71 81       	ldd	r23, Z+1	; 0x01
     b94:	80 e0       	ldi	r24, 0x00	; 0
     b96:	90 e0       	ldi	r25, 0x00	; 0
     b98:	0e 5f       	subi	r16, 0xFE	; 254
     b9a:	1f 4f       	sbci	r17, 0xFF	; 255
     b9c:	a4 01       	movw	r20, r8
     b9e:	2e d2       	rcall	.+1116   	; 0xffc <__ultoa_invert>
     ba0:	a8 2e       	mov	r10, r24
     ba2:	a8 18       	sub	r10, r8
     ba4:	fb 2d       	mov	r31, r11
     ba6:	ff 77       	andi	r31, 0x7F	; 127
     ba8:	bf 2e       	mov	r11, r31
     baa:	b6 fe       	sbrs	r11, 6
     bac:	0b c0       	rjmp	.+22     	; 0xbc4 <vfprintf+0x2c4>
     bae:	2b 2d       	mov	r18, r11
     bb0:	2e 7f       	andi	r18, 0xFE	; 254
     bb2:	a5 14       	cp	r10, r5
     bb4:	50 f4       	brcc	.+20     	; 0xbca <vfprintf+0x2ca>
     bb6:	b4 fe       	sbrs	r11, 4
     bb8:	0a c0       	rjmp	.+20     	; 0xbce <vfprintf+0x2ce>
     bba:	b2 fc       	sbrc	r11, 2
     bbc:	08 c0       	rjmp	.+16     	; 0xbce <vfprintf+0x2ce>
     bbe:	2b 2d       	mov	r18, r11
     bc0:	2e 7e       	andi	r18, 0xEE	; 238
     bc2:	05 c0       	rjmp	.+10     	; 0xbce <vfprintf+0x2ce>
     bc4:	7a 2c       	mov	r7, r10
     bc6:	2b 2d       	mov	r18, r11
     bc8:	03 c0       	rjmp	.+6      	; 0xbd0 <vfprintf+0x2d0>
     bca:	7a 2c       	mov	r7, r10
     bcc:	01 c0       	rjmp	.+2      	; 0xbd0 <vfprintf+0x2d0>
     bce:	75 2c       	mov	r7, r5
     bd0:	24 ff       	sbrs	r18, 4
     bd2:	0d c0       	rjmp	.+26     	; 0xbee <vfprintf+0x2ee>
     bd4:	fe 01       	movw	r30, r28
     bd6:	ea 0d       	add	r30, r10
     bd8:	f1 1d       	adc	r31, r1
     bda:	80 81       	ld	r24, Z
     bdc:	80 33       	cpi	r24, 0x30	; 48
     bde:	11 f4       	brne	.+4      	; 0xbe4 <vfprintf+0x2e4>
     be0:	29 7e       	andi	r18, 0xE9	; 233
     be2:	09 c0       	rjmp	.+18     	; 0xbf6 <vfprintf+0x2f6>
     be4:	22 ff       	sbrs	r18, 2
     be6:	06 c0       	rjmp	.+12     	; 0xbf4 <vfprintf+0x2f4>
     be8:	73 94       	inc	r7
     bea:	73 94       	inc	r7
     bec:	04 c0       	rjmp	.+8      	; 0xbf6 <vfprintf+0x2f6>
     bee:	82 2f       	mov	r24, r18
     bf0:	86 78       	andi	r24, 0x86	; 134
     bf2:	09 f0       	breq	.+2      	; 0xbf6 <vfprintf+0x2f6>
     bf4:	73 94       	inc	r7
     bf6:	23 fd       	sbrc	r18, 3
     bf8:	12 c0       	rjmp	.+36     	; 0xc1e <vfprintf+0x31e>
     bfa:	20 ff       	sbrs	r18, 0
     bfc:	06 c0       	rjmp	.+12     	; 0xc0a <vfprintf+0x30a>
     bfe:	5a 2c       	mov	r5, r10
     c00:	73 14       	cp	r7, r3
     c02:	18 f4       	brcc	.+6      	; 0xc0a <vfprintf+0x30a>
     c04:	53 0c       	add	r5, r3
     c06:	57 18       	sub	r5, r7
     c08:	73 2c       	mov	r7, r3
     c0a:	73 14       	cp	r7, r3
     c0c:	60 f4       	brcc	.+24     	; 0xc26 <vfprintf+0x326>
     c0e:	b7 01       	movw	r22, r14
     c10:	80 e2       	ldi	r24, 0x20	; 32
     c12:	90 e0       	ldi	r25, 0x00	; 0
     c14:	2c 87       	std	Y+12, r18	; 0x0c
     c16:	c0 d1       	rcall	.+896    	; 0xf98 <fputc>
     c18:	73 94       	inc	r7
     c1a:	2c 85       	ldd	r18, Y+12	; 0x0c
     c1c:	f6 cf       	rjmp	.-20     	; 0xc0a <vfprintf+0x30a>
     c1e:	73 14       	cp	r7, r3
     c20:	10 f4       	brcc	.+4      	; 0xc26 <vfprintf+0x326>
     c22:	37 18       	sub	r3, r7
     c24:	01 c0       	rjmp	.+2      	; 0xc28 <vfprintf+0x328>
     c26:	31 2c       	mov	r3, r1
     c28:	24 ff       	sbrs	r18, 4
     c2a:	11 c0       	rjmp	.+34     	; 0xc4e <vfprintf+0x34e>
     c2c:	b7 01       	movw	r22, r14
     c2e:	80 e3       	ldi	r24, 0x30	; 48
     c30:	90 e0       	ldi	r25, 0x00	; 0
     c32:	2c 87       	std	Y+12, r18	; 0x0c
     c34:	b1 d1       	rcall	.+866    	; 0xf98 <fputc>
     c36:	2c 85       	ldd	r18, Y+12	; 0x0c
     c38:	22 ff       	sbrs	r18, 2
     c3a:	16 c0       	rjmp	.+44     	; 0xc68 <vfprintf+0x368>
     c3c:	21 ff       	sbrs	r18, 1
     c3e:	03 c0       	rjmp	.+6      	; 0xc46 <vfprintf+0x346>
     c40:	88 e5       	ldi	r24, 0x58	; 88
     c42:	90 e0       	ldi	r25, 0x00	; 0
     c44:	02 c0       	rjmp	.+4      	; 0xc4a <vfprintf+0x34a>
     c46:	88 e7       	ldi	r24, 0x78	; 120
     c48:	90 e0       	ldi	r25, 0x00	; 0
     c4a:	b7 01       	movw	r22, r14
     c4c:	0c c0       	rjmp	.+24     	; 0xc66 <vfprintf+0x366>
     c4e:	82 2f       	mov	r24, r18
     c50:	86 78       	andi	r24, 0x86	; 134
     c52:	51 f0       	breq	.+20     	; 0xc68 <vfprintf+0x368>
     c54:	21 fd       	sbrc	r18, 1
     c56:	02 c0       	rjmp	.+4      	; 0xc5c <vfprintf+0x35c>
     c58:	80 e2       	ldi	r24, 0x20	; 32
     c5a:	01 c0       	rjmp	.+2      	; 0xc5e <vfprintf+0x35e>
     c5c:	8b e2       	ldi	r24, 0x2B	; 43
     c5e:	27 fd       	sbrc	r18, 7
     c60:	8d e2       	ldi	r24, 0x2D	; 45
     c62:	b7 01       	movw	r22, r14
     c64:	90 e0       	ldi	r25, 0x00	; 0
     c66:	98 d1       	rcall	.+816    	; 0xf98 <fputc>
     c68:	a5 14       	cp	r10, r5
     c6a:	30 f4       	brcc	.+12     	; 0xc78 <vfprintf+0x378>
     c6c:	b7 01       	movw	r22, r14
     c6e:	80 e3       	ldi	r24, 0x30	; 48
     c70:	90 e0       	ldi	r25, 0x00	; 0
     c72:	92 d1       	rcall	.+804    	; 0xf98 <fputc>
     c74:	5a 94       	dec	r5
     c76:	f8 cf       	rjmp	.-16     	; 0xc68 <vfprintf+0x368>
     c78:	aa 94       	dec	r10
     c7a:	f4 01       	movw	r30, r8
     c7c:	ea 0d       	add	r30, r10
     c7e:	f1 1d       	adc	r31, r1
     c80:	80 81       	ld	r24, Z
     c82:	b7 01       	movw	r22, r14
     c84:	90 e0       	ldi	r25, 0x00	; 0
     c86:	88 d1       	rcall	.+784    	; 0xf98 <fputc>
     c88:	a1 10       	cpse	r10, r1
     c8a:	f6 cf       	rjmp	.-20     	; 0xc78 <vfprintf+0x378>
     c8c:	33 20       	and	r3, r3
     c8e:	09 f4       	brne	.+2      	; 0xc92 <vfprintf+0x392>
     c90:	5d ce       	rjmp	.-838    	; 0x94c <vfprintf+0x4c>
     c92:	b7 01       	movw	r22, r14
     c94:	80 e2       	ldi	r24, 0x20	; 32
     c96:	90 e0       	ldi	r25, 0x00	; 0
     c98:	7f d1       	rcall	.+766    	; 0xf98 <fputc>
     c9a:	3a 94       	dec	r3
     c9c:	f7 cf       	rjmp	.-18     	; 0xc8c <vfprintf+0x38c>
     c9e:	f7 01       	movw	r30, r14
     ca0:	86 81       	ldd	r24, Z+6	; 0x06
     ca2:	97 81       	ldd	r25, Z+7	; 0x07
     ca4:	02 c0       	rjmp	.+4      	; 0xcaa <vfprintf+0x3aa>
     ca6:	8f ef       	ldi	r24, 0xFF	; 255
     ca8:	9f ef       	ldi	r25, 0xFF	; 255
     caa:	2c 96       	adiw	r28, 0x0c	; 12
     cac:	0f b6       	in	r0, 0x3f	; 63
     cae:	f8 94       	cli
     cb0:	de bf       	out	0x3e, r29	; 62
     cb2:	0f be       	out	0x3f, r0	; 63
     cb4:	cd bf       	out	0x3d, r28	; 61
     cb6:	df 91       	pop	r29
     cb8:	cf 91       	pop	r28
     cba:	1f 91       	pop	r17
     cbc:	0f 91       	pop	r16
     cbe:	ff 90       	pop	r15
     cc0:	ef 90       	pop	r14
     cc2:	df 90       	pop	r13
     cc4:	cf 90       	pop	r12
     cc6:	bf 90       	pop	r11
     cc8:	af 90       	pop	r10
     cca:	9f 90       	pop	r9
     ccc:	8f 90       	pop	r8
     cce:	7f 90       	pop	r7
     cd0:	6f 90       	pop	r6
     cd2:	5f 90       	pop	r5
     cd4:	4f 90       	pop	r4
     cd6:	3f 90       	pop	r3
     cd8:	2f 90       	pop	r2
     cda:	08 95       	ret

00000cdc <calloc>:
     cdc:	0f 93       	push	r16
     cde:	1f 93       	push	r17
     ce0:	cf 93       	push	r28
     ce2:	df 93       	push	r29
     ce4:	86 9f       	mul	r24, r22
     ce6:	80 01       	movw	r16, r0
     ce8:	87 9f       	mul	r24, r23
     cea:	10 0d       	add	r17, r0
     cec:	96 9f       	mul	r25, r22
     cee:	10 0d       	add	r17, r0
     cf0:	11 24       	eor	r1, r1
     cf2:	c8 01       	movw	r24, r16
     cf4:	0d d0       	rcall	.+26     	; 0xd10 <malloc>
     cf6:	ec 01       	movw	r28, r24
     cf8:	00 97       	sbiw	r24, 0x00	; 0
     cfa:	21 f0       	breq	.+8      	; 0xd04 <calloc+0x28>
     cfc:	a8 01       	movw	r20, r16
     cfe:	60 e0       	ldi	r22, 0x00	; 0
     d00:	70 e0       	ldi	r23, 0x00	; 0
     d02:	38 d1       	rcall	.+624    	; 0xf74 <memset>
     d04:	ce 01       	movw	r24, r28
     d06:	df 91       	pop	r29
     d08:	cf 91       	pop	r28
     d0a:	1f 91       	pop	r17
     d0c:	0f 91       	pop	r16
     d0e:	08 95       	ret

00000d10 <malloc>:
     d10:	cf 93       	push	r28
     d12:	df 93       	push	r29
     d14:	82 30       	cpi	r24, 0x02	; 2
     d16:	91 05       	cpc	r25, r1
     d18:	10 f4       	brcc	.+4      	; 0xd1e <malloc+0xe>
     d1a:	82 e0       	ldi	r24, 0x02	; 2
     d1c:	90 e0       	ldi	r25, 0x00	; 0
     d1e:	e0 91 29 04 	lds	r30, 0x0429
     d22:	f0 91 2a 04 	lds	r31, 0x042A
     d26:	20 e0       	ldi	r18, 0x00	; 0
     d28:	30 e0       	ldi	r19, 0x00	; 0
     d2a:	a0 e0       	ldi	r26, 0x00	; 0
     d2c:	b0 e0       	ldi	r27, 0x00	; 0
     d2e:	30 97       	sbiw	r30, 0x00	; 0
     d30:	39 f1       	breq	.+78     	; 0xd80 <malloc+0x70>
     d32:	40 81       	ld	r20, Z
     d34:	51 81       	ldd	r21, Z+1	; 0x01
     d36:	48 17       	cp	r20, r24
     d38:	59 07       	cpc	r21, r25
     d3a:	b8 f0       	brcs	.+46     	; 0xd6a <malloc+0x5a>
     d3c:	48 17       	cp	r20, r24
     d3e:	59 07       	cpc	r21, r25
     d40:	71 f4       	brne	.+28     	; 0xd5e <malloc+0x4e>
     d42:	82 81       	ldd	r24, Z+2	; 0x02
     d44:	93 81       	ldd	r25, Z+3	; 0x03
     d46:	10 97       	sbiw	r26, 0x00	; 0
     d48:	29 f0       	breq	.+10     	; 0xd54 <malloc+0x44>
     d4a:	13 96       	adiw	r26, 0x03	; 3
     d4c:	9c 93       	st	X, r25
     d4e:	8e 93       	st	-X, r24
     d50:	12 97       	sbiw	r26, 0x02	; 2
     d52:	2c c0       	rjmp	.+88     	; 0xdac <malloc+0x9c>
     d54:	90 93 2a 04 	sts	0x042A, r25
     d58:	80 93 29 04 	sts	0x0429, r24
     d5c:	27 c0       	rjmp	.+78     	; 0xdac <malloc+0x9c>
     d5e:	21 15       	cp	r18, r1
     d60:	31 05       	cpc	r19, r1
     d62:	31 f0       	breq	.+12     	; 0xd70 <malloc+0x60>
     d64:	42 17       	cp	r20, r18
     d66:	53 07       	cpc	r21, r19
     d68:	18 f0       	brcs	.+6      	; 0xd70 <malloc+0x60>
     d6a:	a9 01       	movw	r20, r18
     d6c:	db 01       	movw	r26, r22
     d6e:	01 c0       	rjmp	.+2      	; 0xd72 <malloc+0x62>
     d70:	ef 01       	movw	r28, r30
     d72:	9a 01       	movw	r18, r20
     d74:	bd 01       	movw	r22, r26
     d76:	df 01       	movw	r26, r30
     d78:	02 80       	ldd	r0, Z+2	; 0x02
     d7a:	f3 81       	ldd	r31, Z+3	; 0x03
     d7c:	e0 2d       	mov	r30, r0
     d7e:	d7 cf       	rjmp	.-82     	; 0xd2e <malloc+0x1e>
     d80:	21 15       	cp	r18, r1
     d82:	31 05       	cpc	r19, r1
     d84:	f9 f0       	breq	.+62     	; 0xdc4 <malloc+0xb4>
     d86:	28 1b       	sub	r18, r24
     d88:	39 0b       	sbc	r19, r25
     d8a:	24 30       	cpi	r18, 0x04	; 4
     d8c:	31 05       	cpc	r19, r1
     d8e:	80 f4       	brcc	.+32     	; 0xdb0 <malloc+0xa0>
     d90:	8a 81       	ldd	r24, Y+2	; 0x02
     d92:	9b 81       	ldd	r25, Y+3	; 0x03
     d94:	61 15       	cp	r22, r1
     d96:	71 05       	cpc	r23, r1
     d98:	21 f0       	breq	.+8      	; 0xda2 <malloc+0x92>
     d9a:	fb 01       	movw	r30, r22
     d9c:	93 83       	std	Z+3, r25	; 0x03
     d9e:	82 83       	std	Z+2, r24	; 0x02
     da0:	04 c0       	rjmp	.+8      	; 0xdaa <malloc+0x9a>
     da2:	90 93 2a 04 	sts	0x042A, r25
     da6:	80 93 29 04 	sts	0x0429, r24
     daa:	fe 01       	movw	r30, r28
     dac:	32 96       	adiw	r30, 0x02	; 2
     dae:	44 c0       	rjmp	.+136    	; 0xe38 <malloc+0x128>
     db0:	fe 01       	movw	r30, r28
     db2:	e2 0f       	add	r30, r18
     db4:	f3 1f       	adc	r31, r19
     db6:	81 93       	st	Z+, r24
     db8:	91 93       	st	Z+, r25
     dba:	22 50       	subi	r18, 0x02	; 2
     dbc:	31 09       	sbc	r19, r1
     dbe:	39 83       	std	Y+1, r19	; 0x01
     dc0:	28 83       	st	Y, r18
     dc2:	3a c0       	rjmp	.+116    	; 0xe38 <malloc+0x128>
     dc4:	20 91 27 04 	lds	r18, 0x0427
     dc8:	30 91 28 04 	lds	r19, 0x0428
     dcc:	23 2b       	or	r18, r19
     dce:	41 f4       	brne	.+16     	; 0xde0 <malloc+0xd0>
     dd0:	20 91 02 02 	lds	r18, 0x0202
     dd4:	30 91 03 02 	lds	r19, 0x0203
     dd8:	30 93 28 04 	sts	0x0428, r19
     ddc:	20 93 27 04 	sts	0x0427, r18
     de0:	20 91 00 02 	lds	r18, 0x0200
     de4:	30 91 01 02 	lds	r19, 0x0201
     de8:	21 15       	cp	r18, r1
     dea:	31 05       	cpc	r19, r1
     dec:	41 f4       	brne	.+16     	; 0xdfe <malloc+0xee>
     dee:	2d b7       	in	r18, 0x3d	; 61
     df0:	3e b7       	in	r19, 0x3e	; 62
     df2:	40 91 04 02 	lds	r20, 0x0204
     df6:	50 91 05 02 	lds	r21, 0x0205
     dfa:	24 1b       	sub	r18, r20
     dfc:	35 0b       	sbc	r19, r21
     dfe:	e0 91 27 04 	lds	r30, 0x0427
     e02:	f0 91 28 04 	lds	r31, 0x0428
     e06:	e2 17       	cp	r30, r18
     e08:	f3 07       	cpc	r31, r19
     e0a:	a0 f4       	brcc	.+40     	; 0xe34 <malloc+0x124>
     e0c:	2e 1b       	sub	r18, r30
     e0e:	3f 0b       	sbc	r19, r31
     e10:	28 17       	cp	r18, r24
     e12:	39 07       	cpc	r19, r25
     e14:	78 f0       	brcs	.+30     	; 0xe34 <malloc+0x124>
     e16:	ac 01       	movw	r20, r24
     e18:	4e 5f       	subi	r20, 0xFE	; 254
     e1a:	5f 4f       	sbci	r21, 0xFF	; 255
     e1c:	24 17       	cp	r18, r20
     e1e:	35 07       	cpc	r19, r21
     e20:	48 f0       	brcs	.+18     	; 0xe34 <malloc+0x124>
     e22:	4e 0f       	add	r20, r30
     e24:	5f 1f       	adc	r21, r31
     e26:	50 93 28 04 	sts	0x0428, r21
     e2a:	40 93 27 04 	sts	0x0427, r20
     e2e:	81 93       	st	Z+, r24
     e30:	91 93       	st	Z+, r25
     e32:	02 c0       	rjmp	.+4      	; 0xe38 <malloc+0x128>
     e34:	e0 e0       	ldi	r30, 0x00	; 0
     e36:	f0 e0       	ldi	r31, 0x00	; 0
     e38:	cf 01       	movw	r24, r30
     e3a:	df 91       	pop	r29
     e3c:	cf 91       	pop	r28
     e3e:	08 95       	ret

00000e40 <free>:
     e40:	cf 93       	push	r28
     e42:	df 93       	push	r29
     e44:	00 97       	sbiw	r24, 0x00	; 0
     e46:	09 f4       	brne	.+2      	; 0xe4a <free+0xa>
     e48:	87 c0       	rjmp	.+270    	; 0xf58 <free+0x118>
     e4a:	fc 01       	movw	r30, r24
     e4c:	32 97       	sbiw	r30, 0x02	; 2
     e4e:	13 82       	std	Z+3, r1	; 0x03
     e50:	12 82       	std	Z+2, r1	; 0x02
     e52:	c0 91 29 04 	lds	r28, 0x0429
     e56:	d0 91 2a 04 	lds	r29, 0x042A
     e5a:	20 97       	sbiw	r28, 0x00	; 0
     e5c:	81 f4       	brne	.+32     	; 0xe7e <free+0x3e>
     e5e:	20 81       	ld	r18, Z
     e60:	31 81       	ldd	r19, Z+1	; 0x01
     e62:	28 0f       	add	r18, r24
     e64:	39 1f       	adc	r19, r25
     e66:	80 91 27 04 	lds	r24, 0x0427
     e6a:	90 91 28 04 	lds	r25, 0x0428
     e6e:	82 17       	cp	r24, r18
     e70:	93 07       	cpc	r25, r19
     e72:	79 f5       	brne	.+94     	; 0xed2 <free+0x92>
     e74:	f0 93 28 04 	sts	0x0428, r31
     e78:	e0 93 27 04 	sts	0x0427, r30
     e7c:	6d c0       	rjmp	.+218    	; 0xf58 <free+0x118>
     e7e:	de 01       	movw	r26, r28
     e80:	20 e0       	ldi	r18, 0x00	; 0
     e82:	30 e0       	ldi	r19, 0x00	; 0
     e84:	ae 17       	cp	r26, r30
     e86:	bf 07       	cpc	r27, r31
     e88:	50 f4       	brcc	.+20     	; 0xe9e <free+0x5e>
     e8a:	12 96       	adiw	r26, 0x02	; 2
     e8c:	4d 91       	ld	r20, X+
     e8e:	5c 91       	ld	r21, X
     e90:	13 97       	sbiw	r26, 0x03	; 3
     e92:	9d 01       	movw	r18, r26
     e94:	41 15       	cp	r20, r1
     e96:	51 05       	cpc	r21, r1
     e98:	09 f1       	breq	.+66     	; 0xedc <free+0x9c>
     e9a:	da 01       	movw	r26, r20
     e9c:	f3 cf       	rjmp	.-26     	; 0xe84 <free+0x44>
     e9e:	b3 83       	std	Z+3, r27	; 0x03
     ea0:	a2 83       	std	Z+2, r26	; 0x02
     ea2:	40 81       	ld	r20, Z
     ea4:	51 81       	ldd	r21, Z+1	; 0x01
     ea6:	84 0f       	add	r24, r20
     ea8:	95 1f       	adc	r25, r21
     eaa:	8a 17       	cp	r24, r26
     eac:	9b 07       	cpc	r25, r27
     eae:	71 f4       	brne	.+28     	; 0xecc <free+0x8c>
     eb0:	8d 91       	ld	r24, X+
     eb2:	9c 91       	ld	r25, X
     eb4:	11 97       	sbiw	r26, 0x01	; 1
     eb6:	84 0f       	add	r24, r20
     eb8:	95 1f       	adc	r25, r21
     eba:	02 96       	adiw	r24, 0x02	; 2
     ebc:	91 83       	std	Z+1, r25	; 0x01
     ebe:	80 83       	st	Z, r24
     ec0:	12 96       	adiw	r26, 0x02	; 2
     ec2:	8d 91       	ld	r24, X+
     ec4:	9c 91       	ld	r25, X
     ec6:	13 97       	sbiw	r26, 0x03	; 3
     ec8:	93 83       	std	Z+3, r25	; 0x03
     eca:	82 83       	std	Z+2, r24	; 0x02
     ecc:	21 15       	cp	r18, r1
     ece:	31 05       	cpc	r19, r1
     ed0:	29 f4       	brne	.+10     	; 0xedc <free+0x9c>
     ed2:	f0 93 2a 04 	sts	0x042A, r31
     ed6:	e0 93 29 04 	sts	0x0429, r30
     eda:	3e c0       	rjmp	.+124    	; 0xf58 <free+0x118>
     edc:	d9 01       	movw	r26, r18
     ede:	13 96       	adiw	r26, 0x03	; 3
     ee0:	fc 93       	st	X, r31
     ee2:	ee 93       	st	-X, r30
     ee4:	12 97       	sbiw	r26, 0x02	; 2
     ee6:	4d 91       	ld	r20, X+
     ee8:	5d 91       	ld	r21, X+
     eea:	a4 0f       	add	r26, r20
     eec:	b5 1f       	adc	r27, r21
     eee:	ea 17       	cp	r30, r26
     ef0:	fb 07       	cpc	r31, r27
     ef2:	79 f4       	brne	.+30     	; 0xf12 <free+0xd2>
     ef4:	80 81       	ld	r24, Z
     ef6:	91 81       	ldd	r25, Z+1	; 0x01
     ef8:	84 0f       	add	r24, r20
     efa:	95 1f       	adc	r25, r21
     efc:	02 96       	adiw	r24, 0x02	; 2
     efe:	d9 01       	movw	r26, r18
     f00:	11 96       	adiw	r26, 0x01	; 1
     f02:	9c 93       	st	X, r25
     f04:	8e 93       	st	-X, r24
     f06:	82 81       	ldd	r24, Z+2	; 0x02
     f08:	93 81       	ldd	r25, Z+3	; 0x03
     f0a:	13 96       	adiw	r26, 0x03	; 3
     f0c:	9c 93       	st	X, r25
     f0e:	8e 93       	st	-X, r24
     f10:	12 97       	sbiw	r26, 0x02	; 2
     f12:	e0 e0       	ldi	r30, 0x00	; 0
     f14:	f0 e0       	ldi	r31, 0x00	; 0
     f16:	8a 81       	ldd	r24, Y+2	; 0x02
     f18:	9b 81       	ldd	r25, Y+3	; 0x03
     f1a:	00 97       	sbiw	r24, 0x00	; 0
     f1c:	19 f0       	breq	.+6      	; 0xf24 <free+0xe4>
     f1e:	fe 01       	movw	r30, r28
     f20:	ec 01       	movw	r28, r24
     f22:	f9 cf       	rjmp	.-14     	; 0xf16 <free+0xd6>
     f24:	ce 01       	movw	r24, r28
     f26:	02 96       	adiw	r24, 0x02	; 2
     f28:	28 81       	ld	r18, Y
     f2a:	39 81       	ldd	r19, Y+1	; 0x01
     f2c:	82 0f       	add	r24, r18
     f2e:	93 1f       	adc	r25, r19
     f30:	20 91 27 04 	lds	r18, 0x0427
     f34:	30 91 28 04 	lds	r19, 0x0428
     f38:	28 17       	cp	r18, r24
     f3a:	39 07       	cpc	r19, r25
     f3c:	69 f4       	brne	.+26     	; 0xf58 <free+0x118>
     f3e:	30 97       	sbiw	r30, 0x00	; 0
     f40:	29 f4       	brne	.+10     	; 0xf4c <free+0x10c>
     f42:	10 92 2a 04 	sts	0x042A, r1
     f46:	10 92 29 04 	sts	0x0429, r1
     f4a:	02 c0       	rjmp	.+4      	; 0xf50 <free+0x110>
     f4c:	13 82       	std	Z+3, r1	; 0x03
     f4e:	12 82       	std	Z+2, r1	; 0x02
     f50:	d0 93 28 04 	sts	0x0428, r29
     f54:	c0 93 27 04 	sts	0x0427, r28
     f58:	df 91       	pop	r29
     f5a:	cf 91       	pop	r28
     f5c:	08 95       	ret

00000f5e <strnlen_P>:
     f5e:	fc 01       	movw	r30, r24
     f60:	05 90       	lpm	r0, Z+
     f62:	61 50       	subi	r22, 0x01	; 1
     f64:	70 40       	sbci	r23, 0x00	; 0
     f66:	01 10       	cpse	r0, r1
     f68:	d8 f7       	brcc	.-10     	; 0xf60 <strnlen_P+0x2>
     f6a:	80 95       	com	r24
     f6c:	90 95       	com	r25
     f6e:	8e 0f       	add	r24, r30
     f70:	9f 1f       	adc	r25, r31
     f72:	08 95       	ret

00000f74 <memset>:
     f74:	dc 01       	movw	r26, r24
     f76:	01 c0       	rjmp	.+2      	; 0xf7a <memset+0x6>
     f78:	6d 93       	st	X+, r22
     f7a:	41 50       	subi	r20, 0x01	; 1
     f7c:	50 40       	sbci	r21, 0x00	; 0
     f7e:	e0 f7       	brcc	.-8      	; 0xf78 <memset+0x4>
     f80:	08 95       	ret

00000f82 <strnlen>:
     f82:	fc 01       	movw	r30, r24
     f84:	61 50       	subi	r22, 0x01	; 1
     f86:	70 40       	sbci	r23, 0x00	; 0
     f88:	01 90       	ld	r0, Z+
     f8a:	01 10       	cpse	r0, r1
     f8c:	d8 f7       	brcc	.-10     	; 0xf84 <strnlen+0x2>
     f8e:	80 95       	com	r24
     f90:	90 95       	com	r25
     f92:	8e 0f       	add	r24, r30
     f94:	9f 1f       	adc	r25, r31
     f96:	08 95       	ret

00000f98 <fputc>:
     f98:	0f 93       	push	r16
     f9a:	1f 93       	push	r17
     f9c:	cf 93       	push	r28
     f9e:	df 93       	push	r29
     fa0:	18 2f       	mov	r17, r24
     fa2:	09 2f       	mov	r16, r25
     fa4:	eb 01       	movw	r28, r22
     fa6:	8b 81       	ldd	r24, Y+3	; 0x03
     fa8:	81 fd       	sbrc	r24, 1
     faa:	03 c0       	rjmp	.+6      	; 0xfb2 <fputc+0x1a>
     fac:	8f ef       	ldi	r24, 0xFF	; 255
     fae:	9f ef       	ldi	r25, 0xFF	; 255
     fb0:	20 c0       	rjmp	.+64     	; 0xff2 <fputc+0x5a>
     fb2:	82 ff       	sbrs	r24, 2
     fb4:	10 c0       	rjmp	.+32     	; 0xfd6 <fputc+0x3e>
     fb6:	4e 81       	ldd	r20, Y+6	; 0x06
     fb8:	5f 81       	ldd	r21, Y+7	; 0x07
     fba:	2c 81       	ldd	r18, Y+4	; 0x04
     fbc:	3d 81       	ldd	r19, Y+5	; 0x05
     fbe:	42 17       	cp	r20, r18
     fc0:	53 07       	cpc	r21, r19
     fc2:	7c f4       	brge	.+30     	; 0xfe2 <fputc+0x4a>
     fc4:	e8 81       	ld	r30, Y
     fc6:	f9 81       	ldd	r31, Y+1	; 0x01
     fc8:	9f 01       	movw	r18, r30
     fca:	2f 5f       	subi	r18, 0xFF	; 255
     fcc:	3f 4f       	sbci	r19, 0xFF	; 255
     fce:	39 83       	std	Y+1, r19	; 0x01
     fd0:	28 83       	st	Y, r18
     fd2:	10 83       	st	Z, r17
     fd4:	06 c0       	rjmp	.+12     	; 0xfe2 <fputc+0x4a>
     fd6:	e8 85       	ldd	r30, Y+8	; 0x08
     fd8:	f9 85       	ldd	r31, Y+9	; 0x09
     fda:	81 2f       	mov	r24, r17
     fdc:	19 95       	eicall
     fde:	89 2b       	or	r24, r25
     fe0:	29 f7       	brne	.-54     	; 0xfac <fputc+0x14>
     fe2:	2e 81       	ldd	r18, Y+6	; 0x06
     fe4:	3f 81       	ldd	r19, Y+7	; 0x07
     fe6:	2f 5f       	subi	r18, 0xFF	; 255
     fe8:	3f 4f       	sbci	r19, 0xFF	; 255
     fea:	3f 83       	std	Y+7, r19	; 0x07
     fec:	2e 83       	std	Y+6, r18	; 0x06
     fee:	81 2f       	mov	r24, r17
     ff0:	90 2f       	mov	r25, r16
     ff2:	df 91       	pop	r29
     ff4:	cf 91       	pop	r28
     ff6:	1f 91       	pop	r17
     ff8:	0f 91       	pop	r16
     ffa:	08 95       	ret

00000ffc <__ultoa_invert>:
     ffc:	fa 01       	movw	r30, r20
     ffe:	aa 27       	eor	r26, r26
    1000:	28 30       	cpi	r18, 0x08	; 8
    1002:	51 f1       	breq	.+84     	; 0x1058 <__ultoa_invert+0x5c>
    1004:	20 31       	cpi	r18, 0x10	; 16
    1006:	81 f1       	breq	.+96     	; 0x1068 <__ultoa_invert+0x6c>
    1008:	e8 94       	clt
    100a:	6f 93       	push	r22
    100c:	6e 7f       	andi	r22, 0xFE	; 254
    100e:	6e 5f       	subi	r22, 0xFE	; 254
    1010:	7f 4f       	sbci	r23, 0xFF	; 255
    1012:	8f 4f       	sbci	r24, 0xFF	; 255
    1014:	9f 4f       	sbci	r25, 0xFF	; 255
    1016:	af 4f       	sbci	r26, 0xFF	; 255
    1018:	b1 e0       	ldi	r27, 0x01	; 1
    101a:	3e d0       	rcall	.+124    	; 0x1098 <__ultoa_invert+0x9c>
    101c:	b4 e0       	ldi	r27, 0x04	; 4
    101e:	3c d0       	rcall	.+120    	; 0x1098 <__ultoa_invert+0x9c>
    1020:	67 0f       	add	r22, r23
    1022:	78 1f       	adc	r23, r24
    1024:	89 1f       	adc	r24, r25
    1026:	9a 1f       	adc	r25, r26
    1028:	a1 1d       	adc	r26, r1
    102a:	68 0f       	add	r22, r24
    102c:	79 1f       	adc	r23, r25
    102e:	8a 1f       	adc	r24, r26
    1030:	91 1d       	adc	r25, r1
    1032:	a1 1d       	adc	r26, r1
    1034:	6a 0f       	add	r22, r26
    1036:	71 1d       	adc	r23, r1
    1038:	81 1d       	adc	r24, r1
    103a:	91 1d       	adc	r25, r1
    103c:	a1 1d       	adc	r26, r1
    103e:	20 d0       	rcall	.+64     	; 0x1080 <__ultoa_invert+0x84>
    1040:	09 f4       	brne	.+2      	; 0x1044 <__ultoa_invert+0x48>
    1042:	68 94       	set
    1044:	3f 91       	pop	r19
    1046:	2a e0       	ldi	r18, 0x0A	; 10
    1048:	26 9f       	mul	r18, r22
    104a:	11 24       	eor	r1, r1
    104c:	30 19       	sub	r19, r0
    104e:	30 5d       	subi	r19, 0xD0	; 208
    1050:	31 93       	st	Z+, r19
    1052:	de f6       	brtc	.-74     	; 0x100a <__ultoa_invert+0xe>
    1054:	cf 01       	movw	r24, r30
    1056:	08 95       	ret
    1058:	46 2f       	mov	r20, r22
    105a:	47 70       	andi	r20, 0x07	; 7
    105c:	40 5d       	subi	r20, 0xD0	; 208
    105e:	41 93       	st	Z+, r20
    1060:	b3 e0       	ldi	r27, 0x03	; 3
    1062:	0f d0       	rcall	.+30     	; 0x1082 <__ultoa_invert+0x86>
    1064:	c9 f7       	brne	.-14     	; 0x1058 <__ultoa_invert+0x5c>
    1066:	f6 cf       	rjmp	.-20     	; 0x1054 <__ultoa_invert+0x58>
    1068:	46 2f       	mov	r20, r22
    106a:	4f 70       	andi	r20, 0x0F	; 15
    106c:	40 5d       	subi	r20, 0xD0	; 208
    106e:	4a 33       	cpi	r20, 0x3A	; 58
    1070:	18 f0       	brcs	.+6      	; 0x1078 <__ultoa_invert+0x7c>
    1072:	49 5d       	subi	r20, 0xD9	; 217
    1074:	31 fd       	sbrc	r19, 1
    1076:	40 52       	subi	r20, 0x20	; 32
    1078:	41 93       	st	Z+, r20
    107a:	02 d0       	rcall	.+4      	; 0x1080 <__ultoa_invert+0x84>
    107c:	a9 f7       	brne	.-22     	; 0x1068 <__ultoa_invert+0x6c>
    107e:	ea cf       	rjmp	.-44     	; 0x1054 <__ultoa_invert+0x58>
    1080:	b4 e0       	ldi	r27, 0x04	; 4
    1082:	a6 95       	lsr	r26
    1084:	97 95       	ror	r25
    1086:	87 95       	ror	r24
    1088:	77 95       	ror	r23
    108a:	67 95       	ror	r22
    108c:	ba 95       	dec	r27
    108e:	c9 f7       	brne	.-14     	; 0x1082 <__ultoa_invert+0x86>
    1090:	00 97       	sbiw	r24, 0x00	; 0
    1092:	61 05       	cpc	r22, r1
    1094:	71 05       	cpc	r23, r1
    1096:	08 95       	ret
    1098:	9b 01       	movw	r18, r22
    109a:	ac 01       	movw	r20, r24
    109c:	0a 2e       	mov	r0, r26
    109e:	06 94       	lsr	r0
    10a0:	57 95       	ror	r21
    10a2:	47 95       	ror	r20
    10a4:	37 95       	ror	r19
    10a6:	27 95       	ror	r18
    10a8:	ba 95       	dec	r27
    10aa:	c9 f7       	brne	.-14     	; 0x109e <__ultoa_invert+0xa2>
    10ac:	62 0f       	add	r22, r18
    10ae:	73 1f       	adc	r23, r19
    10b0:	84 1f       	adc	r24, r20
    10b2:	95 1f       	adc	r25, r21
    10b4:	a0 1d       	adc	r26, r0
    10b6:	08 95       	ret

000010b8 <_exit>:
    10b8:	f8 94       	cli

000010ba <__stop_program>:
    10ba:	ff cf       	rjmp	.-2      	; 0x10ba <__stop_program>
