
Byggern_node2.elf:     file format elf32-avr

Sections:
Idx Name          Size      VMA       LMA       File off  Algn
  0 .data         000001c0  00800200  000027c6  0000285a  2**0
                  CONTENTS, ALLOC, LOAD, DATA
  1 .text         000027c6  00000000  00000000  00000094  2**1
                  CONTENTS, ALLOC, LOAD, READONLY, CODE
  2 .bss          00000068  008003c0  008003c0  00002a1a  2**0
                  ALLOC
  3 .comment      0000005c  00000000  00000000  00002a1a  2**0
                  CONTENTS, READONLY
  4 .debug_aranges 00000328  00000000  00000000  00002a76  2**0
                  CONTENTS, READONLY, DEBUGGING
  5 .debug_info   00002b06  00000000  00000000  00002d9e  2**0
                  CONTENTS, READONLY, DEBUGGING
  6 .debug_abbrev 0000105e  00000000  00000000  000058a4  2**0
                  CONTENTS, READONLY, DEBUGGING
  7 .debug_line   00001b38  00000000  00000000  00006902  2**0
                  CONTENTS, READONLY, DEBUGGING
  8 .debug_frame  0000074c  00000000  00000000  0000843c  2**2
                  CONTENTS, READONLY, DEBUGGING
  9 .debug_str    00000ac4  00000000  00000000  00008b88  2**0
                  CONTENTS, READONLY, DEBUGGING
 10 .debug_loc    000015f0  00000000  00000000  0000964c  2**0
                  CONTENTS, READONLY, DEBUGGING
 11 .debug_ranges 00000290  00000000  00000000  0000ac3c  2**0
                  CONTENTS, READONLY, DEBUGGING

Disassembly of section .text:

00000000 <__vectors>:
       0:	e6 c0       	rjmp	.+460    	; 0x1ce <__ctors_end>
       2:	00 00       	nop
       4:	04 c1       	rjmp	.+520    	; 0x20e <__bad_interrupt>
       6:	00 00       	nop
       8:	02 c1       	rjmp	.+516    	; 0x20e <__bad_interrupt>
       a:	00 00       	nop
       c:	00 c1       	rjmp	.+512    	; 0x20e <__bad_interrupt>
       e:	00 00       	nop
      10:	fe c0       	rjmp	.+508    	; 0x20e <__bad_interrupt>
      12:	00 00       	nop
      14:	fc c0       	rjmp	.+504    	; 0x20e <__bad_interrupt>
      16:	00 00       	nop
      18:	fa c0       	rjmp	.+500    	; 0x20e <__bad_interrupt>
      1a:	00 00       	nop
      1c:	f8 c0       	rjmp	.+496    	; 0x20e <__bad_interrupt>
      1e:	00 00       	nop
      20:	f6 c0       	rjmp	.+492    	; 0x20e <__bad_interrupt>
      22:	00 00       	nop
      24:	f4 c0       	rjmp	.+488    	; 0x20e <__bad_interrupt>
      26:	00 00       	nop
      28:	f2 c0       	rjmp	.+484    	; 0x20e <__bad_interrupt>
      2a:	00 00       	nop
      2c:	f0 c0       	rjmp	.+480    	; 0x20e <__bad_interrupt>
      2e:	00 00       	nop
      30:	ee c0       	rjmp	.+476    	; 0x20e <__bad_interrupt>
      32:	00 00       	nop
      34:	ec c0       	rjmp	.+472    	; 0x20e <__bad_interrupt>
      36:	00 00       	nop
      38:	ea c0       	rjmp	.+468    	; 0x20e <__bad_interrupt>
      3a:	00 00       	nop
      3c:	e8 c0       	rjmp	.+464    	; 0x20e <__bad_interrupt>
      3e:	00 00       	nop
      40:	e6 c0       	rjmp	.+460    	; 0x20e <__bad_interrupt>
      42:	00 00       	nop
      44:	16 c5       	rjmp	.+2604   	; 0xa72 <__vector_17>
      46:	00 00       	nop
      48:	e2 c0       	rjmp	.+452    	; 0x20e <__bad_interrupt>
      4a:	00 00       	nop
      4c:	e0 c0       	rjmp	.+448    	; 0x20e <__bad_interrupt>
      4e:	00 00       	nop
      50:	de c0       	rjmp	.+444    	; 0x20e <__bad_interrupt>
      52:	00 00       	nop
      54:	dc c0       	rjmp	.+440    	; 0x20e <__bad_interrupt>
      56:	00 00       	nop
      58:	da c0       	rjmp	.+436    	; 0x20e <__bad_interrupt>
      5a:	00 00       	nop
      5c:	d8 c0       	rjmp	.+432    	; 0x20e <__bad_interrupt>
      5e:	00 00       	nop
      60:	d6 c0       	rjmp	.+428    	; 0x20e <__bad_interrupt>
      62:	00 00       	nop
      64:	d4 c0       	rjmp	.+424    	; 0x20e <__bad_interrupt>
      66:	00 00       	nop
      68:	d2 c0       	rjmp	.+420    	; 0x20e <__bad_interrupt>
      6a:	00 00       	nop
      6c:	d0 c0       	rjmp	.+416    	; 0x20e <__bad_interrupt>
      6e:	00 00       	nop
      70:	ce c0       	rjmp	.+412    	; 0x20e <__bad_interrupt>
      72:	00 00       	nop
      74:	cc c0       	rjmp	.+408    	; 0x20e <__bad_interrupt>
      76:	00 00       	nop
      78:	ca c0       	rjmp	.+404    	; 0x20e <__bad_interrupt>
      7a:	00 00       	nop
      7c:	c8 c0       	rjmp	.+400    	; 0x20e <__bad_interrupt>
      7e:	00 00       	nop
      80:	c6 c0       	rjmp	.+396    	; 0x20e <__bad_interrupt>
      82:	00 00       	nop
      84:	c4 c0       	rjmp	.+392    	; 0x20e <__bad_interrupt>
      86:	00 00       	nop
      88:	c2 c0       	rjmp	.+388    	; 0x20e <__bad_interrupt>
      8a:	00 00       	nop
      8c:	c0 c0       	rjmp	.+384    	; 0x20e <__bad_interrupt>
      8e:	00 00       	nop
      90:	be c0       	rjmp	.+380    	; 0x20e <__bad_interrupt>
      92:	00 00       	nop
      94:	bc c0       	rjmp	.+376    	; 0x20e <__bad_interrupt>
      96:	00 00       	nop
      98:	ba c0       	rjmp	.+372    	; 0x20e <__bad_interrupt>
      9a:	00 00       	nop
      9c:	7d c7       	rjmp	.+3834   	; 0xf98 <__vector_39>
      9e:	00 00       	nop
      a0:	b6 c0       	rjmp	.+364    	; 0x20e <__bad_interrupt>
      a2:	00 00       	nop
      a4:	b4 c0       	rjmp	.+360    	; 0x20e <__bad_interrupt>
      a6:	00 00       	nop
      a8:	b2 c0       	rjmp	.+356    	; 0x20e <__bad_interrupt>
      aa:	00 00       	nop
      ac:	b0 c0       	rjmp	.+352    	; 0x20e <__bad_interrupt>
      ae:	00 00       	nop
      b0:	ae c0       	rjmp	.+348    	; 0x20e <__bad_interrupt>
      b2:	00 00       	nop
      b4:	ac c0       	rjmp	.+344    	; 0x20e <__bad_interrupt>
      b6:	00 00       	nop
      b8:	aa c0       	rjmp	.+340    	; 0x20e <__bad_interrupt>
      ba:	00 00       	nop
      bc:	a8 c0       	rjmp	.+336    	; 0x20e <__bad_interrupt>
      be:	00 00       	nop
      c0:	a6 c0       	rjmp	.+332    	; 0x20e <__bad_interrupt>
      c2:	00 00       	nop
      c4:	a4 c0       	rjmp	.+328    	; 0x20e <__bad_interrupt>
      c6:	00 00       	nop
      c8:	a2 c0       	rjmp	.+324    	; 0x20e <__bad_interrupt>
      ca:	00 00       	nop
      cc:	a0 c0       	rjmp	.+320    	; 0x20e <__bad_interrupt>
      ce:	00 00       	nop
      d0:	9e c0       	rjmp	.+316    	; 0x20e <__bad_interrupt>
      d2:	00 00       	nop
      d4:	9c c0       	rjmp	.+312    	; 0x20e <__bad_interrupt>
      d6:	00 00       	nop
      d8:	9a c0       	rjmp	.+308    	; 0x20e <__bad_interrupt>
      da:	00 00       	nop
      dc:	98 c0       	rjmp	.+304    	; 0x20e <__bad_interrupt>
      de:	00 00       	nop
      e0:	96 c0       	rjmp	.+300    	; 0x20e <__bad_interrupt>
      e2:	00 00       	nop
      e4:	e7 07       	cpc	r30, r23
      e6:	39 08       	sbc	r3, r9
      e8:	39 08       	sbc	r3, r9
      ea:	39 08       	sbc	r3, r9
      ec:	39 08       	sbc	r3, r9
      ee:	39 08       	sbc	r3, r9
      f0:	39 08       	sbc	r3, r9
      f2:	39 08       	sbc	r3, r9
      f4:	e7 07       	cpc	r30, r23
      f6:	39 08       	sbc	r3, r9
      f8:	39 08       	sbc	r3, r9
      fa:	39 08       	sbc	r3, r9
      fc:	39 08       	sbc	r3, r9
      fe:	39 08       	sbc	r3, r9
     100:	39 08       	sbc	r3, r9
     102:	39 08       	sbc	r3, r9
     104:	e9 07       	cpc	r30, r25
     106:	39 08       	sbc	r3, r9
     108:	39 08       	sbc	r3, r9
     10a:	39 08       	sbc	r3, r9
     10c:	39 08       	sbc	r3, r9
     10e:	39 08       	sbc	r3, r9
     110:	39 08       	sbc	r3, r9
     112:	39 08       	sbc	r3, r9
     114:	39 08       	sbc	r3, r9
     116:	39 08       	sbc	r3, r9
     118:	39 08       	sbc	r3, r9
     11a:	39 08       	sbc	r3, r9
     11c:	39 08       	sbc	r3, r9
     11e:	39 08       	sbc	r3, r9
     120:	39 08       	sbc	r3, r9
     122:	39 08       	sbc	r3, r9
     124:	e9 07       	cpc	r30, r25
     126:	39 08       	sbc	r3, r9
     128:	39 08       	sbc	r3, r9
     12a:	39 08       	sbc	r3, r9
     12c:	39 08       	sbc	r3, r9
     12e:	39 08       	sbc	r3, r9
     130:	39 08       	sbc	r3, r9
     132:	39 08       	sbc	r3, r9
     134:	39 08       	sbc	r3, r9
     136:	39 08       	sbc	r3, r9
     138:	39 08       	sbc	r3, r9
     13a:	39 08       	sbc	r3, r9
     13c:	39 08       	sbc	r3, r9
     13e:	39 08       	sbc	r3, r9
     140:	39 08       	sbc	r3, r9
     142:	39 08       	sbc	r3, r9
     144:	35 08       	sbc	r3, r5
     146:	39 08       	sbc	r3, r9
     148:	39 08       	sbc	r3, r9
     14a:	39 08       	sbc	r3, r9
     14c:	39 08       	sbc	r3, r9
     14e:	39 08       	sbc	r3, r9
     150:	39 08       	sbc	r3, r9
     152:	39 08       	sbc	r3, r9
     154:	12 08       	sbc	r1, r2
     156:	39 08       	sbc	r3, r9
     158:	39 08       	sbc	r3, r9
     15a:	39 08       	sbc	r3, r9
     15c:	39 08       	sbc	r3, r9
     15e:	39 08       	sbc	r3, r9
     160:	39 08       	sbc	r3, r9
     162:	39 08       	sbc	r3, r9
     164:	39 08       	sbc	r3, r9
     166:	39 08       	sbc	r3, r9
     168:	39 08       	sbc	r3, r9
     16a:	39 08       	sbc	r3, r9
     16c:	39 08       	sbc	r3, r9
     16e:	39 08       	sbc	r3, r9
     170:	39 08       	sbc	r3, r9
     172:	39 08       	sbc	r3, r9
     174:	06 08       	sbc	r0, r6
     176:	39 08       	sbc	r3, r9
     178:	39 08       	sbc	r3, r9
     17a:	39 08       	sbc	r3, r9
     17c:	39 08       	sbc	r3, r9
     17e:	39 08       	sbc	r3, r9
     180:	39 08       	sbc	r3, r9
     182:	39 08       	sbc	r3, r9
     184:	24 08       	sbc	r2, r4

00000186 <__trampolines_end>:
     186:	63 64       	ori	r22, 0x43	; 67
     188:	69 6e       	ori	r22, 0xE9	; 233
     18a:	6f 70       	andi	r22, 0x0F	; 15
     18c:	73 75       	andi	r23, 0x53	; 83
     18e:	78 58       	subi	r23, 0x88	; 136
     190:	5b 00       	.word	0x005b	; ????

00000192 <pstr_nan>:
     192:	4e 41 4e                                            NAN

00000195 <pstr_inity>:
     195:	49 4e 49 54 59                                      INITY

0000019a <pstr_inf>:
     19a:	49 4e 46                                            INF

0000019d <pwr_m10>:
     19d:	cd cc cc 3d 0a d7 23 3c 17 b7 d1 38 77 cc 2b 32     ...=..#<...8w.+2
     1ad:	95 95 e6 24 1f b1 4f 0a                             ...$..O.

000001b5 <pwr_p10>:
     1b5:	00 00 20 41 00 00 c8 42 00 40 1c 46 20 bc be 4c     .. A...B.@.F ..L
     1c5:	ca 1b 0e 5a ae c5 9d 74 00                          ...Z...t.

000001ce <__ctors_end>:
     1ce:	11 24       	eor	r1, r1
     1d0:	1f be       	out	0x3f, r1	; 63
     1d2:	cf ef       	ldi	r28, 0xFF	; 255
     1d4:	d1 e2       	ldi	r29, 0x21	; 33
     1d6:	de bf       	out	0x3e, r29	; 62
     1d8:	cd bf       	out	0x3d, r28	; 61
     1da:	00 e0       	ldi	r16, 0x00	; 0
     1dc:	0c bf       	out	0x3c, r16	; 60

000001de <__do_copy_data>:
     1de:	13 e0       	ldi	r17, 0x03	; 3
     1e0:	a0 e0       	ldi	r26, 0x00	; 0
     1e2:	b2 e0       	ldi	r27, 0x02	; 2
     1e4:	e6 ec       	ldi	r30, 0xC6	; 198
     1e6:	f7 e2       	ldi	r31, 0x27	; 39
     1e8:	00 e0       	ldi	r16, 0x00	; 0
     1ea:	0b bf       	out	0x3b, r16	; 59
     1ec:	02 c0       	rjmp	.+4      	; 0x1f2 <__do_copy_data+0x14>
     1ee:	07 90       	elpm	r0, Z+
     1f0:	0d 92       	st	X+, r0
     1f2:	a0 3c       	cpi	r26, 0xC0	; 192
     1f4:	b1 07       	cpc	r27, r17
     1f6:	d9 f7       	brne	.-10     	; 0x1ee <__do_copy_data+0x10>

000001f8 <__do_clear_bss>:
     1f8:	24 e0       	ldi	r18, 0x04	; 4
     1fa:	a0 ec       	ldi	r26, 0xC0	; 192
     1fc:	b3 e0       	ldi	r27, 0x03	; 3
     1fe:	01 c0       	rjmp	.+2      	; 0x202 <.do_clear_bss_start>

00000200 <.do_clear_bss_loop>:
     200:	1d 92       	st	X+, r1

00000202 <.do_clear_bss_start>:
     202:	a8 32       	cpi	r26, 0x28	; 40
     204:	b2 07       	cpc	r27, r18
     206:	e1 f7       	brne	.-8      	; 0x200 <.do_clear_bss_loop>
     208:	c2 d1       	rcall	.+900    	; 0x58e <main>
     20a:	0c 94 e1 13 	jmp	0x27c2	; 0x27c2 <_exit>

0000020e <__bad_interrupt>:
     20e:	f8 ce       	rjmp	.-528    	; 0x0 <__vectors>

00000210 <setup_ADC>:
void start_ADC() {
	ADCSRA |= (1<<ADEN) | (1<<ADATE);
	ADCSRA |= (1<<ADSC);
}
void stop_ADC() {
	ADCSRA &= ~(1<<ADEN);
     210:	e4 e6       	ldi	r30, 0x64	; 100
     212:	f0 e0       	ldi	r31, 0x00	; 0
     214:	80 81       	ld	r24, Z
     216:	8e 7f       	andi	r24, 0xFE	; 254
     218:	80 83       	st	Z, r24
     21a:	ec e7       	ldi	r30, 0x7C	; 124
     21c:	f0 e0       	ldi	r31, 0x00	; 0
     21e:	80 81       	ld	r24, Z
     220:	80 66       	ori	r24, 0x60	; 96
     222:	80 83       	st	Z, r24
     224:	80 81       	ld	r24, Z
     226:	80 76       	andi	r24, 0x60	; 96
     228:	80 83       	st	Z, r24
     22a:	ea e7       	ldi	r30, 0x7A	; 122
     22c:	f0 e0       	ldi	r31, 0x00	; 0
     22e:	80 81       	ld	r24, Z
     230:	80 6a       	ori	r24, 0xA0	; 160
     232:	80 83       	st	Z, r24
     234:	eb e7       	ldi	r30, 0x7B	; 123
     236:	f0 e0       	ldi	r31, 0x00	; 0
     238:	80 81       	ld	r24, Z
     23a:	88 7f       	andi	r24, 0xF8	; 248
     23c:	80 83       	st	Z, r24
     23e:	08 95       	ret

00000240 <start_ADC>:
     240:	ea e7       	ldi	r30, 0x7A	; 122
     242:	f0 e0       	ldi	r31, 0x00	; 0
     244:	80 81       	ld	r24, Z
     246:	80 6a       	ori	r24, 0xA0	; 160
     248:	80 83       	st	Z, r24
     24a:	80 81       	ld	r24, Z
     24c:	80 64       	ori	r24, 0x40	; 64
     24e:	80 83       	st	Z, r24
     250:	08 95       	ret

00000252 <get_ADC_value>:
}

uint8_t get_ADC_value()
{
	return ADCH;
     252:	80 91 79 00 	lds	r24, 0x0079
     256:	08 95       	ret

00000258 <can_init>:
}

// Check if there is a pending message in the receive buffer
uint8_t can_data_received(){
	return message_received;
}
     258:	01 d3       	rcall	.+1538   	; 0x85c <mcp_2515_init>
     25a:	40 e6       	ldi	r20, 0x60	; 96
     25c:	64 e6       	ldi	r22, 0x64	; 100
     25e:	80 e6       	ldi	r24, 0x60	; 96
     260:	cb d2       	rcall	.+1430   	; 0x7f8 <mcp_2515_bit_modify>
     262:	41 e0       	ldi	r20, 0x01	; 1
     264:	6f ef       	ldi	r22, 0xFF	; 255
     266:	8b e2       	ldi	r24, 0x2B	; 43
     268:	c7 d2       	rcall	.+1422   	; 0x7f8 <mcp_2515_bit_modify>
     26a:	80 e0       	ldi	r24, 0x00	; 0
     26c:	08 95       	ret

0000026e <CAN_enable_normal_mode>:
     26e:	d8 c2       	rjmp	.+1456   	; 0x820 <mcp_2515_enable_normal_operation>
     270:	08 95       	ret

00000272 <can_receive_message>:
     272:	ef 92       	push	r14
     274:	ff 92       	push	r15
     276:	0f 93       	push	r16
     278:	1f 93       	push	r17
     27a:	cf 93       	push	r28
     27c:	df 93       	push	r29
     27e:	8c 01       	movw	r16, r24
     280:	8c e2       	ldi	r24, 0x2C	; 44
     282:	96 d2       	rcall	.+1324   	; 0x7b0 <mcp_2515_read>
     284:	80 ff       	sbrs	r24, 0
     286:	35 c0       	rjmp	.+106    	; 0x2f2 <can_receive_message+0x80>
     288:	81 e6       	ldi	r24, 0x61	; 97
     28a:	92 d2       	rcall	.+1316   	; 0x7b0 <mcp_2515_read>
     28c:	c8 2f       	mov	r28, r24
     28e:	82 e6       	ldi	r24, 0x62	; 98
     290:	8f d2       	rcall	.+1310   	; 0x7b0 <mcp_2515_read>
     292:	2c 2f       	mov	r18, r28
     294:	30 e0       	ldi	r19, 0x00	; 0
     296:	32 2f       	mov	r19, r18
     298:	22 27       	eor	r18, r18
     29a:	28 2b       	or	r18, r24
     29c:	36 95       	lsr	r19
     29e:	27 95       	ror	r18
     2a0:	32 95       	swap	r19
     2a2:	22 95       	swap	r18
     2a4:	2f 70       	andi	r18, 0x0F	; 15
     2a6:	23 27       	eor	r18, r19
     2a8:	3f 70       	andi	r19, 0x0F	; 15
     2aa:	23 27       	eor	r18, r19
     2ac:	f8 01       	movw	r30, r16
     2ae:	31 83       	std	Z+1, r19	; 0x01
     2b0:	20 83       	st	Z, r18
     2b2:	85 e6       	ldi	r24, 0x65	; 101
     2b4:	7d d2       	rcall	.+1274   	; 0x7b0 <mcp_2515_read>
     2b6:	f8 01       	movw	r30, r16
     2b8:	82 83       	std	Z+2, r24	; 0x02
     2ba:	88 23       	and	r24, r24
     2bc:	99 f0       	breq	.+38     	; 0x2e4 <can_receive_message+0x72>
     2be:	78 01       	movw	r14, r16
     2c0:	f3 e0       	ldi	r31, 0x03	; 3
     2c2:	ef 0e       	add	r14, r31
     2c4:	f1 1c       	adc	r15, r1
     2c6:	c0 e0       	ldi	r28, 0x00	; 0
     2c8:	d0 e0       	ldi	r29, 0x00	; 0
     2ca:	8c 2f       	mov	r24, r28
     2cc:	8a 59       	subi	r24, 0x9A	; 154
     2ce:	70 d2       	rcall	.+1248   	; 0x7b0 <mcp_2515_read>
     2d0:	f7 01       	movw	r30, r14
     2d2:	81 93       	st	Z+, r24
     2d4:	7f 01       	movw	r14, r30
     2d6:	21 96       	adiw	r28, 0x01	; 1
     2d8:	f8 01       	movw	r30, r16
     2da:	82 81       	ldd	r24, Z+2	; 0x02
     2dc:	90 e0       	ldi	r25, 0x00	; 0
     2de:	c8 17       	cp	r28, r24
     2e0:	d9 07       	cpc	r29, r25
     2e2:	9c f3       	brlt	.-26     	; 0x2ca <can_receive_message+0x58>
     2e4:	40 e0       	ldi	r20, 0x00	; 0
     2e6:	61 e0       	ldi	r22, 0x01	; 1
     2e8:	8c e2       	ldi	r24, 0x2C	; 44
     2ea:	86 d2       	rcall	.+1292   	; 0x7f8 <mcp_2515_bit_modify>
     2ec:	10 92 c0 03 	sts	0x03C0, r1
     2f0:	04 c0       	rjmp	.+8      	; 0x2fa <can_receive_message+0x88>
     2f2:	f8 01       	movw	r30, r16
     2f4:	11 82       	std	Z+1, r1	; 0x01
     2f6:	10 82       	st	Z, r1
     2f8:	12 82       	std	Z+2, r1	; 0x02
     2fa:	c8 01       	movw	r24, r16
     2fc:	df 91       	pop	r29
     2fe:	cf 91       	pop	r28
     300:	1f 91       	pop	r17
     302:	0f 91       	pop	r16
     304:	ff 90       	pop	r15
     306:	ef 90       	pop	r14
     308:	08 95       	ret

0000030a <can_error>:
// Check error flags in the transmit buffer control register TXB0CTRL
uint8_t can_error(){
	uint8_t error_flags = mcp_2515_read(MCP_TXB0CTRL);
     30a:	80 e3       	ldi	r24, 0x30	; 48
     30c:	51 d2       	rcall	.+1186   	; 0x7b0 <mcp_2515_read>
	if(test_bit(error_flags,5))
     30e:	85 ff       	sbrs	r24, 5
     310:	06 c0       	rjmp	.+12     	; 0x31e <can_error+0x14>
	{
		printf("Message lost arbitration\n");
     312:	8a e0       	ldi	r24, 0x0A	; 10
     314:	92 e0       	ldi	r25, 0x02	; 2
     316:	0e 94 1e 0c 	call	0x183c	; 0x183c <puts>
		return 1;
     31a:	91 e0       	ldi	r25, 0x01	; 1
     31c:	15 c0       	rjmp	.+42     	; 0x348 <can_error+0x3e>
	}
	if(test_bit(error_flags,4))
     31e:	84 ff       	sbrs	r24, 4
     320:	06 c0       	rjmp	.+12     	; 0x32e <can_error+0x24>
	{
		printf("Transmission error detected\n");
     322:	83 e2       	ldi	r24, 0x23	; 35
     324:	92 e0       	ldi	r25, 0x02	; 2
     326:	0e 94 1e 0c 	call	0x183c	; 0x183c <puts>
		return 2;
     32a:	92 e0       	ldi	r25, 0x02	; 2
     32c:	0d c0       	rjmp	.+26     	; 0x348 <can_error+0x3e>
	}

	if(test_bit(error_flags,6))
     32e:	98 2f       	mov	r25, r24
     330:	90 74       	andi	r25, 0x40	; 64
     332:	86 ff       	sbrs	r24, 6
     334:	09 c0       	rjmp	.+18     	; 0x348 <can_error+0x3e>
	{
		printf("Receive buffer overflow flag set\n");
     336:	8f e3       	ldi	r24, 0x3F	; 63
     338:	92 e0       	ldi	r25, 0x02	; 2
     33a:	0e 94 1e 0c 	call	0x183c	; 0x183c <puts>
		// reset receivebuffer overflow flag
		mcp_2515_bit_modify(MCP_EFLG,0x40,0x40);
     33e:	40 e4       	ldi	r20, 0x40	; 64
     340:	60 e4       	ldi	r22, 0x40	; 64
     342:	8d e2       	ldi	r24, 0x2D	; 45
     344:	59 d2       	rcall	.+1202   	; 0x7f8 <mcp_2515_bit_modify>
		return 3;
     346:	93 e0       	ldi	r25, 0x03	; 3
	}
	return FALSE;
}
     348:	89 2f       	mov	r24, r25
     34a:	08 95       	ret

0000034c <can_transmit_complete>:


uint8_t can_transmit_complete(){
	if (test_bit(mcp_2515_read(MCP_TXB0CTRL),3)) {
     34c:	80 e3       	ldi	r24, 0x30	; 48
     34e:	30 d2       	rcall	.+1120   	; 0x7b0 <mcp_2515_read>
     350:	83 ff       	sbrs	r24, 3
     352:	15 c0       	rjmp	.+42     	; 0x37e <can_transmit_complete+0x32>
		printf("Transmit not complete\n");
     354:	80 e6       	ldi	r24, 0x60	; 96
     356:	92 e0       	ldi	r25, 0x02	; 2
     358:	0e 94 1e 0c 	call	0x183c	; 0x183c <puts>
		number_of_tries++;
     35c:	80 91 cf 03 	lds	r24, 0x03CF
     360:	8f 5f       	subi	r24, 0xFF	; 255
     362:	80 93 cf 03 	sts	0x03CF, r24
		if(number_of_tries == allowed_tries) {
     366:	90 91 06 02 	lds	r25, 0x0206
     36a:	89 13       	cpse	r24, r25
     36c:	0a c0       	rjmp	.+20     	; 0x382 <can_transmit_complete+0x36>
			// Abort transmission
			mcp_2515_bit_modify(MCP_TXB0CTRL,8,0);
     36e:	40 e0       	ldi	r20, 0x00	; 0
     370:	68 e0       	ldi	r22, 0x08	; 8
     372:	80 e3       	ldi	r24, 0x30	; 48
     374:	41 d2       	rcall	.+1154   	; 0x7f8 <mcp_2515_bit_modify>
			number_of_tries = 0;
     376:	10 92 cf 03 	sts	0x03CF, r1
		}
		return FALSE;
     37a:	80 e0       	ldi	r24, 0x00	; 0
     37c:	08 95       	ret
	}
	else return TRUE;
     37e:	81 e0       	ldi	r24, 0x01	; 1
     380:	08 95       	ret
		if(number_of_tries == allowed_tries) {
			// Abort transmission
			mcp_2515_bit_modify(MCP_TXB0CTRL,8,0);
			number_of_tries = 0;
		}
		return FALSE;
     382:	80 e0       	ldi	r24, 0x00	; 0
	}
	else return TRUE;
}
     384:	08 95       	ret

00000386 <can_send_message>:
	return mcp_2515_enable_normal_operation();
}
/************************************************************************/
/* BUILD AND SEND CAN MESSAGE                                                                     */
/************************************************************************/
uint8_t can_send_message(can_message *can_message){
     386:	1f 93       	push	r17
     388:	cf 93       	push	r28
     38a:	df 93       	push	r29
     38c:	ec 01       	movw	r28, r24
	// Check if previous message was sent
	if (can_transmit_complete()) {
     38e:	de df       	rcall	.-68     	; 0x34c <can_transmit_complete>
     390:	88 23       	and	r24, r24
     392:	01 f1       	breq	.+64     	; 0x3d4 <can_send_message+0x4e>
		unsigned int id= can_message->ID;
     394:	18 81       	ld	r17, Y
     396:	69 81       	ldd	r22, Y+1	; 0x01
		// Standard frame, mask out lowest five bits of low_ID
		low_ID = (low_ID << 5);
		uint8_t high_ID = (id >> 8);
		
		//writes the ID to the ID High and ID LOW
		mcp_2515_write(MCP_TXB0SIDH, high_ID);
     398:	81 e3       	ldi	r24, 0x31	; 49
     39a:	17 d2       	rcall	.+1070   	; 0x7ca <mcp_2515_write>

		
		uint8_t low_ID = id & 0xFF;
		
		// Standard frame, mask out lowest five bits of low_ID
		low_ID = (low_ID << 5);
     39c:	61 2f       	mov	r22, r17
     39e:	62 95       	swap	r22
     3a0:	66 0f       	add	r22, r22
     3a2:	60 7e       	andi	r22, 0xE0	; 224
		uint8_t high_ID = (id >> 8);
		
		//writes the ID to the ID High and ID LOW
		mcp_2515_write(MCP_TXB0SIDH, high_ID);
		mcp_2515_write(MCP_TXB0SIDL, low_ID);
     3a4:	82 e3       	ldi	r24, 0x32	; 50
     3a6:	11 d2       	rcall	.+1058   	; 0x7ca <mcp_2515_write>
		
		mcp_2515_write(MCP_TXB0DLC, can_message->length);
     3a8:	6a 81       	ldd	r22, Y+2	; 0x02
     3aa:	85 e3       	ldi	r24, 0x35	; 53
     3ac:	0e d2       	rcall	.+1052   	; 0x7ca <mcp_2515_write>
		
		for(uint8_t i=0; i<can_message->length;i++){
     3ae:	8a 81       	ldd	r24, Y+2	; 0x02
     3b0:	88 23       	and	r24, r24
     3b2:	61 f0       	breq	.+24     	; 0x3cc <can_send_message+0x46>
     3b4:	10 e0       	ldi	r17, 0x00	; 0
			mcp_2515_write(MCP_TXB0D+i, can_message->data[i]);
     3b6:	fe 01       	movw	r30, r28
     3b8:	e1 0f       	add	r30, r17
     3ba:	f1 1d       	adc	r31, r1
     3bc:	63 81       	ldd	r22, Z+3	; 0x03
     3be:	86 e3       	ldi	r24, 0x36	; 54
     3c0:	81 0f       	add	r24, r17
     3c2:	03 d2       	rcall	.+1030   	; 0x7ca <mcp_2515_write>
		mcp_2515_write(MCP_TXB0SIDH, high_ID);
		mcp_2515_write(MCP_TXB0SIDL, low_ID);
		
		mcp_2515_write(MCP_TXB0DLC, can_message->length);
		
		for(uint8_t i=0; i<can_message->length;i++){
     3c4:	1f 5f       	subi	r17, 0xFF	; 255
     3c6:	8a 81       	ldd	r24, Y+2	; 0x02
     3c8:	18 17       	cp	r17, r24
     3ca:	a8 f3       	brcs	.-22     	; 0x3b6 <can_send_message+0x30>
			mcp_2515_write(MCP_TXB0D+i, can_message->data[i]);
		}
		
		mcp_2515_request_to_send(MCP_RTS_TX0);
     3cc:	81 e8       	ldi	r24, 0x81	; 129
     3ce:	0c d2       	rcall	.+1048   	; 0x7e8 <mcp_2515_request_to_send>
		return 1;
     3d0:	81 e0       	ldi	r24, 0x01	; 1
     3d2:	07 c0       	rjmp	.+14     	; 0x3e2 <can_send_message+0x5c>
	}
	
	else {
		if (can_error() > 0) {
     3d4:	9a df       	rcall	.-204    	; 0x30a <can_error>
     3d6:	91 e0       	ldi	r25, 0x01	; 1
     3d8:	81 11       	cpse	r24, r1
     3da:	01 c0       	rjmp	.+2      	; 0x3de <can_send_message+0x58>
     3dc:	90 e0       	ldi	r25, 0x00	; 0
     3de:	89 2f       	mov	r24, r25
     3e0:	81 95       	neg	r24
			return -1;
		}
	}

	return 0;
}
     3e2:	df 91       	pop	r29
     3e4:	cf 91       	pop	r28
     3e6:	1f 91       	pop	r17
     3e8:	08 95       	ret

000003ea <setup_DAC>:
#include "TWI_Master.h"
#include "DAC_driver.h"
#define SLAVE_ADDRESS 0x5E

void setup_DAC() {
	TWI_Master_Initialise();
     3ea:	aa d5       	rcall	.+2900   	; 0xf40 <TWI_Master_Initialise>
	//PD0 = scl, PD1 SDA
	DDRD |= (1<<PD0) | (1<<PD1);
     3ec:	8a b1       	in	r24, 0x0a	; 10
     3ee:	83 60       	ori	r24, 0x03	; 3
     3f0:	8a b9       	out	0x0a, r24	; 10
	// TWI uses interrupt
	sei();
     3f2:	78 94       	sei
     3f4:	08 95       	ret

000003f6 <send_DAC_data>:
}

void send_DAC_data(unsigned char value) {
     3f6:	1f 93       	push	r17
     3f8:	cf 93       	push	r28
     3fa:	df 93       	push	r29
     3fc:	18 2f       	mov	r17, r24
	unsigned char size = 3;
	unsigned char* data = malloc(3*sizeof(char));
     3fe:	83 e0       	ldi	r24, 0x03	; 3
     400:	90 e0       	ldi	r25, 0x00	; 0
     402:	0e 94 81 0a 	call	0x1502	; 0x1502 <malloc>
     406:	ec 01       	movw	r28, r24
	data[0] = SLAVE_ADDRESS;
     408:	8e e5       	ldi	r24, 0x5E	; 94
     40a:	88 83       	st	Y, r24
	// Command byte: address dac 0, normal operational state
	data[1] = 0x00;
     40c:	19 82       	std	Y+1, r1	; 0x01
	data[2] = value;
     40e:	1a 83       	std	Y+2, r17	; 0x02
	#else
		//round up by default
		__ticks_dc = (uint32_t)(ceil(fabs(__tmp)));
	#endif

	__builtin_avr_delay_cycles(__ticks_dc);
     410:	87 ec       	ldi	r24, 0xC7	; 199
     412:	90 e0       	ldi	r25, 0x00	; 0
     414:	01 97       	sbiw	r24, 0x01	; 1
     416:	f1 f7       	brne	.-4      	; 0x414 <send_DAC_data+0x1e>
     418:	00 c0       	rjmp	.+0      	; 0x41a <send_DAC_data+0x24>
     41a:	00 00       	nop
	_delay_us(50);
	TWI_Start_Transceiver_With_Data(data,size);
     41c:	63 e0       	ldi	r22, 0x03	; 3
     41e:	ce 01       	movw	r24, r28
     420:	99 d5       	rcall	.+2866   	; 0xf54 <TWI_Start_Transceiver_With_Data>
     422:	8f e8       	ldi	r24, 0x8F	; 143
     424:	91 e0       	ldi	r25, 0x01	; 1
     426:	01 97       	sbiw	r24, 0x01	; 1
     428:	f1 f7       	brne	.-4      	; 0x426 <send_DAC_data+0x30>
     42a:	00 c0       	rjmp	.+0      	; 0x42c <send_DAC_data+0x36>
     42c:	00 00       	nop
	_delay_us(100);
	free(data);
     42e:	ce 01       	movw	r24, r28
     430:	0e 94 19 0b 	call	0x1632	; 0x1632 <free>
}
     434:	df 91       	pop	r29
     436:	cf 91       	pop	r28
     438:	1f 91       	pop	r17
     43a:	08 95       	ret

0000043c <init>:
	printf("Score is: %d\n",score);
	return score;
}

void goal_scored() {
	paused = TRUE;
     43c:	ef 92       	push	r14
     43e:	ff 92       	push	r15
     440:	0f 93       	push	r16
     442:	1f 93       	push	r17
     444:	87 e6       	ldi	r24, 0x67	; 103
     446:	90 e0       	ldi	r25, 0x00	; 0
     448:	3d d6       	rcall	.+3194   	; 0x10c4 <USART_Init>
     44a:	2f ef       	ldi	r18, 0xFF	; 255
     44c:	89 ef       	ldi	r24, 0xF9	; 249
     44e:	90 e0       	ldi	r25, 0x00	; 0
     450:	21 50       	subi	r18, 0x01	; 1
     452:	80 40       	sbci	r24, 0x00	; 0
     454:	90 40       	sbci	r25, 0x00	; 0
     456:	e1 f7       	brne	.-8      	; 0x450 <init+0x14>
     458:	00 c0       	rjmp	.+0      	; 0x45a <init+0x1e>
     45a:	00 00       	nop
     45c:	86 e7       	ldi	r24, 0x76	; 118
     45e:	92 e0       	ldi	r25, 0x02	; 2
     460:	0e 94 1e 0c 	call	0x183c	; 0x183c <puts>
     464:	f9 de       	rcall	.-526    	; 0x258 <can_init>
     466:	03 df       	rcall	.-506    	; 0x26e <CAN_enable_normal_mode>
     468:	8f d4       	rcall	.+2334   	; 0xd88 <pwm_init>
     46a:	4d d4       	rcall	.+2202   	; 0xd06 <motor_control_init>
     46c:	d1 de       	rcall	.-606    	; 0x210 <setup_ADC>
     46e:	e8 de       	rcall	.-560    	; 0x240 <start_ADC>
     470:	46 d5       	rcall	.+2700   	; 0xefe <setup_solenoid>
     472:	1b d2       	rcall	.+1078   	; 0x8aa <motor_control_init_clock>
     474:	81 e0       	ldi	r24, 0x01	; 1
     476:	97 d2       	rcall	.+1326   	; 0x9a6 <motor_control_set_playing_flag>
     478:	e1 2c       	mov	r14, r1
     47a:	f1 2c       	mov	r15, r1
     47c:	87 01       	movw	r16, r14
     47e:	2a e9       	ldi	r18, 0x9A	; 154
     480:	39 e9       	ldi	r19, 0x99	; 153
     482:	49 e9       	ldi	r20, 0x99	; 153
     484:	5e e3       	ldi	r21, 0x3E	; 62
     486:	60 e0       	ldi	r22, 0x00	; 0
     488:	70 e0       	ldi	r23, 0x00	; 0
     48a:	80 e8       	ldi	r24, 0x80	; 128
     48c:	9f e3       	ldi	r25, 0x3F	; 63
     48e:	d0 d2       	rcall	.+1440   	; 0xa30 <motor_control_set_pid_gains>
     490:	1f 91       	pop	r17
     492:	0f 91       	pop	r16
     494:	ff 90       	pop	r15
     496:	ef 90       	pop	r14
     498:	08 95       	ret

0000049a <score_keeper>:
     49a:	80 91 c3 03 	lds	r24, 0x03C3
     49e:	8f 5f       	subi	r24, 0xFF	; 255
     4a0:	80 93 c3 03 	sts	0x03C3, r24
     4a4:	10 92 c1 03 	sts	0x03C1, r1
     4a8:	1f 92       	push	r1
     4aa:	8f 93       	push	r24
     4ac:	83 e8       	ldi	r24, 0x83	; 131
     4ae:	92 e0       	ldi	r25, 0x02	; 2
     4b0:	9f 93       	push	r25
     4b2:	8f 93       	push	r24
     4b4:	0e 94 0d 0c 	call	0x181a	; 0x181a <printf>
     4b8:	0f 90       	pop	r0
     4ba:	0f 90       	pop	r0
     4bc:	0f 90       	pop	r0
     4be:	0f 90       	pop	r0
     4c0:	80 91 c3 03 	lds	r24, 0x03C3
     4c4:	08 95       	ret

000004c6 <read_ps4_controller>:
}

// Parse string from UART
uint8_t read_ps4_controller()
{
     4c6:	ef 92       	push	r14
     4c8:	ff 92       	push	r15
     4ca:	0f 93       	push	r16
     4cc:	1f 93       	push	r17
     4ce:	cf 93       	push	r28
     4d0:	df 93       	push	r29
     4d2:	cd b7       	in	r28, 0x3d	; 61
     4d4:	de b7       	in	r29, 0x3e	; 62
     4d6:	c4 56       	subi	r28, 0x64	; 100
     4d8:	d1 09       	sbc	r29, r1
     4da:	0f b6       	in	r0, 0x3f	; 63
     4dc:	f8 94       	cli
     4de:	de bf       	out	0x3e, r29	; 62
     4e0:	0f be       	out	0x3f, r0	; 63
     4e2:	cd bf       	out	0x3d, r28	; 61
	
	if (!(UCSR0A & (1<<RXC0)))
     4e4:	80 91 c0 00 	lds	r24, 0x00C0
     4e8:	88 23       	and	r24, r24
     4ea:	64 f5       	brge	.+88     	; 0x544 <read_ps4_controller+0x7e>
	{
		// No data in UART receive register
		return 0;
	}
	unsigned char string[100];
	scanf("%s",string);
     4ec:	ce 01       	movw	r24, r28
     4ee:	01 96       	adiw	r24, 0x01	; 1
     4f0:	9f 93       	push	r25
     4f2:	8f 93       	push	r24
     4f4:	81 e9       	ldi	r24, 0x91	; 145
     4f6:	92 e0       	ldi	r25, 0x02	; 2
     4f8:	9f 93       	push	r25
     4fa:	8f 93       	push	r24
     4fc:	0e 94 4b 0c 	call	0x1896	; 0x1896 <scanf>
     500:	0b ed       	ldi	r16, 0xDB	; 219
     502:	13 e0       	ldi	r17, 0x03	; 3
     504:	0f 2e       	mov	r0, r31
     506:	ff ee       	ldi	r31, 0xEF	; 239
     508:	ef 2e       	mov	r14, r31
     50a:	f3 e0       	ldi	r31, 0x03	; 3
     50c:	ff 2e       	mov	r15, r31
     50e:	f0 2d       	mov	r31, r0
	char *token;
	uint8_t i = 0;
	while ((token = strsep(&string, ":")) && i < 5)
     510:	0f 90       	pop	r0
     512:	0f 90       	pop	r0
     514:	0f 90       	pop	r0
     516:	0f 90       	pop	r0
     518:	08 c0       	rjmp	.+16     	; 0x52a <read_ps4_controller+0x64>
	{
		ps4_values[i] = atof(token);
     51a:	0e 94 a8 0b 	call	0x1750	; 0x1750 <atof>
     51e:	f8 01       	movw	r30, r16
     520:	61 93       	st	Z+, r22
     522:	71 93       	st	Z+, r23
     524:	81 93       	st	Z+, r24
     526:	91 93       	st	Z+, r25
     528:	8f 01       	movw	r16, r30
	}
	unsigned char string[100];
	scanf("%s",string);
	char *token;
	uint8_t i = 0;
	while ((token = strsep(&string, ":")) && i < 5)
     52a:	64 e9       	ldi	r22, 0x94	; 148
     52c:	72 e0       	ldi	r23, 0x02	; 2
     52e:	ce 01       	movw	r24, r28
     530:	01 96       	adiw	r24, 0x01	; 1
     532:	0e 94 ab 0b 	call	0x1756	; 0x1756 <strsep>
     536:	00 97       	sbiw	r24, 0x00	; 0
     538:	39 f0       	breq	.+14     	; 0x548 <read_ps4_controller+0x82>
     53a:	0e 15       	cp	r16, r14
     53c:	1f 05       	cpc	r17, r15
     53e:	69 f7       	brne	.-38     	; 0x51a <read_ps4_controller+0x54>
	{
		ps4_values[i] = atof(token);
		i++;
	}
	return 1;
     540:	81 e0       	ldi	r24, 0x01	; 1
     542:	03 c0       	rjmp	.+6      	; 0x54a <read_ps4_controller+0x84>
{
	
	if (!(UCSR0A & (1<<RXC0)))
	{
		// No data in UART receive register
		return 0;
     544:	80 e0       	ldi	r24, 0x00	; 0
     546:	01 c0       	rjmp	.+2      	; 0x54a <read_ps4_controller+0x84>
	while ((token = strsep(&string, ":")) && i < 5)
	{
		ps4_values[i] = atof(token);
		i++;
	}
	return 1;
     548:	81 e0       	ldi	r24, 0x01	; 1
}
     54a:	cc 59       	subi	r28, 0x9C	; 156
     54c:	df 4f       	sbci	r29, 0xFF	; 255
     54e:	0f b6       	in	r0, 0x3f	; 63
     550:	f8 94       	cli
     552:	de bf       	out	0x3e, r29	; 62
     554:	0f be       	out	0x3f, r0	; 63
     556:	cd bf       	out	0x3d, r28	; 61
     558:	df 91       	pop	r29
     55a:	cf 91       	pop	r28
     55c:	1f 91       	pop	r17
     55e:	0f 91       	pop	r16
     560:	ff 90       	pop	r15
     562:	ef 90       	pop	r14
     564:	08 95       	ret

00000566 <mapped_ps4_pos>:

int mapped_ps4_pos(float value)
{
	int integer_value = (int) value * 100;
     566:	27 d6       	rcall	.+3150   	; 0x11b6 <__fixsfsi>
     568:	44 e6       	ldi	r20, 0x64	; 100
     56a:	46 9f       	mul	r20, r22
     56c:	90 01       	movw	r18, r0
     56e:	47 9f       	mul	r20, r23
     570:	30 0d       	add	r19, r0
     572:	11 24       	eor	r1, r1
	return (integer_value + 100) * 255/ 200;
     574:	2c 59       	subi	r18, 0x9C	; 156
     576:	3f 4f       	sbci	r19, 0xFF	; 255
     578:	4f ef       	ldi	r20, 0xFF	; 255
     57a:	42 9f       	mul	r20, r18
     57c:	c0 01       	movw	r24, r0
     57e:	43 9f       	mul	r20, r19
     580:	90 0d       	add	r25, r0
     582:	11 24       	eor	r1, r1
     584:	68 ec       	ldi	r22, 0xC8	; 200
     586:	70 e0       	ldi	r23, 0x00	; 0
     588:	4c d7       	rcall	.+3736   	; 0x1422 <__divmodhi4>
     58a:	cb 01       	movw	r24, r22
}
     58c:	08 95       	ret

0000058e <main>:

float ps4_values[5];


int main(void)
{
     58e:	cf 93       	push	r28
     590:	df 93       	push	r29
     592:	cd b7       	in	r28, 0x3d	; 61
     594:	de b7       	in	r29, 0x3e	; 62
     596:	2f 97       	sbiw	r28, 0x0f	; 15
     598:	0f b6       	in	r0, 0x3f	; 63
     59a:	f8 94       	cli
     59c:	de bf       	out	0x3e, r29	; 62
     59e:	0f be       	out	0x3f, r0	; 63
     5a0:	cd bf       	out	0x3d, r28	; 61
	
	init();
     5a2:	4c df       	rcall	.-360    	; 0x43c <init>
	int8_t prev_x_axis;
	uint8_t prev_slider;
	uint8_t closed_loop = TRUE;
	
	// Default multifunction board
	Control_mode  control_mode = MFB;
     5a4:	bb 24       	eor	r11, r11
     5a6:	b3 94       	inc	r11
	can_message* received;
	uint8_t previous_button = 0;
	uint8_t previous_joystick_button = 0;
	float joystick_x_percentage;
	float joystick_y_percentage;
	uint8_t slider = 50;
     5a8:	0f 2e       	mov	r0, r31
     5aa:	f2 e3       	ldi	r31, 0x32	; 50
     5ac:	7f 2e       	mov	r7, r31
     5ae:	f0 2d       	mov	r31, r0
	uint8_t adc_value = 0;
	int accumulated_value = 0;
	int averaged_value = 0;
	can_message* received;
	uint8_t previous_button = 0;
	uint8_t previous_joystick_button = 0;
     5b0:	31 2c       	mov	r3, r1
	uint8_t counter = 0;
	uint8_t adc_value = 0;
	int accumulated_value = 0;
	int averaged_value = 0;
	can_message* received;
	uint8_t previous_button = 0;
     5b2:	21 2c       	mov	r2, r1
	direction dir;
	axis_int_bytes x_axis;
	int y_axis;
	uint8_t counter = 0;
	uint8_t adc_value = 0;
	int accumulated_value = 0;
     5b4:	c1 2c       	mov	r12, r1
     5b6:	d1 2c       	mov	r13, r1
	can_message send_message;
	joyValues values;
	direction dir;
	axis_int_bytes x_axis;
	int y_axis;
	uint8_t counter = 0;
     5b8:	81 2c       	mov	r8, r1
		if(paused == FALSE) {
			adc_value = get_ADC_value();
			accumulated_value += adc_value;
			counter++;
			if (counter==5)
			{	counter = 0;
     5ba:	91 2c       	mov	r9, r1
	printf("Score is: %d\n",score);
	return score;
}

void goal_scored() {
	paused = TRUE;
     5bc:	aa 24       	eor	r10, r10
     5be:	a3 94       	inc	r10

	
	while(1)
	{
		
		if(paused == FALSE) {
     5c0:	80 91 c2 03 	lds	r24, 0x03C2
     5c4:	81 11       	cpse	r24, r1
     5c6:	18 c0       	rjmp	.+48     	; 0x5f8 <main+0x6a>
			adc_value = get_ADC_value();
     5c8:	44 de       	rcall	.-888    	; 0x252 <get_ADC_value>
			accumulated_value += adc_value;
     5ca:	c8 0e       	add	r12, r24
     5cc:	d1 1c       	adc	r13, r1
			counter++;
     5ce:	83 94       	inc	r8
			if (counter==5)
     5d0:	25 e0       	ldi	r18, 0x05	; 5
     5d2:	82 12       	cpse	r8, r18
     5d4:	11 c0       	rjmp	.+34     	; 0x5f8 <main+0x6a>
			{	counter = 0;
				//printf("accumulated_value= %d \n",accumulated_value);
				averaged_value = accumulated_value/5;
				accumulated_value = 0;
				if (averaged_value < 80) {
     5d6:	30 e9       	ldi	r19, 0x90	; 144
     5d8:	c3 16       	cp	r12, r19
     5da:	31 e0       	ldi	r19, 0x01	; 1
     5dc:	d3 06       	cpc	r13, r19
     5de:	4c f4       	brge	.+18     	; 0x5f2 <main+0x64>
					averaged_value=0;
					score = score_keeper();
     5e0:	5c df       	rcall	.-328    	; 0x49a <score_keeper>
     5e2:	80 93 c3 03 	sts	0x03C3, r24
	printf("Score is: %d\n",score);
	return score;
}

void goal_scored() {
	paused = TRUE;
     5e6:	a0 92 c2 03 	sts	0x03C2, r10
			counter++;
			if (counter==5)
			{	counter = 0;
				//printf("accumulated_value= %d \n",accumulated_value);
				averaged_value = accumulated_value/5;
				accumulated_value = 0;
     5ea:	c1 2c       	mov	r12, r1
     5ec:	d1 2c       	mov	r13, r1
		if(paused == FALSE) {
			adc_value = get_ADC_value();
			accumulated_value += adc_value;
			counter++;
			if (counter==5)
			{	counter = 0;
     5ee:	89 2c       	mov	r8, r9
     5f0:	03 c0       	rjmp	.+6      	; 0x5f8 <main+0x6a>
				//printf("accumulated_value= %d \n",accumulated_value);
				averaged_value = accumulated_value/5;
				accumulated_value = 0;
     5f2:	c1 2c       	mov	r12, r1
     5f4:	d1 2c       	mov	r13, r1
		if(paused == FALSE) {
			adc_value = get_ADC_value();
			accumulated_value += adc_value;
			counter++;
			if (counter==5)
			{	counter = 0;
     5f6:	89 2c       	mov	r8, r9
				}
			}
		}
		

		can_message* received = malloc(sizeof(can_message));
     5f8:	8b e0       	ldi	r24, 0x0B	; 11
     5fa:	90 e0       	ldi	r25, 0x00	; 0
     5fc:	82 d7       	rcall	.+3844   	; 0x1502 <malloc>
     5fe:	8c 01       	movw	r16, r24
		can_receive_message(received);
     600:	38 de       	rcall	.-912    	; 0x272 <can_receive_message>
     602:	f8 01       	movw	r30, r16
     604:	80 81       	ld	r24, Z
     606:	91 81       	ldd	r25, Z+1	; 0x01
     608:	99 27       	eor	r25, r25
		message_id = received->ID;
		switch(message_id)
     60a:	81 30       	cpi	r24, 0x01	; 1
     60c:	91 05       	cpc	r25, r1
     60e:	19 f0       	breq	.+6      	; 0x616 <main+0x88>
     610:	02 97       	sbiw	r24, 0x02	; 2
     612:	11 f1       	breq	.+68     	; 0x658 <main+0xca>
     614:	29 c0       	rjmp	.+82     	; 0x668 <main+0xda>
			
			
			case 1:
			{
				// input data from node 1
				values.left_button = received->data[0];
     616:	f8 01       	movw	r30, r16
     618:	23 81       	ldd	r18, Z+3	; 0x03
     61a:	30 e0       	ldi	r19, 0x00	; 0
				values.right_button = received->data[1];
				values.joystick_button = received->data[2];
     61c:	85 81       	ldd	r24, Z+5	; 0x05
     61e:	90 e0       	ldi	r25, 0x00	; 0
				dir = (direction) received->data[3];
				x_axis.bytes_axis[0] = received->data[4];
     620:	57 80       	ldd	r5, Z+7	; 0x07
				x_axis.bytes_axis[1] = received->data[5];
     622:	40 84       	ldd	r4, Z+8	; 0x08
				slider = received->data[6];
     624:	71 84       	ldd	r7, Z+9	; 0x09
				if(values.left_button == previous_button){
     626:	42 2d       	mov	r20, r2
     628:	50 e0       	ldi	r21, 0x00	; 0
     62a:	24 17       	cp	r18, r20
     62c:	35 07       	cpc	r19, r21
     62e:	51 f0       	breq	.+20     	; 0x644 <main+0xb6>
					values.left_button = 0;
				}
				else{
					previous_button = 0;
				}
				if (values.left_button == 1) {
     630:	21 30       	cpi	r18, 0x01	; 1
     632:	31 05       	cpc	r19, r1
     634:	31 f4       	brne	.+12     	; 0x642 <main+0xb4>
					previous_button = values.left_button;
					paused = FALSE;
     636:	90 92 c2 03 	sts	0x03C2, r9
					message_sent = FALSE;
     63a:	90 92 c1 03 	sts	0x03C1, r9
				}
				else{
					previous_button = 0;
				}
				if (values.left_button == 1) {
					previous_button = values.left_button;
     63e:	2a 2c       	mov	r2, r10
     640:	01 c0       	rjmp	.+2      	; 0x644 <main+0xb6>
				slider = received->data[6];
				if(values.left_button == previous_button){
					values.left_button = 0;
				}
				else{
					previous_button = 0;
     642:	29 2c       	mov	r2, r9
				if (values.left_button == 1) {
					previous_button = values.left_button;
					paused = FALSE;
					message_sent = FALSE;
				}
				if(values.joystick_button == previous_joystick_button){
     644:	23 2d       	mov	r18, r3
     646:	30 e0       	ldi	r19, 0x00	; 0
     648:	82 17       	cp	r24, r18
     64a:	93 07       	cpc	r25, r19
     64c:	69 f0       	breq	.+26     	; 0x668 <main+0xda>
					values.joystick_button = 0;
				}
				else{
					previous_joystick_button = 0;
				}
				if (values.joystick_button == 1) {
     64e:	01 97       	sbiw	r24, 0x01	; 1
     650:	51 f4       	brne	.+20     	; 0x666 <main+0xd8>
					previous_joystick_button = values.joystick_button;
					solenoid_shoot();
     652:	46 d4       	rcall	.+2188   	; 0xee0 <solenoid_shoot>
				}
				else{
					previous_joystick_button = 0;
				}
				if (values.joystick_button == 1) {
					previous_joystick_button = values.joystick_button;
     654:	3a 2c       	mov	r3, r10
     656:	08 c0       	rjmp	.+16     	; 0x668 <main+0xda>
			
			case 2:
			{
				// Control message: data[0] = control mode, data[1] = paused/playing, data[2] =
				// 0 = ps4, 1 = multifunction board
				if(received->data[0])
     658:	ba 2c       	mov	r11, r10
     65a:	f8 01       	movw	r30, r16
     65c:	83 81       	ldd	r24, Z+3	; 0x03
     65e:	81 11       	cpse	r24, r1
     660:	03 c0       	rjmp	.+6      	; 0x668 <main+0xda>
     662:	b9 2c       	mov	r11, r9
     664:	01 c0       	rjmp	.+2      	; 0x668 <main+0xda>
				}
				if(values.joystick_button == previous_joystick_button){
					values.joystick_button = 0;
				}
				else{
					previous_joystick_button = 0;
     666:	39 2c       	mov	r3, r9
				break;
			}
			
		}
		
		switch(control_mode)
     668:	bb 20       	and	r11, r11
     66a:	29 f0       	breq	.+10     	; 0x676 <main+0xe8>
     66c:	f1 e0       	ldi	r31, 0x01	; 1
     66e:	bf 16       	cp	r11, r31
     670:	09 f4       	brne	.+2      	; 0x674 <main+0xe6>
     672:	38 c0       	rjmp	.+112    	; 0x6e4 <main+0x156>
     674:	51 c0       	rjmp	.+162    	; 0x718 <main+0x18a>
		{
			case PS4:
			{
				uart_data_received = read_ps4_controller();
     676:	27 df       	rcall	.-434    	; 0x4c6 <read_ps4_controller>
				if(uart_data_received)
     678:	88 23       	and	r24, r24
     67a:	09 f4       	brne	.+2      	; 0x67e <main+0xf0>
     67c:	4d c0       	rjmp	.+154    	; 0x718 <main+0x18a>
				{
					// Data received over uart
					int angle = (int) ps4_values[0]*100;
     67e:	eb ed       	ldi	r30, 0xDB	; 219
     680:	f3 e0       	ldi	r31, 0x03	; 3
     682:	60 81       	ld	r22, Z
     684:	71 81       	ldd	r23, Z+1	; 0x01
     686:	82 81       	ldd	r24, Z+2	; 0x02
     688:	93 81       	ldd	r25, Z+3	; 0x03
     68a:	95 d5       	rcall	.+2858   	; 0x11b6 <__fixsfsi>
     68c:	44 e6       	ldi	r20, 0x64	; 100
     68e:	46 9f       	mul	r20, r22
     690:	90 01       	movw	r18, r0
     692:	47 9f       	mul	r20, r23
     694:	30 0d       	add	r19, r0
     696:	11 24       	eor	r1, r1
     698:	3e 87       	std	Y+14, r19	; 0x0e
     69a:	2d 87       	std	Y+13, r18	; 0x0d
					int pos_ref = mapped_ps4_pos(ps4_values[2]);
     69c:	e3 ee       	ldi	r30, 0xE3	; 227
     69e:	f3 e0       	ldi	r31, 0x03	; 3
     6a0:	60 81       	ld	r22, Z
     6a2:	71 81       	ldd	r23, Z+1	; 0x01
     6a4:	82 81       	ldd	r24, Z+2	; 0x02
     6a6:	93 81       	ldd	r25, Z+3	; 0x03
     6a8:	5e df       	rcall	.-324    	; 0x566 <mapped_ps4_pos>
     6aa:	7c 01       	movw	r14, r24
					ps4_trigger = (uint8_t) ps4_values[4];
     6ac:	eb ee       	ldi	r30, 0xEB	; 235
     6ae:	f3 e0       	ldi	r31, 0x03	; 3
     6b0:	60 81       	ld	r22, Z
     6b2:	71 81       	ldd	r23, Z+1	; 0x01
     6b4:	82 81       	ldd	r24, Z+2	; 0x02
     6b6:	93 81       	ldd	r25, Z+3	; 0x03
     6b8:	83 d5       	rcall	.+2822   	; 0x11c0 <__fixunssfsi>
     6ba:	6c 87       	std	Y+12, r22	; 0x0c
					if(ps4_trigger == previous_ps4_trigger){
     6bc:	ff 85       	ldd	r31, Y+15	; 0x0f
     6be:	6f 17       	cp	r22, r31
     6c0:	39 f0       	breq	.+14     	; 0x6d0 <main+0x142>
						ps4_trigger = 0;
					}
					else{
						previous_ps4_trigger = 0;
					}
					if (ps4_trigger == 1) {
     6c2:	61 30       	cpi	r22, 0x01	; 1
     6c4:	21 f4       	brne	.+8      	; 0x6ce <main+0x140>
						previous_ps4_trigger = ps4_trigger;
						solenoid_shoot();
     6c6:	0c d4       	rcall	.+2072   	; 0xee0 <solenoid_shoot>
					}
					else{
						previous_ps4_trigger = 0;
					}
					if (ps4_trigger == 1) {
						previous_ps4_trigger = ps4_trigger;
     6c8:	2c 85       	ldd	r18, Y+12	; 0x0c
     6ca:	2f 87       	std	Y+15, r18	; 0x0f
     6cc:	01 c0       	rjmp	.+2      	; 0x6d0 <main+0x142>
					ps4_trigger = (uint8_t) ps4_values[4];
					if(ps4_trigger == previous_ps4_trigger){
						ps4_trigger = 0;
					}
					else{
						previous_ps4_trigger = 0;
     6ce:	9f 86       	std	Y+15, r9	; 0x0f
					}
					if (ps4_trigger == 1) {
						previous_ps4_trigger = ps4_trigger;
						solenoid_shoot();
					}
					motor_control_set_reference_pos(pos_ref);
     6d0:	c7 01       	movw	r24, r14
     6d2:	25 d1       	rcall	.+586    	; 0x91e <motor_control_set_reference_pos>
					pwm_set_angle(-angle,1);
     6d4:	6a 2d       	mov	r22, r10
     6d6:	8d 85       	ldd	r24, Y+13	; 0x0d
     6d8:	9e 85       	ldd	r25, Y+14	; 0x0e
     6da:	91 95       	neg	r25
     6dc:	81 95       	neg	r24
     6de:	91 09       	sbc	r25, r1
     6e0:	98 d3       	rcall	.+1840   	; 0xe12 <pwm_set_angle>
     6e2:	1a c0       	rjmp	.+52     	; 0x718 <main+0x18a>
			
			
			case MFB:
			{
				if (closed_loop) {
					motor_control_set_reference_pos(slider);
     6e4:	87 2d       	mov	r24, r7
     6e6:	90 e0       	ldi	r25, 0x00	; 0
     6e8:	1a d1       	rcall	.+564    	; 0x91e <motor_control_set_reference_pos>
					if(abs(x_axis.int_axis - prev_x_axis)>3) pwm_set_angle(-x_axis.int_axis,1);
     6ea:	e5 2c       	mov	r14, r5
     6ec:	f4 2c       	mov	r15, r4
     6ee:	97 01       	movw	r18, r14
     6f0:	26 19       	sub	r18, r6
     6f2:	31 09       	sbc	r19, r1
     6f4:	67 fc       	sbrc	r6, 7
     6f6:	33 95       	inc	r19
     6f8:	c9 01       	movw	r24, r18
     6fa:	99 23       	and	r25, r25
     6fc:	24 f4       	brge	.+8      	; 0x706 <main+0x178>
     6fe:	88 27       	eor	r24, r24
     700:	99 27       	eor	r25, r25
     702:	82 1b       	sub	r24, r18
     704:	93 0b       	sbc	r25, r19
     706:	04 97       	sbiw	r24, 0x04	; 4
     708:	34 f0       	brlt	.+12     	; 0x716 <main+0x188>
     70a:	6a 2d       	mov	r22, r10
     70c:	88 27       	eor	r24, r24
     70e:	99 27       	eor	r25, r25
     710:	8e 19       	sub	r24, r14
     712:	9f 09       	sbc	r25, r15
     714:	7e d3       	rcall	.+1788   	; 0xe12 <pwm_set_angle>
					prev_x_axis = x_axis.int_axis;
     716:	6e 2c       	mov	r6, r14
			
			
		}		
		
		
		if(score < 3 && !message_sent) {
     718:	80 91 c3 03 	lds	r24, 0x03C3
     71c:	83 30       	cpi	r24, 0x03	; 3
     71e:	d0 f4       	brcc	.+52     	; 0x754 <main+0x1c6>
     720:	90 91 c1 03 	lds	r25, 0x03C1
     724:	91 11       	cpse	r25, r1
     726:	16 c0       	rjmp	.+44     	; 0x754 <main+0x1c6>
			// Send number of hits
			send_message.ID = 3;
     728:	e3 e0       	ldi	r30, 0x03	; 3
     72a:	f0 e0       	ldi	r31, 0x00	; 0
     72c:	fa 83       	std	Y+2, r31	; 0x02
     72e:	e9 83       	std	Y+1, r30	; 0x01
			send_message.length = 1;
     730:	ab 82       	std	Y+3, r10	; 0x03
			send_message.data[0]=score;
     732:	8c 83       	std	Y+4, r24	; 0x04
			//printf("ADC value: %d \n", get_ADC_value());
			uint8_t sent = can_send_message(&send_message);
     734:	ce 01       	movw	r24, r28
     736:	01 96       	adiw	r24, 0x01	; 1
     738:	26 de       	rcall	.-948    	; 0x386 <can_send_message>
	#else
		//round up by default
		__ticks_dc = (uint32_t)(ceil(fabs(__tmp)));
	#endif

	__builtin_avr_delay_cycles(__ticks_dc);
     73a:	ef e3       	ldi	r30, 0x3F	; 63
     73c:	fc e9       	ldi	r31, 0x9C	; 156
     73e:	31 97       	sbiw	r30, 0x01	; 1
     740:	f1 f7       	brne	.-4      	; 0x73e <main+0x1b0>
     742:	00 c0       	rjmp	.+0      	; 0x744 <main+0x1b6>
     744:	00 00       	nop
			_delay_ms(10);
			if (sent == 1) {
     746:	81 30       	cpi	r24, 0x01	; 1
     748:	19 f4       	brne	.+6      	; 0x750 <main+0x1c2>
				message_sent = TRUE;
     74a:	a0 92 c1 03 	sts	0x03C1, r10
     74e:	02 c0       	rjmp	.+4      	; 0x754 <main+0x1c6>
			}
			else{
				message_sent = FALSE;
     750:	90 92 c1 03 	sts	0x03C1, r9
			
		}
		
		
		
		free(received);
     754:	c8 01       	movw	r24, r16
     756:	6d d7       	rcall	.+3802   	; 0x1632 <free>
		//Construct return data:
		if(score>=3 && !message_sent) {
     758:	80 91 c3 03 	lds	r24, 0x03C3
     75c:	83 30       	cpi	r24, 0x03	; 3
     75e:	f0 f0       	brcs	.+60     	; 0x79c <main+0x20e>
     760:	90 91 c1 03 	lds	r25, 0x03C1
     764:	91 11       	cpse	r25, r1
     766:	1a c0       	rjmp	.+52     	; 0x79c <main+0x20e>
			// Game lost, send message
			send_message.ID = 4;
     768:	24 e0       	ldi	r18, 0x04	; 4
     76a:	30 e0       	ldi	r19, 0x00	; 0
     76c:	3a 83       	std	Y+2, r19	; 0x02
     76e:	29 83       	std	Y+1, r18	; 0x01
			send_message.length = 1;
     770:	ab 82       	std	Y+3, r10	; 0x03
			send_message.data[0]=score;
     772:	8c 83       	std	Y+4, r24	; 0x04
			//printf("ADC value: %d \n", get_ADC_value());
			//printf("HEre\n");
			uint8_t sent = can_send_message(&send_message);
     774:	ce 01       	movw	r24, r28
     776:	01 96       	adiw	r24, 0x01	; 1
     778:	06 de       	rcall	.-1012   	; 0x386 <can_send_message>
     77a:	ef e3       	ldi	r30, 0x3F	; 63
     77c:	fc e9       	ldi	r31, 0x9C	; 156
     77e:	31 97       	sbiw	r30, 0x01	; 1
     780:	f1 f7       	brne	.-4      	; 0x77e <main+0x1f0>
     782:	00 c0       	rjmp	.+0      	; 0x784 <main+0x1f6>
     784:	00 00       	nop
			_delay_ms(10);
			if (sent == 1) {
     786:	81 30       	cpi	r24, 0x01	; 1
     788:	19 f4       	brne	.+6      	; 0x790 <main+0x202>
				message_sent = TRUE;
     78a:	a0 92 c1 03 	sts	0x03C1, r10
     78e:	02 c0       	rjmp	.+4      	; 0x794 <main+0x206>
			}
			else{
				message_sent = FALSE;
     790:	90 92 c1 03 	sts	0x03C1, r9
			}
			score = 0;
     794:	90 92 c3 03 	sts	0x03C3, r9
			paused = TRUE;
     798:	a0 92 c2 03 	sts	0x03C2, r10
     79c:	ff ef       	ldi	r31, 0xFF	; 255
     79e:	20 e7       	ldi	r18, 0x70	; 112
     7a0:	32 e0       	ldi	r19, 0x02	; 2
     7a2:	f1 50       	subi	r31, 0x01	; 1
     7a4:	20 40       	sbci	r18, 0x00	; 0
     7a6:	30 40       	sbci	r19, 0x00	; 0
     7a8:	e1 f7       	brne	.-8      	; 0x7a2 <main+0x214>
     7aa:	00 c0       	rjmp	.+0      	; 0x7ac <main+0x21e>
     7ac:	00 00       	nop
     7ae:	08 cf       	rjmp	.-496    	; 0x5c0 <main+0x32>

000007b0 <mcp_2515_read>:
		printf("NOT in LOOPBACK mode\n");
		return 1;
	}
	printf("Loopback enabled\n");
	return 0;
}
     7b0:	cf 93       	push	r28
     7b2:	c8 2f       	mov	r28, r24
     7b4:	bf d3       	rcall	.+1918   	; 0xf34 <spi_enable>
     7b6:	83 e0       	ldi	r24, 0x03	; 3
     7b8:	b2 d3       	rcall	.+1892   	; 0xf1e <spi_send>
     7ba:	8c 2f       	mov	r24, r28
     7bc:	b0 d3       	rcall	.+1888   	; 0xf1e <spi_send>
     7be:	b4 d3       	rcall	.+1896   	; 0xf28 <spi_read>
     7c0:	c8 2f       	mov	r28, r24
     7c2:	bb d3       	rcall	.+1910   	; 0xf3a <spi_disable>
     7c4:	8c 2f       	mov	r24, r28
     7c6:	cf 91       	pop	r28
     7c8:	08 95       	ret

000007ca <mcp_2515_write>:
     7ca:	cf 93       	push	r28
     7cc:	df 93       	push	r29
     7ce:	d8 2f       	mov	r29, r24
     7d0:	c6 2f       	mov	r28, r22
     7d2:	b0 d3       	rcall	.+1888   	; 0xf34 <spi_enable>
     7d4:	82 e0       	ldi	r24, 0x02	; 2
     7d6:	a3 d3       	rcall	.+1862   	; 0xf1e <spi_send>
     7d8:	8d 2f       	mov	r24, r29
     7da:	a1 d3       	rcall	.+1858   	; 0xf1e <spi_send>
     7dc:	8c 2f       	mov	r24, r28
     7de:	9f d3       	rcall	.+1854   	; 0xf1e <spi_send>
     7e0:	ac d3       	rcall	.+1880   	; 0xf3a <spi_disable>
     7e2:	df 91       	pop	r29
     7e4:	cf 91       	pop	r28
     7e6:	08 95       	ret

000007e8 <mcp_2515_request_to_send>:
     7e8:	cf 93       	push	r28
     7ea:	c8 2f       	mov	r28, r24
     7ec:	a3 d3       	rcall	.+1862   	; 0xf34 <spi_enable>
     7ee:	8c 2f       	mov	r24, r28
     7f0:	96 d3       	rcall	.+1836   	; 0xf1e <spi_send>
     7f2:	a3 d3       	rcall	.+1862   	; 0xf3a <spi_disable>
     7f4:	cf 91       	pop	r28
     7f6:	08 95       	ret

000007f8 <mcp_2515_bit_modify>:
     7f8:	1f 93       	push	r17
     7fa:	cf 93       	push	r28
     7fc:	df 93       	push	r29
     7fe:	18 2f       	mov	r17, r24
     800:	d6 2f       	mov	r29, r22
     802:	c4 2f       	mov	r28, r20
     804:	97 d3       	rcall	.+1838   	; 0xf34 <spi_enable>
     806:	85 e0       	ldi	r24, 0x05	; 5
     808:	8a d3       	rcall	.+1812   	; 0xf1e <spi_send>
     80a:	81 2f       	mov	r24, r17
     80c:	88 d3       	rcall	.+1808   	; 0xf1e <spi_send>
     80e:	8d 2f       	mov	r24, r29
     810:	86 d3       	rcall	.+1804   	; 0xf1e <spi_send>
     812:	8c 2f       	mov	r24, r28
     814:	84 d3       	rcall	.+1800   	; 0xf1e <spi_send>
     816:	91 d3       	rcall	.+1826   	; 0xf3a <spi_disable>
     818:	df 91       	pop	r29
     81a:	cf 91       	pop	r28
     81c:	1f 91       	pop	r17
     81e:	08 95       	ret

00000820 <mcp_2515_enable_normal_operation>:

uint8_t mcp_2515_enable_normal_operation()
{
     820:	cf 93       	push	r28
     822:	df 93       	push	r29
     824:	1f 92       	push	r1
     826:	cd b7       	in	r28, 0x3d	; 61
     828:	de b7       	in	r29, 0x3e	; 62
	// Enable normal operation in the CANCTRL-register
	mcp_2515_bit_modify(MCP_CANCTRL,MODE_MASK,MODE_NORMAL);
     82a:	40 e0       	ldi	r20, 0x00	; 0
     82c:	60 ee       	ldi	r22, 0xE0	; 224
     82e:	8f e0       	ldi	r24, 0x0F	; 15
     830:	e3 df       	rcall	.-58     	; 0x7f8 <mcp_2515_bit_modify>
	// Check if normal mode is enabled
	volatile uint8_t value = mcp_2515_read(MCP_CANSTAT);
     832:	8e e0       	ldi	r24, 0x0E	; 14
     834:	bd df       	rcall	.-134    	; 0x7b0 <mcp_2515_read>
     836:	89 83       	std	Y+1, r24	; 0x01
	if ((value & MODE_MASK) != MODE_NORMAL)
     838:	89 81       	ldd	r24, Y+1	; 0x01
     83a:	80 7e       	andi	r24, 0xE0	; 224
     83c:	29 f4       	brne	.+10     	; 0x848 <mcp_2515_enable_normal_operation+0x28>
	{
		return 1;
	}
	printf("MCP2515 in normal mode\n");
     83e:	8c eb       	ldi	r24, 0xBC	; 188
     840:	92 e0       	ldi	r25, 0x02	; 2
     842:	fc d7       	rcall	.+4088   	; 0x183c <puts>
	return 0;
     844:	80 e0       	ldi	r24, 0x00	; 0
     846:	01 c0       	rjmp	.+2      	; 0x84a <mcp_2515_enable_normal_operation+0x2a>
	mcp_2515_bit_modify(MCP_CANCTRL,MODE_MASK,MODE_NORMAL);
	// Check if normal mode is enabled
	volatile uint8_t value = mcp_2515_read(MCP_CANSTAT);
	if ((value & MODE_MASK) != MODE_NORMAL)
	{
		return 1;
     848:	81 e0       	ldi	r24, 0x01	; 1
	}
	printf("MCP2515 in normal mode\n");
	return 0;
}
     84a:	0f 90       	pop	r0
     84c:	df 91       	pop	r29
     84e:	cf 91       	pop	r28
     850:	08 95       	ret

00000852 <mcp_2515_reset>:
	spi_disable();
}

void mcp_2515_reset(){
	// Enable slave
	spi_enable();
     852:	70 d3       	rcall	.+1760   	; 0xf34 <spi_enable>
	
	// Send reset-command
	spi_send(MCP_RESET);
     854:	80 ec       	ldi	r24, 0xC0	; 192
     856:	63 d3       	rcall	.+1734   	; 0xf1e <spi_send>
	
	// Disable slave
	spi_disable();
     858:	70 c3       	rjmp	.+1760   	; 0xf3a <spi_disable>
     85a:	08 95       	ret

0000085c <mcp_2515_init>:
#include <avr/interrupt.h>
#include "MCP2515.h"
#include "spi.h"
#include "USART.h"

uint8_t mcp_2515_init(){
     85c:	cf 93       	push	r28
     85e:	df 93       	push	r29
     860:	1f 92       	push	r1
     862:	cd b7       	in	r28, 0x3d	; 61
     864:	de b7       	in	r29, 0x3e	; 62
	volatile uint8_t value;
	
	spi_init();
     866:	52 d3       	rcall	.+1700   	; 0xf0c <spi_init>
	mcp_2515_reset();
     868:	f4 df       	rcall	.-24     	; 0x852 <mcp_2515_reset>
	
	//Self-test
	printf("Read mcp2515\n");
     86a:	83 ed       	ldi	r24, 0xD3	; 211
     86c:	92 e0       	ldi	r25, 0x02	; 2
     86e:	e6 d7       	rcall	.+4044   	; 0x183c <puts>
	value = mcp_2515_read(MCP_CANSTAT);
     870:	8e e0       	ldi	r24, 0x0E	; 14
     872:	9e df       	rcall	.-196    	; 0x7b0 <mcp_2515_read>
     874:	89 83       	std	Y+1, r24	; 0x01
	if ((value & MODE_MASK) != MODE_CONFIG)
     876:	89 81       	ldd	r24, Y+1	; 0x01
     878:	80 7e       	andi	r24, 0xE0	; 224
     87a:	80 38       	cpi	r24, 0x80	; 128
     87c:	29 f0       	breq	.+10     	; 0x888 <mcp_2515_init+0x2c>
	{
		printf("MCP2515 is NOT in configuration mode after reset!\n");
     87e:	80 ee       	ldi	r24, 0xE0	; 224
     880:	92 e0       	ldi	r25, 0x02	; 2
     882:	dc d7       	rcall	.+4024   	; 0x183c <puts>
		return 1;
     884:	81 e0       	ldi	r24, 0x01	; 1
     886:	0d c0       	rjmp	.+26     	; 0x8a2 <mcp_2515_init+0x46>
	}
	printf("MCP2515 mode after init: %d\n", value);
     888:	89 81       	ldd	r24, Y+1	; 0x01
     88a:	1f 92       	push	r1
     88c:	8f 93       	push	r24
     88e:	82 e1       	ldi	r24, 0x12	; 18
     890:	93 e0       	ldi	r25, 0x03	; 3
     892:	9f 93       	push	r25
     894:	8f 93       	push	r24
     896:	c1 d7       	rcall	.+3970   	; 0x181a <printf>
	
	
	return 0;
     898:	0f 90       	pop	r0
     89a:	0f 90       	pop	r0
     89c:	0f 90       	pop	r0
     89e:	0f 90       	pop	r0
     8a0:	80 e0       	ldi	r24, 0x00	; 0
}
     8a2:	0f 90       	pop	r0
     8a4:	df 91       	pop	r29
     8a6:	cf 91       	pop	r28
     8a8:	08 95       	ret

000008aa <motor_control_init_clock>:
}

// Reset the score timer
void motor_control_reset_timer()
{
	clock_seconds = 0;
     8aa:	88 e8       	ldi	r24, 0x88	; 136
     8ac:	93 e1       	ldi	r25, 0x13	; 19
     8ae:	90 93 89 00 	sts	0x0089, r25
     8b2:	80 93 88 00 	sts	0x0088, r24
     8b6:	e0 e8       	ldi	r30, 0x80	; 128
     8b8:	f0 e0       	ldi	r31, 0x00	; 0
     8ba:	80 81       	ld	r24, Z
     8bc:	80 64       	ori	r24, 0x40	; 64
     8be:	80 83       	st	Z, r24
     8c0:	e1 e8       	ldi	r30, 0x81	; 129
     8c2:	f0 e0       	ldi	r31, 0x00	; 0
     8c4:	80 81       	ld	r24, Z
     8c6:	8b 60       	ori	r24, 0x0B	; 11
     8c8:	80 83       	st	Z, r24
     8ca:	ef e6       	ldi	r30, 0x6F	; 111
     8cc:	f0 e0       	ldi	r31, 0x00	; 0
     8ce:	80 81       	ld	r24, Z
     8d0:	82 60       	ori	r24, 0x02	; 2
     8d2:	80 83       	st	Z, r24
     8d4:	08 95       	ret

000008d6 <set_motor_direction>:
     8d6:	82 30       	cpi	r24, 0x02	; 2
     8d8:	31 f4       	brne	.+12     	; 0x8e6 <set_motor_direction+0x10>
     8da:	e2 e0       	ldi	r30, 0x02	; 2
     8dc:	f1 e0       	ldi	r31, 0x01	; 1
     8de:	80 81       	ld	r24, Z
     8e0:	82 60       	ori	r24, 0x02	; 2
     8e2:	80 83       	st	Z, r24
     8e4:	08 95       	ret
     8e6:	81 30       	cpi	r24, 0x01	; 1
     8e8:	29 f4       	brne	.+10     	; 0x8f4 <set_motor_direction+0x1e>
     8ea:	e2 e0       	ldi	r30, 0x02	; 2
     8ec:	f1 e0       	ldi	r31, 0x01	; 1
     8ee:	80 81       	ld	r24, Z
     8f0:	8d 7f       	andi	r24, 0xFD	; 253
     8f2:	80 83       	st	Z, r24
     8f4:	08 95       	ret

000008f6 <enable_motor>:
     8f6:	88 23       	and	r24, r24
     8f8:	49 f0       	breq	.+18     	; 0x90c <enable_motor+0x16>
     8fa:	e2 e0       	ldi	r30, 0x02	; 2
     8fc:	f1 e0       	ldi	r31, 0x01	; 1
     8fe:	80 81       	ld	r24, Z
     900:	80 61       	ori	r24, 0x10	; 16
     902:	80 83       	st	Z, r24
     904:	8f e2       	ldi	r24, 0x2F	; 47
     906:	93 e0       	ldi	r25, 0x03	; 3
     908:	99 c7       	rjmp	.+3890   	; 0x183c <puts>
     90a:	08 95       	ret
     90c:	8d e3       	ldi	r24, 0x3D	; 61
     90e:	93 e0       	ldi	r25, 0x03	; 3
     910:	95 d7       	rcall	.+3882   	; 0x183c <puts>
     912:	e2 e0       	ldi	r30, 0x02	; 2
     914:	f1 e0       	ldi	r31, 0x01	; 1
     916:	80 81       	ld	r24, Z
     918:	8f 7e       	andi	r24, 0xEF	; 239
     91a:	80 83       	st	Z, r24
     91c:	08 95       	ret

0000091e <motor_control_set_reference_pos>:
     91e:	2f ef       	ldi	r18, 0xFF	; 255
     920:	30 e0       	ldi	r19, 0x00	; 0
     922:	28 1b       	sub	r18, r24
     924:	39 0b       	sbc	r19, r25
     926:	30 93 00 04 	sts	0x0400, r19
     92a:	20 93 ff 03 	sts	0x03FF, r18
     92e:	08 95       	ret

00000930 <enable_encoder>:
     930:	88 23       	and	r24, r24
     932:	31 f0       	breq	.+12     	; 0x940 <enable_encoder+0x10>
     934:	e2 e0       	ldi	r30, 0x02	; 2
     936:	f1 e0       	ldi	r31, 0x01	; 1
     938:	80 81       	ld	r24, Z
     93a:	8f 7d       	andi	r24, 0xDF	; 223
     93c:	80 83       	st	Z, r24
     93e:	08 95       	ret
     940:	e2 e0       	ldi	r30, 0x02	; 2
     942:	f1 e0       	ldi	r31, 0x01	; 1
     944:	80 81       	ld	r24, Z
     946:	80 62       	ori	r24, 0x20	; 32
     948:	80 83       	st	Z, r24
     94a:	08 95       	ret

0000094c <read_encoder>:
     94c:	cf 93       	push	r28
     94e:	df 93       	push	r29
     950:	81 e0       	ldi	r24, 0x01	; 1
     952:	ee df       	rcall	.-36     	; 0x930 <enable_encoder>
     954:	e2 e0       	ldi	r30, 0x02	; 2
     956:	f1 e0       	ldi	r31, 0x01	; 1
     958:	80 81       	ld	r24, Z
     95a:	87 7f       	andi	r24, 0xF7	; 247
     95c:	80 83       	st	Z, r24
     95e:	8a e6       	ldi	r24, 0x6A	; 106
     960:	8a 95       	dec	r24
     962:	f1 f7       	brne	.-4      	; 0x960 <read_encoder+0x14>
     964:	00 c0       	rjmp	.+0      	; 0x966 <read_encoder+0x1a>
     966:	c0 91 06 01 	lds	r28, 0x0106
     96a:	80 81       	ld	r24, Z
     96c:	88 60       	ori	r24, 0x08	; 8
     96e:	80 83       	st	Z, r24
     970:	8a e6       	ldi	r24, 0x6A	; 106
     972:	8a 95       	dec	r24
     974:	f1 f7       	brne	.-4      	; 0x972 <read_encoder+0x26>
     976:	00 c0       	rjmp	.+0      	; 0x978 <read_encoder+0x2c>
     978:	d0 91 06 01 	lds	r29, 0x0106
     97c:	80 e0       	ldi	r24, 0x00	; 0
     97e:	d8 df       	rcall	.-80     	; 0x930 <enable_encoder>
     980:	8d 2f       	mov	r24, r29
     982:	90 e0       	ldi	r25, 0x00	; 0
     984:	9c 2b       	or	r25, r28
     986:	df 91       	pop	r29
     988:	cf 91       	pop	r28
     98a:	08 95       	ret

0000098c <encoder_reset>:
     98c:	e2 e0       	ldi	r30, 0x02	; 2
     98e:	f1 e0       	ldi	r31, 0x01	; 1
     990:	80 81       	ld	r24, Z
     992:	8f 7b       	andi	r24, 0xBF	; 191
     994:	80 83       	st	Z, r24
     996:	8a e6       	ldi	r24, 0x6A	; 106
     998:	8a 95       	dec	r24
     99a:	f1 f7       	brne	.-4      	; 0x998 <encoder_reset+0xc>
     99c:	00 c0       	rjmp	.+0      	; 0x99e <encoder_reset+0x12>
     99e:	80 81       	ld	r24, Z
     9a0:	80 64       	ori	r24, 0x40	; 64
     9a2:	80 83       	st	Z, r24
     9a4:	08 95       	ret

000009a6 <motor_control_set_playing_flag>:
     9a6:	cf 93       	push	r28
     9a8:	c8 2f       	mov	r28, r24
     9aa:	1f 92       	push	r1
     9ac:	8f 93       	push	r24
     9ae:	2c e4       	ldi	r18, 0x4C	; 76
     9b0:	33 e0       	ldi	r19, 0x03	; 3
     9b2:	3f 93       	push	r19
     9b4:	2f 93       	push	r18
     9b6:	31 d7       	rcall	.+3682   	; 0x181a <printf>
     9b8:	0f 90       	pop	r0
     9ba:	0f 90       	pop	r0
     9bc:	0f 90       	pop	r0
     9be:	0f 90       	pop	r0
     9c0:	cc 23       	and	r28, r28
     9c2:	39 f0       	breq	.+14     	; 0x9d2 <motor_control_set_playing_flag+0x2c>
     9c4:	81 e0       	ldi	r24, 0x01	; 1
     9c6:	90 e0       	ldi	r25, 0x00	; 0
     9c8:	90 93 c5 03 	sts	0x03C5, r25
     9cc:	80 93 c4 03 	sts	0x03C4, r24
     9d0:	04 c0       	rjmp	.+8      	; 0x9da <motor_control_set_playing_flag+0x34>
     9d2:	10 92 c5 03 	sts	0x03C5, r1
     9d6:	10 92 c4 03 	sts	0x03C4, r1
     9da:	cf 91       	pop	r28
     9dc:	08 95       	ret

000009de <saturate>:
     9de:	8c 39       	cpi	r24, 0x9C	; 156
     9e0:	2f ef       	ldi	r18, 0xFF	; 255
     9e2:	92 07       	cpc	r25, r18
     9e4:	14 f4       	brge	.+4      	; 0x9ea <saturate+0xc>
     9e6:	8c e9       	ldi	r24, 0x9C	; 156
     9e8:	9f ef       	ldi	r25, 0xFF	; 255
     9ea:	85 36       	cpi	r24, 0x65	; 101
     9ec:	91 05       	cpc	r25, r1
     9ee:	14 f0       	brlt	.+4      	; 0x9f4 <saturate+0x16>
     9f0:	84 e6       	ldi	r24, 0x64	; 100
     9f2:	90 e0       	ldi	r25, 0x00	; 0
     9f4:	08 95       	ret

000009f6 <motor_control_set_velocity>:
     9f6:	cf 93       	push	r28
     9f8:	df 93       	push	r29
     9fa:	ec 01       	movw	r28, r24
     9fc:	a7 df       	rcall	.-178    	; 0x94c <read_encoder>
     9fe:	90 93 f6 03 	sts	0x03F6, r25
     a02:	80 93 f5 03 	sts	0x03F5, r24
     a06:	ce 01       	movw	r24, r28
     a08:	ea df       	rcall	.-44     	; 0x9de <saturate>
     a0a:	ec 01       	movw	r28, r24
     a0c:	dd 23       	and	r29, r29
     a0e:	24 f4       	brge	.+8      	; 0xa18 <motor_control_set_velocity+0x22>
     a10:	88 27       	eor	r24, r24
     a12:	99 27       	eor	r25, r25
     a14:	8c 1b       	sub	r24, r28
     a16:	9d 0b       	sbc	r25, r29
     a18:	ee dc       	rcall	.-1572   	; 0x3f6 <send_DAC_data>
     a1a:	1c 16       	cp	r1, r28
     a1c:	1d 06       	cpc	r1, r29
     a1e:	1c f4       	brge	.+6      	; 0xa26 <motor_control_set_velocity+0x30>
     a20:	82 e0       	ldi	r24, 0x02	; 2
     a22:	59 df       	rcall	.-334    	; 0x8d6 <set_motor_direction>
     a24:	02 c0       	rjmp	.+4      	; 0xa2a <motor_control_set_velocity+0x34>
     a26:	81 e0       	ldi	r24, 0x01	; 1
     a28:	56 df       	rcall	.-340    	; 0x8d6 <set_motor_direction>
     a2a:	df 91       	pop	r29
     a2c:	cf 91       	pop	r28
     a2e:	08 95       	ret

00000a30 <motor_control_set_pid_gains>:
}

// Set the gains of the PID
void motor_control_set_pid_gains(float p, float i, float d)
{
     a30:	ef 92       	push	r14
     a32:	ff 92       	push	r15
     a34:	0f 93       	push	r16
     a36:	1f 93       	push	r17
	kp = p;
     a38:	60 93 06 04 	sts	0x0406, r22
     a3c:	70 93 07 04 	sts	0x0407, r23
     a40:	80 93 08 04 	sts	0x0408, r24
     a44:	90 93 09 04 	sts	0x0409, r25
	ki = i;
     a48:	20 93 01 04 	sts	0x0401, r18
     a4c:	30 93 02 04 	sts	0x0402, r19
     a50:	40 93 03 04 	sts	0x0403, r20
     a54:	50 93 04 04 	sts	0x0404, r21
	kd = d;
     a58:	e0 92 f1 03 	sts	0x03F1, r14
     a5c:	f0 92 f2 03 	sts	0x03F2, r15
     a60:	00 93 f3 03 	sts	0x03F3, r16
     a64:	10 93 f4 03 	sts	0x03F4, r17
}
     a68:	1f 91       	pop	r17
     a6a:	0f 91       	pop	r16
     a6c:	ff 90       	pop	r15
     a6e:	ef 90       	pop	r14
     a70:	08 95       	ret

00000a72 <__vector_17>:

// ISR for the PID controller
ISR(TIMER1_COMPA_vect)
{
     a72:	1f 92       	push	r1
     a74:	0f 92       	push	r0
     a76:	0f b6       	in	r0, 0x3f	; 63
     a78:	0f 92       	push	r0
     a7a:	11 24       	eor	r1, r1
     a7c:	0b b6       	in	r0, 0x3b	; 59
     a7e:	0f 92       	push	r0
     a80:	8f 92       	push	r8
     a82:	9f 92       	push	r9
     a84:	af 92       	push	r10
     a86:	bf 92       	push	r11
     a88:	cf 92       	push	r12
     a8a:	df 92       	push	r13
     a8c:	ef 92       	push	r14
     a8e:	ff 92       	push	r15
     a90:	2f 93       	push	r18
     a92:	3f 93       	push	r19
     a94:	4f 93       	push	r20
     a96:	5f 93       	push	r21
     a98:	6f 93       	push	r22
     a9a:	7f 93       	push	r23
     a9c:	8f 93       	push	r24
     a9e:	9f 93       	push	r25
     aa0:	af 93       	push	r26
     aa2:	bf 93       	push	r27
     aa4:	ef 93       	push	r30
     aa6:	ff 93       	push	r31
	// If the timer is on, count the score
	if (timer_flag)
     aa8:	80 91 c6 03 	lds	r24, 0x03C6
     aac:	90 91 c7 03 	lds	r25, 0x03C7
     ab0:	89 2b       	or	r24, r25
     ab2:	99 f0       	breq	.+38     	; 0xada <__vector_17+0x68>
	{
		counter++;
     ab4:	80 91 05 04 	lds	r24, 0x0405
     ab8:	8f 5f       	subi	r24, 0xFF	; 255
		// Running on 50Hz
		if (counter >= 100)
     aba:	84 36       	cpi	r24, 0x64	; 100
     abc:	18 f4       	brcc	.+6      	; 0xac4 <__vector_17+0x52>
ISR(TIMER1_COMPA_vect)
{
	// If the timer is on, count the score
	if (timer_flag)
	{
		counter++;
     abe:	80 93 05 04 	sts	0x0405, r24
     ac2:	0b c0       	rjmp	.+22     	; 0xada <__vector_17+0x68>
		// Running on 50Hz
		if (counter >= 100)
		{
			counter = 0;
     ac4:	10 92 05 04 	sts	0x0405, r1
			clock_seconds ++;
     ac8:	80 91 fd 03 	lds	r24, 0x03FD
     acc:	90 91 fe 03 	lds	r25, 0x03FE
     ad0:	01 96       	adiw	r24, 0x01	; 1
     ad2:	90 93 fe 03 	sts	0x03FE, r25
     ad6:	80 93 fd 03 	sts	0x03FD, r24
		}
	}
	
	// Use PID when playing
	if(!playing_flag)
     ada:	80 91 c4 03 	lds	r24, 0x03C4
     ade:	90 91 c5 03 	lds	r25, 0x03C5
     ae2:	89 2b       	or	r24, r25
     ae4:	09 f4       	brne	.+2      	; 0xae8 <__vector_17+0x76>
     ae6:	8f c0       	rjmp	.+286    	; 0xc06 <__vector_17+0x194>
	{
		return;
	}
	
	long encoder_value = read_encoder();
     ae8:	31 df       	rcall	.-414    	; 0x94c <read_encoder>
	
	if((int)encoder_value < 0){
     aea:	99 23       	and	r25, r25
     aec:	24 f0       	brlt	.+8      	; 0xaf6 <__vector_17+0x84>
	if(!playing_flag)
	{
		return;
	}
	
	long encoder_value = read_encoder();
     aee:	6c 01       	movw	r12, r24
     af0:	e1 2c       	mov	r14, r1
     af2:	f1 2c       	mov	r15, r1
     af4:	03 c0       	rjmp	.+6      	; 0xafc <__vector_17+0x8a>
	
	if((int)encoder_value < 0){
		encoder_value = 0L;
     af6:	c1 2c       	mov	r12, r1
     af8:	d1 2c       	mov	r13, r1
     afa:	76 01       	movw	r14, r12
	}
	
	printf("\tEncoder: %d\n", encoder_value);
     afc:	ff 92       	push	r15
     afe:	ef 92       	push	r14
     b00:	df 92       	push	r13
     b02:	cf 92       	push	r12
     b04:	82 e6       	ldi	r24, 0x62	; 98
     b06:	93 e0       	ldi	r25, 0x03	; 3
     b08:	9f 93       	push	r25
     b0a:	8f 93       	push	r24
     b0c:	86 d6       	rcall	.+3340   	; 0x181a <printf>
	float error;
	int16_t output;
	//printf("\t\tEncoder max: %d encoder value %d\n", encoder_max,encoder_value);
	error = reference_value - ((encoder_value*255)/encoder_max);
     b0e:	80 90 ff 03 	lds	r8, 0x03FF
     b12:	90 90 00 04 	lds	r9, 0x0400
     b16:	aa 24       	eor	r10, r10
     b18:	97 fc       	sbrc	r9, 7
     b1a:	a0 94       	com	r10
     b1c:	ba 2c       	mov	r11, r10
     b1e:	af ef       	ldi	r26, 0xFF	; 255
     b20:	b0 e0       	ldi	r27, 0x00	; 0
     b22:	a7 01       	movw	r20, r14
     b24:	96 01       	movw	r18, r12
     b26:	b2 d4       	rcall	.+2404   	; 0x148c <__muluhisi3>
     b28:	20 91 ef 03 	lds	r18, 0x03EF
     b2c:	30 91 f0 03 	lds	r19, 0x03F0
     b30:	40 e0       	ldi	r20, 0x00	; 0
     b32:	50 e0       	ldi	r21, 0x00	; 0
     b34:	89 d4       	rcall	.+2322   	; 0x1448 <__divmodsi4>
     b36:	c5 01       	movw	r24, r10
     b38:	b4 01       	movw	r22, r8
     b3a:	62 1b       	sub	r22, r18
     b3c:	73 0b       	sbc	r23, r19
     b3e:	84 0b       	sbc	r24, r20
     b40:	95 0b       	sbc	r25, r21
     b42:	6c d3       	rcall	.+1752   	; 0x121c <__floatsisf>
     b44:	6b 01       	movw	r12, r22
     b46:	7c 01       	movw	r14, r24
	//printf("Error: %d\n", error);
	//printf("Encoder blabla %d\n", (int16_t) ((encoder_value*255)/encoder_max));
	if (abs(error) < 3)
     b48:	36 d3       	rcall	.+1644   	; 0x11b6 <__fixsfsi>
     b4a:	6e 5f       	subi	r22, 0xFE	; 254
     b4c:	7f 4f       	sbci	r23, 0xFF	; 255
     b4e:	0f 90       	pop	r0
     b50:	0f 90       	pop	r0
     b52:	0f 90       	pop	r0
     b54:	0f 90       	pop	r0
     b56:	0f 90       	pop	r0
     b58:	0f 90       	pop	r0
     b5a:	65 30       	cpi	r22, 0x05	; 5
     b5c:	71 05       	cpc	r23, r1
     b5e:	18 f4       	brcc	.+6      	; 0xb66 <__vector_17+0xf4>
	}
}
// Send the output to the motor
void motor_control_set_speed(uint8_t value){
	//printf("sending dac data: %d\n",value);
	send_DAC_data(value);
     b60:	80 e0       	ldi	r24, 0x00	; 0
     b62:	49 dc       	rcall	.-1902   	; 0x3f6 <send_DAC_data>
     b64:	50 c0       	rjmp	.+160    	; 0xc06 <__vector_17+0x194>
	{
		//printf("Lal\n");
		motor_control_set_speed(0);
		return;
	}
	if ((int) error_sum < integrator_max)
     b66:	80 90 f8 03 	lds	r8, 0x03F8
     b6a:	90 90 f9 03 	lds	r9, 0x03F9
     b6e:	a0 90 fa 03 	lds	r10, 0x03FA
     b72:	b0 90 fb 03 	lds	r11, 0x03FB
     b76:	c5 01       	movw	r24, r10
     b78:	b4 01       	movw	r22, r8
     b7a:	1d d3       	rcall	.+1594   	; 0x11b6 <__fixsfsi>
     b7c:	20 91 07 02 	lds	r18, 0x0207
     b80:	30 91 08 02 	lds	r19, 0x0208
     b84:	62 17       	cp	r22, r18
     b86:	73 07       	cpc	r23, r19
     b88:	a4 f4       	brge	.+40     	; 0xbb2 <__vector_17+0x140>
	{
		error_sum += dt*error;
     b8a:	2a e0       	ldi	r18, 0x0A	; 10
     b8c:	37 ed       	ldi	r19, 0xD7	; 215
     b8e:	43 ea       	ldi	r20, 0xA3	; 163
     b90:	5c e3       	ldi	r21, 0x3C	; 60
     b92:	c7 01       	movw	r24, r14
     b94:	b6 01       	movw	r22, r12
     b96:	ce d3       	rcall	.+1948   	; 0x1334 <__mulsf3>
     b98:	9b 01       	movw	r18, r22
     b9a:	ac 01       	movw	r20, r24
     b9c:	c5 01       	movw	r24, r10
     b9e:	b4 01       	movw	r22, r8
     ba0:	a6 d2       	rcall	.+1356   	; 0x10ee <__addsf3>
     ba2:	60 93 f8 03 	sts	0x03F8, r22
     ba6:	70 93 f9 03 	sts	0x03F9, r23
     baa:	80 93 fa 03 	sts	0x03FA, r24
     bae:	90 93 fb 03 	sts	0x03FB, r25
	}
	int prop = -kp*error;
     bb2:	80 91 06 04 	lds	r24, 0x0406
     bb6:	90 91 07 04 	lds	r25, 0x0407
     bba:	a0 91 08 04 	lds	r26, 0x0408
     bbe:	b0 91 09 04 	lds	r27, 0x0409
     bc2:	bc 01       	movw	r22, r24
     bc4:	cd 01       	movw	r24, r26
     bc6:	90 58       	subi	r25, 0x80	; 128
     bc8:	a7 01       	movw	r20, r14
     bca:	96 01       	movw	r18, r12
     bcc:	b3 d3       	rcall	.+1894   	; 0x1334 <__mulsf3>
     bce:	f3 d2       	rcall	.+1510   	; 0x11b6 <__fixsfsi>
     bd0:	6b 01       	movw	r12, r22
     bd2:	7c 01       	movw	r14, r24
	int integral = - ki*error_sum;
     bd4:	80 91 01 04 	lds	r24, 0x0401
     bd8:	90 91 02 04 	lds	r25, 0x0402
     bdc:	a0 91 03 04 	lds	r26, 0x0403
     be0:	b0 91 04 04 	lds	r27, 0x0404
     be4:	bc 01       	movw	r22, r24
     be6:	cd 01       	movw	r24, r26
     be8:	90 58       	subi	r25, 0x80	; 128
     bea:	20 91 f8 03 	lds	r18, 0x03F8
     bee:	30 91 f9 03 	lds	r19, 0x03F9
     bf2:	40 91 fa 03 	lds	r20, 0x03FA
     bf6:	50 91 fb 03 	lds	r21, 0x03FB
     bfa:	9c d3       	rcall	.+1848   	; 0x1334 <__mulsf3>
     bfc:	dc d2       	rcall	.+1464   	; 0x11b6 <__fixsfsi>
	//printf("Prop: %d", prop);
	
	output = prop + integral;
     bfe:	cb 01       	movw	r24, r22
     c00:	8c 0d       	add	r24, r12
     c02:	9d 1d       	adc	r25, r13
	//printf("Output PI: %d\n", output);

	motor_control_set_velocity(output);
     c04:	f8 de       	rcall	.-528    	; 0x9f6 <motor_control_set_velocity>
	
}
     c06:	ff 91       	pop	r31
     c08:	ef 91       	pop	r30
     c0a:	bf 91       	pop	r27
     c0c:	af 91       	pop	r26
     c0e:	9f 91       	pop	r25
     c10:	8f 91       	pop	r24
     c12:	7f 91       	pop	r23
     c14:	6f 91       	pop	r22
     c16:	5f 91       	pop	r21
     c18:	4f 91       	pop	r20
     c1a:	3f 91       	pop	r19
     c1c:	2f 91       	pop	r18
     c1e:	ff 90       	pop	r15
     c20:	ef 90       	pop	r14
     c22:	df 90       	pop	r13
     c24:	cf 90       	pop	r12
     c26:	bf 90       	pop	r11
     c28:	af 90       	pop	r10
     c2a:	9f 90       	pop	r9
     c2c:	8f 90       	pop	r8
     c2e:	0f 90       	pop	r0
     c30:	0b be       	out	0x3b, r0	; 59
     c32:	0f 90       	pop	r0
     c34:	0f be       	out	0x3f, r0	; 63
     c36:	0f 90       	pop	r0
     c38:	1f 90       	pop	r1
     c3a:	18 95       	reti

00000c3c <find_encoder_max>:

// Function for finding the encoder range
unsigned int find_encoder_max()
{
     c3c:	cf 93       	push	r28
     c3e:	df 93       	push	r29
	printf("In find encoder max");
     c40:	80 e7       	ldi	r24, 0x70	; 112
     c42:	93 e0       	ldi	r25, 0x03	; 3
     c44:	9f 93       	push	r25
     c46:	8f 93       	push	r24
     c48:	e8 d5       	rcall	.+3024   	; 0x181a <printf>
	motor_control_set_velocity(60);
     c4a:	8c e3       	ldi	r24, 0x3C	; 60
     c4c:	90 e0       	ldi	r25, 0x00	; 0
     c4e:	d3 de       	rcall	.-602    	; 0x9f6 <motor_control_set_velocity>
     c50:	2f ef       	ldi	r18, 0xFF	; 255
     c52:	85 ec       	ldi	r24, 0xC5	; 197
     c54:	9c e5       	ldi	r25, 0x5C	; 92
     c56:	21 50       	subi	r18, 0x01	; 1
     c58:	80 40       	sbci	r24, 0x00	; 0
     c5a:	90 40       	sbci	r25, 0x00	; 0
     c5c:	e1 f7       	brne	.-8      	; 0xc56 <find_encoder_max+0x1a>
     c5e:	00 c0       	rjmp	.+0      	; 0xc60 <find_encoder_max+0x24>
     c60:	00 00       	nop
	_delay_ms(1900);
	motor_control_set_velocity(0);
     c62:	80 e0       	ldi	r24, 0x00	; 0
     c64:	90 e0       	ldi	r25, 0x00	; 0
     c66:	c7 de       	rcall	.-626    	; 0x9f6 <motor_control_set_velocity>
     c68:	2f ef       	ldi	r18, 0xFF	; 255
     c6a:	83 ec       	ldi	r24, 0xC3	; 195
     c6c:	99 e0       	ldi	r25, 0x09	; 9
     c6e:	21 50       	subi	r18, 0x01	; 1
     c70:	80 40       	sbci	r24, 0x00	; 0
     c72:	90 40       	sbci	r25, 0x00	; 0
     c74:	e1 f7       	brne	.-8      	; 0xc6e <find_encoder_max+0x32>
     c76:	00 c0       	rjmp	.+0      	; 0xc78 <find_encoder_max+0x3c>
     c78:	00 00       	nop
	_delay_ms(200);
	printf("Encoder value: %d\n",read_encoder());
     c7a:	68 de       	rcall	.-816    	; 0x94c <read_encoder>
     c7c:	9f 93       	push	r25
     c7e:	8f 93       	push	r24
     c80:	84 e8       	ldi	r24, 0x84	; 132
     c82:	93 e0       	ldi	r25, 0x03	; 3
     c84:	9f 93       	push	r25
     c86:	8f 93       	push	r24
     c88:	c8 d5       	rcall	.+2960   	; 0x181a <printf>
	encoder_reset();
     c8a:	80 de       	rcall	.-768    	; 0x98c <encoder_reset>
	motor_control_set_velocity(-60);
     c8c:	84 ec       	ldi	r24, 0xC4	; 196
     c8e:	9f ef       	ldi	r25, 0xFF	; 255
     c90:	b2 de       	rcall	.-668    	; 0x9f6 <motor_control_set_velocity>
     c92:	2f ef       	ldi	r18, 0xFF	; 255
     c94:	87 e9       	ldi	r24, 0x97	; 151
     c96:	9a e3       	ldi	r25, 0x3A	; 58
     c98:	21 50       	subi	r18, 0x01	; 1
     c9a:	80 40       	sbci	r24, 0x00	; 0
     c9c:	90 40       	sbci	r25, 0x00	; 0
     c9e:	e1 f7       	brne	.-8      	; 0xc98 <find_encoder_max+0x5c>
     ca0:	00 c0       	rjmp	.+0      	; 0xca2 <find_encoder_max+0x66>
     ca2:	00 00       	nop
	_delay_ms(1200);
	motor_control_set_velocity(0);
     ca4:	80 e0       	ldi	r24, 0x00	; 0
     ca6:	90 e0       	ldi	r25, 0x00	; 0
     ca8:	a6 de       	rcall	.-692    	; 0x9f6 <motor_control_set_velocity>
     caa:	2f ef       	ldi	r18, 0xFF	; 255
     cac:	81 ee       	ldi	r24, 0xE1	; 225
     cae:	94 e0       	ldi	r25, 0x04	; 4
     cb0:	21 50       	subi	r18, 0x01	; 1
     cb2:	80 40       	sbci	r24, 0x00	; 0
     cb4:	90 40       	sbci	r25, 0x00	; 0
     cb6:	e1 f7       	brne	.-8      	; 0xcb0 <find_encoder_max+0x74>
     cb8:	00 c0       	rjmp	.+0      	; 0xcba <find_encoder_max+0x7e>
     cba:	00 00       	nop
	_delay_ms(100);
	printf("\tEncoder value2: %d\n",read_encoder());
     cbc:	47 de       	rcall	.-882    	; 0x94c <read_encoder>
     cbe:	9f 93       	push	r25
     cc0:	8f 93       	push	r24
     cc2:	87 e9       	ldi	r24, 0x97	; 151
     cc4:	93 e0       	ldi	r25, 0x03	; 3
     cc6:	9f 93       	push	r25
     cc8:	8f 93       	push	r24
     cca:	a7 d5       	rcall	.+2894   	; 0x181a <printf>
	uint16_t encoder = read_encoder();
     ccc:	3f de       	rcall	.-898    	; 0x94c <read_encoder>
     cce:	ec 01       	movw	r28, r24
	motor_control_set_velocity(20);
     cd0:	84 e1       	ldi	r24, 0x14	; 20
     cd2:	90 e0       	ldi	r25, 0x00	; 0
     cd4:	90 de       	rcall	.-736    	; 0x9f6 <motor_control_set_velocity>
     cd6:	2f ef       	ldi	r18, 0xFF	; 255
     cd8:	83 ec       	ldi	r24, 0xC3	; 195
     cda:	99 e0       	ldi	r25, 0x09	; 9
     cdc:	21 50       	subi	r18, 0x01	; 1
     cde:	80 40       	sbci	r24, 0x00	; 0
     ce0:	90 40       	sbci	r25, 0x00	; 0
     ce2:	e1 f7       	brne	.-8      	; 0xcdc <find_encoder_max+0xa0>
     ce4:	00 c0       	rjmp	.+0      	; 0xce6 <find_encoder_max+0xaa>
     ce6:	00 00       	nop
	_delay_ms(200);
	motor_control_set_velocity(0);
     ce8:	80 e0       	ldi	r24, 0x00	; 0
     cea:	90 e0       	ldi	r25, 0x00	; 0
     cec:	84 de       	rcall	.-760    	; 0x9f6 <motor_control_set_velocity>
	return encoder;
     cee:	8d b7       	in	r24, 0x3d	; 61
     cf0:	9e b7       	in	r25, 0x3e	; 62
     cf2:	0a 96       	adiw	r24, 0x0a	; 10
     cf4:	0f b6       	in	r0, 0x3f	; 63
     cf6:	f8 94       	cli
     cf8:	9e bf       	out	0x3e, r25	; 62
     cfa:	0f be       	out	0x3f, r0	; 63
     cfc:	8d bf       	out	0x3d, r24	; 61
}
     cfe:	ce 01       	movw	r24, r28
     d00:	df 91       	pop	r29
     d02:	cf 91       	pop	r28
     d04:	08 95       	ret

00000d06 <motor_control_init>:
float kd;
float ki;
int integrator_max = 300;

uint8_t motor_control_init(){
	set_bit(DDRH, RST);
     d06:	e1 e0       	ldi	r30, 0x01	; 1
     d08:	f1 e0       	ldi	r31, 0x01	; 1
     d0a:	80 81       	ld	r24, Z
     d0c:	80 64       	ori	r24, 0x40	; 64
     d0e:	80 83       	st	Z, r24
	set_bit(DDRH, OE);
     d10:	80 81       	ld	r24, Z
     d12:	80 62       	ori	r24, 0x20	; 32
     d14:	80 83       	st	Z, r24
	set_bit(DDRH, EN);
     d16:	80 81       	ld	r24, Z
     d18:	80 61       	ori	r24, 0x10	; 16
     d1a:	80 83       	st	Z, r24
	set_bit(DDRH, DIR);
     d1c:	80 81       	ld	r24, Z
     d1e:	82 60       	ori	r24, 0x02	; 2
     d20:	80 83       	st	Z, r24
	set_bit(DDRH, SEL);
     d22:	80 81       	ld	r24, Z
     d24:	88 60       	ori	r24, 0x08	; 8
     d26:	80 83       	st	Z, r24
	// Port K Digital input
	DDRK = 0x00;
     d28:	10 92 07 01 	sts	0x0107, r1

	setup_DAC();
     d2c:	5e db       	rcall	.-2372   	; 0x3ea <setup_DAC>

	enable_encoder(1);
     d2e:	81 e0       	ldi	r24, 0x01	; 1
     d30:	ff dd       	rcall	.-1026   	; 0x930 <enable_encoder>
	encoder_reset();
     d32:	2c de       	rcall	.-936    	; 0x98c <encoder_reset>
	}
}
// Send the output to the motor
void motor_control_set_speed(uint8_t value){
	//printf("sending dac data: %d\n",value);
	send_DAC_data(value);
     d34:	80 e0       	ldi	r24, 0x00	; 0
     d36:	5f db       	rcall	.-2370   	; 0x3f6 <send_DAC_data>
	setup_DAC();

	enable_encoder(1);
	encoder_reset();
	motor_control_set_speed(0);
	enable_motor(1);
     d38:	81 e0       	ldi	r24, 0x01	; 1
     d3a:	dd dd       	rcall	.-1094   	; 0x8f6 <enable_motor>
	encoder_max = find_encoder_max();
     d3c:	7f df       	rcall	.-258    	; 0xc3c <find_encoder_max>
     d3e:	80 93 ef 03 	sts	0x03EF, r24
     d42:	90 93 f0 03 	sts	0x03F0, r25
	printf("Encoder max is : %d",encoder_max);
     d46:	9f 93       	push	r25
     d48:	8f 93       	push	r24
     d4a:	8c ea       	ldi	r24, 0xAC	; 172
     d4c:	93 e0       	ldi	r25, 0x03	; 3
     d4e:	9f 93       	push	r25
     d50:	8f 93       	push	r24
     d52:	63 d5       	rcall	.+2758   	; 0x181a <printf>
	clock_seconds = 0;
     d54:	10 92 fe 03 	sts	0x03FE, r1
     d58:	10 92 fd 03 	sts	0x03FD, r1
	counter = 0;
     d5c:	10 92 05 04 	sts	0x0405, r1
}

// Set the reference position
void motor_control_set_reference_pos(int pos)
{
	reference_value = -pos + 255;
     d60:	8f ef       	ldi	r24, 0xFF	; 255
     d62:	90 e0       	ldi	r25, 0x00	; 0
     d64:	90 93 00 04 	sts	0x0400, r25
     d68:	80 93 ff 03 	sts	0x03FF, r24
	encoder_max = find_encoder_max();
	printf("Encoder max is : %d",encoder_max);
	clock_seconds = 0;
	counter = 0;
	motor_control_set_reference_pos(0);
	error_sum = 0;
     d6c:	10 92 f8 03 	sts	0x03F8, r1
     d70:	10 92 f9 03 	sts	0x03F9, r1
     d74:	10 92 fa 03 	sts	0x03FA, r1
     d78:	10 92 fb 03 	sts	0x03FB, r1
	return 0;
     d7c:	0f 90       	pop	r0
     d7e:	0f 90       	pop	r0
     d80:	0f 90       	pop	r0
     d82:	0f 90       	pop	r0
}
     d84:	80 e0       	ldi	r24, 0x00	; 0
     d86:	08 95       	ret

00000d88 <pwm_init>:
uint8_t input_slider_range;
int output_start;
int output_end;
uint8_t pwm_init(){
	//Mode 14
	TCCR3A |= (1 << WGM31)|(1 << COM3A1);
     d88:	e0 e9       	ldi	r30, 0x90	; 144
     d8a:	f0 e0       	ldi	r31, 0x00	; 0
     d8c:	80 81       	ld	r24, Z
     d8e:	82 68       	ori	r24, 0x82	; 130
     d90:	80 83       	st	Z, r24
	TCCR3A &= ~(1 << WGM30)|(1 << COM3A0);
     d92:	80 81       	ld	r24, Z
     d94:	8e 7f       	andi	r24, 0xFE	; 254
     d96:	80 83       	st	Z, r24
	TCCR3B |= (1 << WGM32)|(1 << WGM33)|(1 << CS31)|(1 << CS30);
     d98:	e1 e9       	ldi	r30, 0x91	; 145
     d9a:	f0 e0       	ldi	r31, 0x00	; 0
     d9c:	80 81       	ld	r24, Z
     d9e:	8b 61       	ori	r24, 0x1B	; 27
     da0:	80 83       	st	Z, r24
	TCCR3B &= ~(1 << CS32);
     da2:	80 81       	ld	r24, Z
     da4:	8b 7f       	andi	r24, 0xFB	; 251
     da6:	80 83       	st	Z, r24
	
	
	
	ICR3 = 5000;
     da8:	88 e8       	ldi	r24, 0x88	; 136
     daa:	93 e1       	ldi	r25, 0x13	; 19
     dac:	90 93 97 00 	sts	0x0097, r25
     db0:	80 93 96 00 	sts	0x0096, r24
	set_bit(DDRE,PE3);
     db4:	6b 9a       	sbi	0x0d, 3	; 13
	OCR3A = 375;
     db6:	87 e7       	ldi	r24, 0x77	; 119
     db8:	91 e0       	ldi	r25, 0x01	; 1
     dba:	90 93 99 00 	sts	0x0099, r25
     dbe:	80 93 98 00 	sts	0x0098, r24

	input_joystick_start = -100;
     dc2:	8c e9       	ldi	r24, 0x9C	; 156
     dc4:	9f ef       	ldi	r25, 0xFF	; 255
     dc6:	90 93 10 04 	sts	0x0410, r25
     dca:	80 93 0f 04 	sts	0x040F, r24
	input_joystick_end = 100;
     dce:	84 e6       	ldi	r24, 0x64	; 100
     dd0:	90 e0       	ldi	r25, 0x00	; 0
     dd2:	90 93 0c 04 	sts	0x040C, r25
     dd6:	80 93 0b 04 	sts	0x040B, r24
	input_slider_start = 0;
     dda:	10 92 0a 04 	sts	0x040A, r1
	input_slider_end = 255;
     dde:	4f ef       	ldi	r20, 0xFF	; 255
     de0:	40 93 0d 04 	sts	0x040D, r20
	output_start = 250;
     de4:	8a ef       	ldi	r24, 0xFA	; 250
     de6:	90 e0       	ldi	r25, 0x00	; 0
     de8:	90 93 15 04 	sts	0x0415, r25
     dec:	80 93 14 04 	sts	0x0414, r24
	output_end = 500;
     df0:	24 ef       	ldi	r18, 0xF4	; 244
     df2:	31 e0       	ldi	r19, 0x01	; 1
     df4:	30 93 19 04 	sts	0x0419, r19
     df8:	20 93 18 04 	sts	0x0418, r18
	input_joystick_range = input_joystick_end-input_joystick_start;
     dfc:	28 ec       	ldi	r18, 0xC8	; 200
     dfe:	20 93 0e 04 	sts	0x040E, r18
	input_slider_range = input_slider_end - input_slider_start;
     e02:	40 93 13 04 	sts	0x0413, r20
	output_range = output_end-output_start;
     e06:	90 93 17 04 	sts	0x0417, r25
     e0a:	80 93 16 04 	sts	0x0416, r24
	return 0;

}
     e0e:	80 e0       	ldi	r24, 0x00	; 0
     e10:	08 95       	ret

00000e12 <pwm_set_angle>:

uint8_t pwm_set_angle(int angle, uint8_t mode){
	//int scaled_angle = abs(angle-255);
	switch(mode)
     e12:	61 30       	cpi	r22, 0x01	; 1
     e14:	19 f0       	breq	.+6      	; 0xe1c <pwm_set_angle+0xa>
     e16:	62 30       	cpi	r22, 0x02	; 2
     e18:	79 f1       	breq	.+94     	; 0xe78 <pwm_set_angle+0x66>
     e1a:	58 c0       	rjmp	.+176    	; 0xecc <pwm_set_angle+0xba>
	{
		case 1:
		{
			if(angle >= input_joystick_start && angle <= input_joystick_end){
     e1c:	20 91 0f 04 	lds	r18, 0x040F
     e20:	30 91 10 04 	lds	r19, 0x0410
     e24:	82 17       	cp	r24, r18
     e26:	93 07       	cpc	r25, r19
     e28:	0c f4       	brge	.+2      	; 0xe2c <pwm_set_angle+0x1a>
     e2a:	52 c0       	rjmp	.+164    	; 0xed0 <pwm_set_angle+0xbe>
     e2c:	40 91 0b 04 	lds	r20, 0x040B
     e30:	50 91 0c 04 	lds	r21, 0x040C
     e34:	48 17       	cp	r20, r24
     e36:	59 07       	cpc	r21, r25
     e38:	0c f4       	brge	.+2      	; 0xe3c <pwm_set_angle+0x2a>
     e3a:	4c c0       	rjmp	.+152    	; 0xed4 <pwm_set_angle+0xc2>
				OCR3A = (angle-input_joystick_start)*output_range / input_joystick_range + output_start;
     e3c:	ac 01       	movw	r20, r24
     e3e:	42 1b       	sub	r20, r18
     e40:	53 0b       	sbc	r21, r19
     e42:	20 91 16 04 	lds	r18, 0x0416
     e46:	30 91 17 04 	lds	r19, 0x0417
     e4a:	42 9f       	mul	r20, r18
     e4c:	c0 01       	movw	r24, r0
     e4e:	43 9f       	mul	r20, r19
     e50:	90 0d       	add	r25, r0
     e52:	52 9f       	mul	r21, r18
     e54:	90 0d       	add	r25, r0
     e56:	11 24       	eor	r1, r1
     e58:	60 91 0e 04 	lds	r22, 0x040E
     e5c:	70 e0       	ldi	r23, 0x00	; 0
     e5e:	cd d2       	rcall	.+1434   	; 0x13fa <__udivmodhi4>
     e60:	80 91 14 04 	lds	r24, 0x0414
     e64:	90 91 15 04 	lds	r25, 0x0415
     e68:	68 0f       	add	r22, r24
     e6a:	79 1f       	adc	r23, r25
     e6c:	70 93 99 00 	sts	0x0099, r23
     e70:	60 93 98 00 	sts	0x0098, r22
				return 0;
     e74:	80 e0       	ldi	r24, 0x00	; 0
     e76:	08 95       	ret
		}
		
		
		case 2:
		{
			if(angle >= input_slider_start && angle <= input_slider_end){
     e78:	20 91 0a 04 	lds	r18, 0x040A
     e7c:	30 e0       	ldi	r19, 0x00	; 0
     e7e:	82 17       	cp	r24, r18
     e80:	93 07       	cpc	r25, r19
     e82:	54 f1       	brlt	.+84     	; 0xed8 <pwm_set_angle+0xc6>
     e84:	40 91 0d 04 	lds	r20, 0x040D
     e88:	50 e0       	ldi	r21, 0x00	; 0
     e8a:	48 17       	cp	r20, r24
     e8c:	59 07       	cpc	r21, r25
     e8e:	34 f1       	brlt	.+76     	; 0xedc <pwm_set_angle+0xca>
				OCR3A = (angle-input_slider_start)*output_range / input_slider_range + output_start;
     e90:	ac 01       	movw	r20, r24
     e92:	42 1b       	sub	r20, r18
     e94:	53 0b       	sbc	r21, r19
     e96:	20 91 16 04 	lds	r18, 0x0416
     e9a:	30 91 17 04 	lds	r19, 0x0417
     e9e:	42 9f       	mul	r20, r18
     ea0:	c0 01       	movw	r24, r0
     ea2:	43 9f       	mul	r20, r19
     ea4:	90 0d       	add	r25, r0
     ea6:	52 9f       	mul	r21, r18
     ea8:	90 0d       	add	r25, r0
     eaa:	11 24       	eor	r1, r1
     eac:	60 91 13 04 	lds	r22, 0x0413
     eb0:	70 e0       	ldi	r23, 0x00	; 0
     eb2:	a3 d2       	rcall	.+1350   	; 0x13fa <__udivmodhi4>
     eb4:	80 91 14 04 	lds	r24, 0x0414
     eb8:	90 91 15 04 	lds	r25, 0x0415
     ebc:	68 0f       	add	r22, r24
     ebe:	79 1f       	adc	r23, r25
     ec0:	70 93 99 00 	sts	0x0099, r23
     ec4:	60 93 98 00 	sts	0x0098, r22
				return 0;
     ec8:	80 e0       	ldi	r24, 0x00	; 0
     eca:	08 95       	ret
		}
		
	}
	
	
	return 1;
     ecc:	81 e0       	ldi	r24, 0x01	; 1
     ece:	08 95       	ret
     ed0:	81 e0       	ldi	r24, 0x01	; 1
     ed2:	08 95       	ret
     ed4:	81 e0       	ldi	r24, 0x01	; 1
     ed6:	08 95       	ret
     ed8:	81 e0       	ldi	r24, 0x01	; 1
     eda:	08 95       	ret
     edc:	81 e0       	ldi	r24, 0x01	; 1
}
     ede:	08 95       	ret

00000ee0 <solenoid_shoot>:
	solenoid_shoot();
}

void solenoid_shoot()
{
	clear_bit(PORTA,SOLENOID);
     ee0:	11 98       	cbi	0x02, 1	; 2
     ee2:	9e e1       	ldi	r25, 0x1E	; 30
     ee4:	06 c0       	rjmp	.+12     	; 0xef2 <solenoid_shoot+0x12>
	uint8_t counter= 0;
	while(counter<30)
	{
		if (TCNT0 == 100)
     ee6:	86 b5       	in	r24, 0x26	; 38
     ee8:	84 36       	cpi	r24, 0x64	; 100
     eea:	e9 f7       	brne	.-6      	; 0xee6 <solenoid_shoot+0x6>
		{
			counter++;
			TCNT0 = 0;
     eec:	16 bc       	out	0x26, r1	; 38
     eee:	91 50       	subi	r25, 0x01	; 1

void solenoid_shoot()
{
	clear_bit(PORTA,SOLENOID);
	uint8_t counter= 0;
	while(counter<30)
     ef0:	21 f0       	breq	.+8      	; 0xefa <solenoid_shoot+0x1a>
	{
		if (TCNT0 == 100)
     ef2:	86 b5       	in	r24, 0x26	; 38
     ef4:	84 36       	cpi	r24, 0x64	; 100
     ef6:	b9 f7       	brne	.-18     	; 0xee6 <solenoid_shoot+0x6>
     ef8:	f9 cf       	rjmp	.-14     	; 0xeec <solenoid_shoot+0xc>
		{
			counter++;
			TCNT0 = 0;
		}
	}
	set_bit(PORTA,SOLENOID);	
     efa:	11 9a       	sbi	0x02, 1	; 2
     efc:	08 95       	ret

00000efe <setup_solenoid>:
#define SOLENOID PA1

void setup_solenoid()
{
	// PA1 as solenoid output
	set_bit(DDRA,SOLENOID);
     efe:	09 9a       	sbi	0x01, 1	; 1
	set_bit(PORTA,SOLENOID);
     f00:	11 9a       	sbi	0x02, 1	; 2
	//1024 prescaler
	TCCR0B |= (1<<CS02)|(1<<CS00);
     f02:	85 b5       	in	r24, 0x25	; 37
     f04:	85 60       	ori	r24, 0x05	; 5
     f06:	85 bd       	out	0x25, r24	; 37
	solenoid_shoot();
     f08:	eb cf       	rjmp	.-42     	; 0xee0 <solenoid_shoot>
     f0a:	08 95       	ret

00000f0c <spi_init>:

void spi_init()
{
	/* Set MOSI and SCK output, all others input */
	// PB7 = !SS, PB2 = MOSI, PB3 = MISO, PB1 = SCK
	DDRB = (1<<PB7)|(1<<PB2)|(1<<PB1)|(1<<PB0);
     f0c:	87 e8       	ldi	r24, 0x87	; 135
     f0e:	84 b9       	out	0x04, r24	; 4
	// MISO as input
	clear_bit(DDRB,PB3);
     f10:	23 98       	cbi	0x04, 3	; 4
	set_bit(PORTB,PB3);
     f12:	2b 9a       	sbi	0x05, 3	; 5
	/* Enable SPI, Master, set clock rate fck/16 */
	SPCR = (1<<SPE)|(1<<MSTR)|(1<<SPR0);
     f14:	81 e5       	ldi	r24, 0x51	; 81
     f16:	8c bd       	out	0x2c, r24	; 44
	// Read SPSR and SPDR to clear interrupt flag
	char c1 = SPSR;
     f18:	8d b5       	in	r24, 0x2d	; 45
	char c2 = SPDR;
     f1a:	8e b5       	in	r24, 0x2e	; 46
     f1c:	08 95       	ret

00000f1e <spi_send>:
}
void spi_send(char cData)
{
	/* Start transmission */
	SPDR = cData;
     f1e:	8e bd       	out	0x2e, r24	; 46
	/* Wait for transmission complete */
	while(!(SPSR & (1<<SPIF)));
     f20:	0d b4       	in	r0, 0x2d	; 45
     f22:	07 fe       	sbrs	r0, 7
     f24:	fd cf       	rjmp	.-6      	; 0xf20 <spi_send+0x2>
}
     f26:	08 95       	ret

00000f28 <spi_read>:

char spi_read() 
{

	SPDR = 0x00; // send dummy data
     f28:	1e bc       	out	0x2e, r1	; 46
	while(!(SPSR & (1<<SPIF))); // Wait until data is shifted into SPDR
     f2a:	0d b4       	in	r0, 0x2d	; 45
     f2c:	07 fe       	sbrs	r0, 7
     f2e:	fd cf       	rjmp	.-6      	; 0xf2a <spi_read+0x2>
	return SPDR;
     f30:	8e b5       	in	r24, 0x2e	; 46
}
     f32:	08 95       	ret

00000f34 <spi_enable>:

void spi_enable()
{
	clear_bit(PORTB,PB7);
     f34:	2f 98       	cbi	0x05, 7	; 5
	clear_bit(PORTB,PB0);
     f36:	28 98       	cbi	0x05, 0	; 5
     f38:	08 95       	ret

00000f3a <spi_disable>:
}

void spi_disable()
{
	set_bit(PORTB,PB7);
     f3a:	2f 9a       	sbi	0x05, 7	; 5
	set_bit(PORTB,PB0);
     f3c:	28 9a       	sbi	0x05, 0	; 5
     f3e:	08 95       	ret

00000f40 <TWI_Master_Initialise>:
    {
      msg[ i ] = TWI_buf[ i ];
    }
  }
  return( TWI_statusReg.lastTransOK );                                   
}
     f40:	8c e0       	ldi	r24, 0x0C	; 12
     f42:	80 93 b8 00 	sts	0x00B8, r24
     f46:	8f ef       	ldi	r24, 0xFF	; 255
     f48:	80 93 bb 00 	sts	0x00BB, r24
     f4c:	84 e0       	ldi	r24, 0x04	; 4
     f4e:	80 93 bc 00 	sts	0x00BC, r24
     f52:	08 95       	ret

00000f54 <TWI_Start_Transceiver_With_Data>:
     f54:	ec eb       	ldi	r30, 0xBC	; 188
     f56:	f0 e0       	ldi	r31, 0x00	; 0
     f58:	20 81       	ld	r18, Z
     f5a:	20 fd       	sbrc	r18, 0
     f5c:	fd cf       	rjmp	.-6      	; 0xf58 <TWI_Start_Transceiver_With_Data+0x4>
     f5e:	60 93 ca 03 	sts	0x03CA, r22
     f62:	fc 01       	movw	r30, r24
     f64:	20 81       	ld	r18, Z
     f66:	20 93 cb 03 	sts	0x03CB, r18
     f6a:	20 fd       	sbrc	r18, 0
     f6c:	0c c0       	rjmp	.+24     	; 0xf86 <TWI_Start_Transceiver_With_Data+0x32>
     f6e:	62 30       	cpi	r22, 0x02	; 2
     f70:	50 f0       	brcs	.+20     	; 0xf86 <TWI_Start_Transceiver_With_Data+0x32>
     f72:	dc 01       	movw	r26, r24
     f74:	11 96       	adiw	r26, 0x01	; 1
     f76:	ec ec       	ldi	r30, 0xCC	; 204
     f78:	f3 e0       	ldi	r31, 0x03	; 3
     f7a:	81 e0       	ldi	r24, 0x01	; 1
     f7c:	9d 91       	ld	r25, X+
     f7e:	91 93       	st	Z+, r25
     f80:	8f 5f       	subi	r24, 0xFF	; 255
     f82:	86 13       	cpse	r24, r22
     f84:	fb cf       	rjmp	.-10     	; 0xf7c <TWI_Start_Transceiver_With_Data+0x28>
     f86:	10 92 c9 03 	sts	0x03C9, r1
     f8a:	88 ef       	ldi	r24, 0xF8	; 248
     f8c:	80 93 09 02 	sts	0x0209, r24
     f90:	85 ea       	ldi	r24, 0xA5	; 165
     f92:	80 93 bc 00 	sts	0x00BC, r24
     f96:	08 95       	ret

00000f98 <__vector_39>:
that is whenever a TWI event has occurred. This function should not be called directly from the main
application.
****************************************************************************/
//#pragma vector=TWI_vect
ISR(TWI_vect)
{
     f98:	1f 92       	push	r1
     f9a:	0f 92       	push	r0
     f9c:	0f b6       	in	r0, 0x3f	; 63
     f9e:	0f 92       	push	r0
     fa0:	11 24       	eor	r1, r1
     fa2:	0b b6       	in	r0, 0x3b	; 59
     fa4:	0f 92       	push	r0
     fa6:	2f 93       	push	r18
     fa8:	3f 93       	push	r19
     faa:	8f 93       	push	r24
     fac:	9f 93       	push	r25
     fae:	af 93       	push	r26
     fb0:	bf 93       	push	r27
     fb2:	ef 93       	push	r30
     fb4:	ff 93       	push	r31
  static unsigned char TWI_bufPtr;
  
  switch (TWSR)
     fb6:	80 91 b9 00 	lds	r24, 0x00B9
     fba:	90 e0       	ldi	r25, 0x00	; 0
     fbc:	fc 01       	movw	r30, r24
     fbe:	38 97       	sbiw	r30, 0x08	; 8
     fc0:	e1 35       	cpi	r30, 0x51	; 81
     fc2:	f1 05       	cpc	r31, r1
     fc4:	08 f0       	brcs	.+2      	; 0xfc8 <__vector_39+0x30>
     fc6:	55 c0       	rjmp	.+170    	; 0x1072 <__vector_39+0xda>
     fc8:	ee 58       	subi	r30, 0x8E	; 142
     fca:	ff 4f       	sbci	r31, 0xFF	; 255
     fcc:	59 c2       	rjmp	.+1202   	; 0x1480 <__tablejump2__>
  {
    case TWI_START:             // START has been transmitted  
    case TWI_REP_START:         // Repeated START has been transmitted
      TWI_bufPtr = 0;                                     // Set buffer pointer to the TWI Address location
     fce:	10 92 c8 03 	sts	0x03C8, r1
    case TWI_MTX_ADR_ACK:       // SLA+W has been tramsmitted and ACK received
    case TWI_MTX_DATA_ACK:      // Data byte has been tramsmitted and ACK received
      if (TWI_bufPtr < TWI_msgSize)
     fd2:	e0 91 c8 03 	lds	r30, 0x03C8
     fd6:	80 91 ca 03 	lds	r24, 0x03CA
     fda:	e8 17       	cp	r30, r24
     fdc:	70 f4       	brcc	.+28     	; 0xffa <__vector_39+0x62>
      {
        TWDR = TWI_buf[TWI_bufPtr++];
     fde:	81 e0       	ldi	r24, 0x01	; 1
     fe0:	8e 0f       	add	r24, r30
     fe2:	80 93 c8 03 	sts	0x03C8, r24
     fe6:	f0 e0       	ldi	r31, 0x00	; 0
     fe8:	e5 53       	subi	r30, 0x35	; 53
     fea:	fc 4f       	sbci	r31, 0xFC	; 252
     fec:	80 81       	ld	r24, Z
     fee:	80 93 bb 00 	sts	0x00BB, r24
        TWCR = (1<<TWEN)|                                 // TWI Interface enabled
     ff2:	85 e8       	ldi	r24, 0x85	; 133
     ff4:	80 93 bc 00 	sts	0x00BC, r24
     ff8:	43 c0       	rjmp	.+134    	; 0x1080 <__vector_39+0xe8>
               (1<<TWIE)|(1<<TWINT)|                      // Enable TWI Interupt and clear the flag to send byte
               (0<<TWEA)|(0<<TWSTA)|(0<<TWSTO)|           //
               (0<<TWWC);                                 //  
      }else                    // Send STOP after last byte
      {
        TWI_statusReg.lastTransOK = TRUE;                 // Set status bits to completed successfully. 
     ffa:	80 91 c9 03 	lds	r24, 0x03C9
     ffe:	81 60       	ori	r24, 0x01	; 1
    1000:	80 93 c9 03 	sts	0x03C9, r24
        TWCR = (1<<TWEN)|                                 // TWI Interface enabled
    1004:	84 e9       	ldi	r24, 0x94	; 148
    1006:	80 93 bc 00 	sts	0x00BC, r24
    100a:	3a c0       	rjmp	.+116    	; 0x1080 <__vector_39+0xe8>
               (0<<TWEA)|(0<<TWSTA)|(1<<TWSTO)|           // Initiate a STOP condition.
               (0<<TWWC);                                 //
      }
      break;
    case TWI_MRX_DATA_ACK:      // Data byte has been received and ACK tramsmitted
      TWI_buf[TWI_bufPtr++] = TWDR;
    100c:	e0 91 c8 03 	lds	r30, 0x03C8
    1010:	81 e0       	ldi	r24, 0x01	; 1
    1012:	8e 0f       	add	r24, r30
    1014:	80 93 c8 03 	sts	0x03C8, r24
    1018:	80 91 bb 00 	lds	r24, 0x00BB
    101c:	f0 e0       	ldi	r31, 0x00	; 0
    101e:	e5 53       	subi	r30, 0x35	; 53
    1020:	fc 4f       	sbci	r31, 0xFC	; 252
    1022:	80 83       	st	Z, r24
    case TWI_MRX_ADR_ACK:       // SLA+R has been tramsmitted and ACK received
      if (TWI_bufPtr < (TWI_msgSize-1) )                  // Detect the last byte to NACK it.
    1024:	20 91 c8 03 	lds	r18, 0x03C8
    1028:	30 e0       	ldi	r19, 0x00	; 0
    102a:	80 91 ca 03 	lds	r24, 0x03CA
    102e:	90 e0       	ldi	r25, 0x00	; 0
    1030:	01 97       	sbiw	r24, 0x01	; 1
    1032:	28 17       	cp	r18, r24
    1034:	39 07       	cpc	r19, r25
    1036:	24 f4       	brge	.+8      	; 0x1040 <__vector_39+0xa8>
      {
        TWCR = (1<<TWEN)|                                 // TWI Interface enabled
    1038:	85 ec       	ldi	r24, 0xC5	; 197
    103a:	80 93 bc 00 	sts	0x00BC, r24
    103e:	20 c0       	rjmp	.+64     	; 0x1080 <__vector_39+0xe8>
               (1<<TWIE)|(1<<TWINT)|                      // Enable TWI Interupt and clear the flag to read next byte
               (1<<TWEA)|(0<<TWSTA)|(0<<TWSTO)|           // Send ACK after reception
               (0<<TWWC);                                 //  
      }else                    // Send NACK after next reception
      {
        TWCR = (1<<TWEN)|                                 // TWI Interface enabled
    1040:	85 e8       	ldi	r24, 0x85	; 133
    1042:	80 93 bc 00 	sts	0x00BC, r24
    1046:	1c c0       	rjmp	.+56     	; 0x1080 <__vector_39+0xe8>
               (0<<TWEA)|(0<<TWSTA)|(0<<TWSTO)|           // Send NACK after reception
               (0<<TWWC);                                 // 
      }    
      break; 
    case TWI_MRX_DATA_NACK:     // Data byte has been received and NACK tramsmitted
      TWI_buf[TWI_bufPtr] = TWDR;
    1048:	80 91 bb 00 	lds	r24, 0x00BB
    104c:	e0 91 c8 03 	lds	r30, 0x03C8
    1050:	f0 e0       	ldi	r31, 0x00	; 0
    1052:	e5 53       	subi	r30, 0x35	; 53
    1054:	fc 4f       	sbci	r31, 0xFC	; 252
    1056:	80 83       	st	Z, r24
      TWI_statusReg.lastTransOK = TRUE;                 // Set status bits to completed successfully. 
    1058:	80 91 c9 03 	lds	r24, 0x03C9
    105c:	81 60       	ori	r24, 0x01	; 1
    105e:	80 93 c9 03 	sts	0x03C9, r24
      TWCR = (1<<TWEN)|                                 // TWI Interface enabled
    1062:	84 e9       	ldi	r24, 0x94	; 148
    1064:	80 93 bc 00 	sts	0x00BC, r24
             (0<<TWIE)|(1<<TWINT)|                      // Disable TWI Interrupt and clear the flag
             (0<<TWEA)|(0<<TWSTA)|(1<<TWSTO)|           // Initiate a STOP condition.
             (0<<TWWC);                                 //
      break;      
    1068:	0b c0       	rjmp	.+22     	; 0x1080 <__vector_39+0xe8>
    case TWI_ARB_LOST:          // Arbitration lost
      TWCR = (1<<TWEN)|                                 // TWI Interface enabled
    106a:	85 ea       	ldi	r24, 0xA5	; 165
    106c:	80 93 bc 00 	sts	0x00BC, r24
             (1<<TWIE)|(1<<TWINT)|                      // Enable TWI Interupt and clear the flag
             (0<<TWEA)|(1<<TWSTA)|(0<<TWSTO)|           // Initiate a (RE)START condition.
             (0<<TWWC);                                 //
      break;
    1070:	07 c0       	rjmp	.+14     	; 0x1080 <__vector_39+0xe8>
    case TWI_MRX_ADR_NACK:      // SLA+R has been tramsmitted and NACK received    
    case TWI_MTX_DATA_NACK:     // Data byte has been tramsmitted and NACK received
//    case TWI_NO_STATE              // No relevant state information available; TWINT = 0
    case TWI_BUS_ERROR:         // Bus error due to an illegal START or STOP condition
    default:     
      TWI_state = TWSR;                                 // Store TWSR and automatically sets clears noErrors bit.
    1072:	80 91 b9 00 	lds	r24, 0x00B9
    1076:	80 93 09 02 	sts	0x0209, r24
                                                        // Reset TWI Interface
      TWCR = (1<<TWEN)|                                 // Enable TWI-interface and release TWI pins
    107a:	84 e0       	ldi	r24, 0x04	; 4
    107c:	80 93 bc 00 	sts	0x00BC, r24
             (0<<TWIE)|(0<<TWINT)|                      // Disable Interupt
             (0<<TWEA)|(0<<TWSTA)|(0<<TWSTO)|           // No Signal requests
             (0<<TWWC);                                 //
  }
}
    1080:	ff 91       	pop	r31
    1082:	ef 91       	pop	r30
    1084:	bf 91       	pop	r27
    1086:	af 91       	pop	r26
    1088:	9f 91       	pop	r25
    108a:	8f 91       	pop	r24
    108c:	3f 91       	pop	r19
    108e:	2f 91       	pop	r18
    1090:	0f 90       	pop	r0
    1092:	0b be       	out	0x3b, r0	; 59
    1094:	0f 90       	pop	r0
    1096:	0f be       	out	0x3f, r0	; 63
    1098:	0f 90       	pop	r0
    109a:	1f 90       	pop	r1
    109c:	18 95       	reti

0000109e <USART_Transmit>:
int USART_Transmit(char data, struct __file* dummy)
{
    //if(data == '\n') USART_Transmit('\r', dummy);
	// Sjekk om bit UDRE0 i register UCSR0A er satt
	// UDRE0 = usart data register empty
	while(!(UCSR0A & (1<<UDRE0)))
    109e:	e0 ec       	ldi	r30, 0xC0	; 192
    10a0:	f0 e0       	ldi	r31, 0x00	; 0
    10a2:	90 81       	ld	r25, Z
    10a4:	95 ff       	sbrs	r25, 5
    10a6:	fd cf       	rjmp	.-6      	; 0x10a2 <USART_Transmit+0x4>
		;
	UDR0=data;
    10a8:	80 93 c6 00 	sts	0x00C6, r24
    return 0;
}
    10ac:	80 e0       	ldi	r24, 0x00	; 0
    10ae:	90 e0       	ldi	r25, 0x00	; 0
    10b0:	08 95       	ret

000010b2 <USART_Recieve>:

int USART_Recieve(struct __file* dummy)
{
	// Sjekk om bit RXC0 i register UCSR0A
	while (!(UCSR0A & (1<<RXC0)))
    10b2:	e0 ec       	ldi	r30, 0xC0	; 192
    10b4:	f0 e0       	ldi	r31, 0x00	; 0
    10b6:	80 81       	ld	r24, Z
    10b8:	88 23       	and	r24, r24
    10ba:	ec f7       	brge	.-6      	; 0x10b6 <USART_Recieve+0x4>
		;
	return UDR0;
    10bc:	80 91 c6 00 	lds	r24, 0x00C6
}
    10c0:	90 e0       	ldi	r25, 0x00	; 0
    10c2:	08 95       	ret

000010c4 <USART_Init>:


void USART_Init(unsigned int ubrr)
{
    
	UBRR0H =(unsigned char) (ubrr>>8); // Flytt ubrr 8 bits til hyre, lagre i register UBRR0H
    10c4:	90 93 c5 00 	sts	0x00C5, r25
	UBRR0L =(unsigned char) (ubrr); // Lagre frste 8 bits i UBRR0L
    10c8:	80 93 c4 00 	sts	0x00C4, r24
	// Enable mottaker og sender (sett bitt RXEN0 og TXEN0 =1)
	UCSR0B = (1<<RXEN0)|(1<<TXEN0);
    10cc:	88 e1       	ldi	r24, 0x18	; 24
    10ce:	80 93 c1 00 	sts	0x00C1, r24
    // 8 data bits, 2 stop bits
	UCSR0C = (1<<USBS0)|(3<<UCSZ00);
    10d2:	8e e0       	ldi	r24, 0x0E	; 14
    10d4:	80 93 c2 00 	sts	0x00C2, r24
    
	//Breakpoint
    uart = fdevopen(&USART_Transmit,&USART_Recieve);
    10d8:	69 e5       	ldi	r22, 0x59	; 89
    10da:	78 e0       	ldi	r23, 0x08	; 8
    10dc:	8f e4       	ldi	r24, 0x4F	; 79
    10de:	98 e0       	ldi	r25, 0x08	; 8
    10e0:	52 d3       	rcall	.+1700   	; 0x1786 <fdevopen>
    10e2:	90 93 1b 04 	sts	0x041B, r25
    10e6:	80 93 1a 04 	sts	0x041A, r24
    10ea:	08 95       	ret

000010ec <__subsf3>:
    10ec:	50 58       	subi	r21, 0x80	; 128

000010ee <__addsf3>:
    10ee:	bb 27       	eor	r27, r27
    10f0:	aa 27       	eor	r26, r26
    10f2:	0e d0       	rcall	.+28     	; 0x1110 <__addsf3x>
    10f4:	e5 c0       	rjmp	.+458    	; 0x12c0 <__fp_round>
    10f6:	d6 d0       	rcall	.+428    	; 0x12a4 <__fp_pscA>
    10f8:	30 f0       	brcs	.+12     	; 0x1106 <__addsf3+0x18>
    10fa:	db d0       	rcall	.+438    	; 0x12b2 <__fp_pscB>
    10fc:	20 f0       	brcs	.+8      	; 0x1106 <__addsf3+0x18>
    10fe:	31 f4       	brne	.+12     	; 0x110c <__addsf3+0x1e>
    1100:	9f 3f       	cpi	r25, 0xFF	; 255
    1102:	11 f4       	brne	.+4      	; 0x1108 <__addsf3+0x1a>
    1104:	1e f4       	brtc	.+6      	; 0x110c <__addsf3+0x1e>
    1106:	cb c0       	rjmp	.+406    	; 0x129e <__fp_nan>
    1108:	0e f4       	brtc	.+2      	; 0x110c <__addsf3+0x1e>
    110a:	e0 95       	com	r30
    110c:	e7 fb       	bst	r30, 7
    110e:	c1 c0       	rjmp	.+386    	; 0x1292 <__fp_inf>

00001110 <__addsf3x>:
    1110:	e9 2f       	mov	r30, r25
    1112:	e7 d0       	rcall	.+462    	; 0x12e2 <__fp_split3>
    1114:	80 f3       	brcs	.-32     	; 0x10f6 <__addsf3+0x8>
    1116:	ba 17       	cp	r27, r26
    1118:	62 07       	cpc	r22, r18
    111a:	73 07       	cpc	r23, r19
    111c:	84 07       	cpc	r24, r20
    111e:	95 07       	cpc	r25, r21
    1120:	18 f0       	brcs	.+6      	; 0x1128 <__addsf3x+0x18>
    1122:	71 f4       	brne	.+28     	; 0x1140 <__addsf3x+0x30>
    1124:	9e f5       	brtc	.+102    	; 0x118c <__addsf3x+0x7c>
    1126:	ff c0       	rjmp	.+510    	; 0x1326 <__fp_zero>
    1128:	0e f4       	brtc	.+2      	; 0x112c <__addsf3x+0x1c>
    112a:	e0 95       	com	r30
    112c:	0b 2e       	mov	r0, r27
    112e:	ba 2f       	mov	r27, r26
    1130:	a0 2d       	mov	r26, r0
    1132:	0b 01       	movw	r0, r22
    1134:	b9 01       	movw	r22, r18
    1136:	90 01       	movw	r18, r0
    1138:	0c 01       	movw	r0, r24
    113a:	ca 01       	movw	r24, r20
    113c:	a0 01       	movw	r20, r0
    113e:	11 24       	eor	r1, r1
    1140:	ff 27       	eor	r31, r31
    1142:	59 1b       	sub	r21, r25
    1144:	99 f0       	breq	.+38     	; 0x116c <__addsf3x+0x5c>
    1146:	59 3f       	cpi	r21, 0xF9	; 249
    1148:	50 f4       	brcc	.+20     	; 0x115e <__addsf3x+0x4e>
    114a:	50 3e       	cpi	r21, 0xE0	; 224
    114c:	68 f1       	brcs	.+90     	; 0x11a8 <__addsf3x+0x98>
    114e:	1a 16       	cp	r1, r26
    1150:	f0 40       	sbci	r31, 0x00	; 0
    1152:	a2 2f       	mov	r26, r18
    1154:	23 2f       	mov	r18, r19
    1156:	34 2f       	mov	r19, r20
    1158:	44 27       	eor	r20, r20
    115a:	58 5f       	subi	r21, 0xF8	; 248
    115c:	f3 cf       	rjmp	.-26     	; 0x1144 <__addsf3x+0x34>
    115e:	46 95       	lsr	r20
    1160:	37 95       	ror	r19
    1162:	27 95       	ror	r18
    1164:	a7 95       	ror	r26
    1166:	f0 40       	sbci	r31, 0x00	; 0
    1168:	53 95       	inc	r21
    116a:	c9 f7       	brne	.-14     	; 0x115e <__addsf3x+0x4e>
    116c:	7e f4       	brtc	.+30     	; 0x118c <__addsf3x+0x7c>
    116e:	1f 16       	cp	r1, r31
    1170:	ba 0b       	sbc	r27, r26
    1172:	62 0b       	sbc	r22, r18
    1174:	73 0b       	sbc	r23, r19
    1176:	84 0b       	sbc	r24, r20
    1178:	ba f0       	brmi	.+46     	; 0x11a8 <__addsf3x+0x98>
    117a:	91 50       	subi	r25, 0x01	; 1
    117c:	a1 f0       	breq	.+40     	; 0x11a6 <__addsf3x+0x96>
    117e:	ff 0f       	add	r31, r31
    1180:	bb 1f       	adc	r27, r27
    1182:	66 1f       	adc	r22, r22
    1184:	77 1f       	adc	r23, r23
    1186:	88 1f       	adc	r24, r24
    1188:	c2 f7       	brpl	.-16     	; 0x117a <__addsf3x+0x6a>
    118a:	0e c0       	rjmp	.+28     	; 0x11a8 <__addsf3x+0x98>
    118c:	ba 0f       	add	r27, r26
    118e:	62 1f       	adc	r22, r18
    1190:	73 1f       	adc	r23, r19
    1192:	84 1f       	adc	r24, r20
    1194:	48 f4       	brcc	.+18     	; 0x11a8 <__addsf3x+0x98>
    1196:	87 95       	ror	r24
    1198:	77 95       	ror	r23
    119a:	67 95       	ror	r22
    119c:	b7 95       	ror	r27
    119e:	f7 95       	ror	r31
    11a0:	9e 3f       	cpi	r25, 0xFE	; 254
    11a2:	08 f0       	brcs	.+2      	; 0x11a6 <__addsf3x+0x96>
    11a4:	b3 cf       	rjmp	.-154    	; 0x110c <__addsf3+0x1e>
    11a6:	93 95       	inc	r25
    11a8:	88 0f       	add	r24, r24
    11aa:	08 f0       	brcs	.+2      	; 0x11ae <__addsf3x+0x9e>
    11ac:	99 27       	eor	r25, r25
    11ae:	ee 0f       	add	r30, r30
    11b0:	97 95       	ror	r25
    11b2:	87 95       	ror	r24
    11b4:	08 95       	ret

000011b6 <__fixsfsi>:
    11b6:	04 d0       	rcall	.+8      	; 0x11c0 <__fixunssfsi>
    11b8:	68 94       	set
    11ba:	b1 11       	cpse	r27, r1
    11bc:	b5 c0       	rjmp	.+362    	; 0x1328 <__fp_szero>
    11be:	08 95       	ret

000011c0 <__fixunssfsi>:
    11c0:	98 d0       	rcall	.+304    	; 0x12f2 <__fp_splitA>
    11c2:	88 f0       	brcs	.+34     	; 0x11e6 <__fixunssfsi+0x26>
    11c4:	9f 57       	subi	r25, 0x7F	; 127
    11c6:	90 f0       	brcs	.+36     	; 0x11ec <__fixunssfsi+0x2c>
    11c8:	b9 2f       	mov	r27, r25
    11ca:	99 27       	eor	r25, r25
    11cc:	b7 51       	subi	r27, 0x17	; 23
    11ce:	a0 f0       	brcs	.+40     	; 0x11f8 <__fixunssfsi+0x38>
    11d0:	d1 f0       	breq	.+52     	; 0x1206 <__fixunssfsi+0x46>
    11d2:	66 0f       	add	r22, r22
    11d4:	77 1f       	adc	r23, r23
    11d6:	88 1f       	adc	r24, r24
    11d8:	99 1f       	adc	r25, r25
    11da:	1a f0       	brmi	.+6      	; 0x11e2 <__fixunssfsi+0x22>
    11dc:	ba 95       	dec	r27
    11de:	c9 f7       	brne	.-14     	; 0x11d2 <__fixunssfsi+0x12>
    11e0:	12 c0       	rjmp	.+36     	; 0x1206 <__fixunssfsi+0x46>
    11e2:	b1 30       	cpi	r27, 0x01	; 1
    11e4:	81 f0       	breq	.+32     	; 0x1206 <__fixunssfsi+0x46>
    11e6:	9f d0       	rcall	.+318    	; 0x1326 <__fp_zero>
    11e8:	b1 e0       	ldi	r27, 0x01	; 1
    11ea:	08 95       	ret
    11ec:	9c c0       	rjmp	.+312    	; 0x1326 <__fp_zero>
    11ee:	67 2f       	mov	r22, r23
    11f0:	78 2f       	mov	r23, r24
    11f2:	88 27       	eor	r24, r24
    11f4:	b8 5f       	subi	r27, 0xF8	; 248
    11f6:	39 f0       	breq	.+14     	; 0x1206 <__fixunssfsi+0x46>
    11f8:	b9 3f       	cpi	r27, 0xF9	; 249
    11fa:	cc f3       	brlt	.-14     	; 0x11ee <__fixunssfsi+0x2e>
    11fc:	86 95       	lsr	r24
    11fe:	77 95       	ror	r23
    1200:	67 95       	ror	r22
    1202:	b3 95       	inc	r27
    1204:	d9 f7       	brne	.-10     	; 0x11fc <__fixunssfsi+0x3c>
    1206:	3e f4       	brtc	.+14     	; 0x1216 <__fixunssfsi+0x56>
    1208:	90 95       	com	r25
    120a:	80 95       	com	r24
    120c:	70 95       	com	r23
    120e:	61 95       	neg	r22
    1210:	7f 4f       	sbci	r23, 0xFF	; 255
    1212:	8f 4f       	sbci	r24, 0xFF	; 255
    1214:	9f 4f       	sbci	r25, 0xFF	; 255
    1216:	08 95       	ret

00001218 <__floatunsisf>:
    1218:	e8 94       	clt
    121a:	09 c0       	rjmp	.+18     	; 0x122e <__floatsisf+0x12>

0000121c <__floatsisf>:
    121c:	97 fb       	bst	r25, 7
    121e:	3e f4       	brtc	.+14     	; 0x122e <__floatsisf+0x12>
    1220:	90 95       	com	r25
    1222:	80 95       	com	r24
    1224:	70 95       	com	r23
    1226:	61 95       	neg	r22
    1228:	7f 4f       	sbci	r23, 0xFF	; 255
    122a:	8f 4f       	sbci	r24, 0xFF	; 255
    122c:	9f 4f       	sbci	r25, 0xFF	; 255
    122e:	99 23       	and	r25, r25
    1230:	a9 f0       	breq	.+42     	; 0x125c <__floatsisf+0x40>
    1232:	f9 2f       	mov	r31, r25
    1234:	96 e9       	ldi	r25, 0x96	; 150
    1236:	bb 27       	eor	r27, r27
    1238:	93 95       	inc	r25
    123a:	f6 95       	lsr	r31
    123c:	87 95       	ror	r24
    123e:	77 95       	ror	r23
    1240:	67 95       	ror	r22
    1242:	b7 95       	ror	r27
    1244:	f1 11       	cpse	r31, r1
    1246:	f8 cf       	rjmp	.-16     	; 0x1238 <__floatsisf+0x1c>
    1248:	fa f4       	brpl	.+62     	; 0x1288 <__floatsisf+0x6c>
    124a:	bb 0f       	add	r27, r27
    124c:	11 f4       	brne	.+4      	; 0x1252 <__floatsisf+0x36>
    124e:	60 ff       	sbrs	r22, 0
    1250:	1b c0       	rjmp	.+54     	; 0x1288 <__floatsisf+0x6c>
    1252:	6f 5f       	subi	r22, 0xFF	; 255
    1254:	7f 4f       	sbci	r23, 0xFF	; 255
    1256:	8f 4f       	sbci	r24, 0xFF	; 255
    1258:	9f 4f       	sbci	r25, 0xFF	; 255
    125a:	16 c0       	rjmp	.+44     	; 0x1288 <__floatsisf+0x6c>
    125c:	88 23       	and	r24, r24
    125e:	11 f0       	breq	.+4      	; 0x1264 <__floatsisf+0x48>
    1260:	96 e9       	ldi	r25, 0x96	; 150
    1262:	11 c0       	rjmp	.+34     	; 0x1286 <__floatsisf+0x6a>
    1264:	77 23       	and	r23, r23
    1266:	21 f0       	breq	.+8      	; 0x1270 <__floatsisf+0x54>
    1268:	9e e8       	ldi	r25, 0x8E	; 142
    126a:	87 2f       	mov	r24, r23
    126c:	76 2f       	mov	r23, r22
    126e:	05 c0       	rjmp	.+10     	; 0x127a <__floatsisf+0x5e>
    1270:	66 23       	and	r22, r22
    1272:	71 f0       	breq	.+28     	; 0x1290 <__floatsisf+0x74>
    1274:	96 e8       	ldi	r25, 0x86	; 134
    1276:	86 2f       	mov	r24, r22
    1278:	70 e0       	ldi	r23, 0x00	; 0
    127a:	60 e0       	ldi	r22, 0x00	; 0
    127c:	2a f0       	brmi	.+10     	; 0x1288 <__floatsisf+0x6c>
    127e:	9a 95       	dec	r25
    1280:	66 0f       	add	r22, r22
    1282:	77 1f       	adc	r23, r23
    1284:	88 1f       	adc	r24, r24
    1286:	da f7       	brpl	.-10     	; 0x127e <__floatsisf+0x62>
    1288:	88 0f       	add	r24, r24
    128a:	96 95       	lsr	r25
    128c:	87 95       	ror	r24
    128e:	97 f9       	bld	r25, 7
    1290:	08 95       	ret

00001292 <__fp_inf>:
    1292:	97 f9       	bld	r25, 7
    1294:	9f 67       	ori	r25, 0x7F	; 127
    1296:	80 e8       	ldi	r24, 0x80	; 128
    1298:	70 e0       	ldi	r23, 0x00	; 0
    129a:	60 e0       	ldi	r22, 0x00	; 0
    129c:	08 95       	ret

0000129e <__fp_nan>:
    129e:	9f ef       	ldi	r25, 0xFF	; 255
    12a0:	80 ec       	ldi	r24, 0xC0	; 192
    12a2:	08 95       	ret

000012a4 <__fp_pscA>:
    12a4:	00 24       	eor	r0, r0
    12a6:	0a 94       	dec	r0
    12a8:	16 16       	cp	r1, r22
    12aa:	17 06       	cpc	r1, r23
    12ac:	18 06       	cpc	r1, r24
    12ae:	09 06       	cpc	r0, r25
    12b0:	08 95       	ret

000012b2 <__fp_pscB>:
    12b2:	00 24       	eor	r0, r0
    12b4:	0a 94       	dec	r0
    12b6:	12 16       	cp	r1, r18
    12b8:	13 06       	cpc	r1, r19
    12ba:	14 06       	cpc	r1, r20
    12bc:	05 06       	cpc	r0, r21
    12be:	08 95       	ret

000012c0 <__fp_round>:
    12c0:	09 2e       	mov	r0, r25
    12c2:	03 94       	inc	r0
    12c4:	00 0c       	add	r0, r0
    12c6:	11 f4       	brne	.+4      	; 0x12cc <__fp_round+0xc>
    12c8:	88 23       	and	r24, r24
    12ca:	52 f0       	brmi	.+20     	; 0x12e0 <__fp_round+0x20>
    12cc:	bb 0f       	add	r27, r27
    12ce:	40 f4       	brcc	.+16     	; 0x12e0 <__fp_round+0x20>
    12d0:	bf 2b       	or	r27, r31
    12d2:	11 f4       	brne	.+4      	; 0x12d8 <__fp_round+0x18>
    12d4:	60 ff       	sbrs	r22, 0
    12d6:	04 c0       	rjmp	.+8      	; 0x12e0 <__fp_round+0x20>
    12d8:	6f 5f       	subi	r22, 0xFF	; 255
    12da:	7f 4f       	sbci	r23, 0xFF	; 255
    12dc:	8f 4f       	sbci	r24, 0xFF	; 255
    12de:	9f 4f       	sbci	r25, 0xFF	; 255
    12e0:	08 95       	ret

000012e2 <__fp_split3>:
    12e2:	57 fd       	sbrc	r21, 7
    12e4:	90 58       	subi	r25, 0x80	; 128
    12e6:	44 0f       	add	r20, r20
    12e8:	55 1f       	adc	r21, r21
    12ea:	59 f0       	breq	.+22     	; 0x1302 <__fp_splitA+0x10>
    12ec:	5f 3f       	cpi	r21, 0xFF	; 255
    12ee:	71 f0       	breq	.+28     	; 0x130c <__fp_splitA+0x1a>
    12f0:	47 95       	ror	r20

000012f2 <__fp_splitA>:
    12f2:	88 0f       	add	r24, r24
    12f4:	97 fb       	bst	r25, 7
    12f6:	99 1f       	adc	r25, r25
    12f8:	61 f0       	breq	.+24     	; 0x1312 <__fp_splitA+0x20>
    12fa:	9f 3f       	cpi	r25, 0xFF	; 255
    12fc:	79 f0       	breq	.+30     	; 0x131c <__fp_splitA+0x2a>
    12fe:	87 95       	ror	r24
    1300:	08 95       	ret
    1302:	12 16       	cp	r1, r18
    1304:	13 06       	cpc	r1, r19
    1306:	14 06       	cpc	r1, r20
    1308:	55 1f       	adc	r21, r21
    130a:	f2 cf       	rjmp	.-28     	; 0x12f0 <__fp_split3+0xe>
    130c:	46 95       	lsr	r20
    130e:	f1 df       	rcall	.-30     	; 0x12f2 <__fp_splitA>
    1310:	08 c0       	rjmp	.+16     	; 0x1322 <__fp_splitA+0x30>
    1312:	16 16       	cp	r1, r22
    1314:	17 06       	cpc	r1, r23
    1316:	18 06       	cpc	r1, r24
    1318:	99 1f       	adc	r25, r25
    131a:	f1 cf       	rjmp	.-30     	; 0x12fe <__fp_splitA+0xc>
    131c:	86 95       	lsr	r24
    131e:	71 05       	cpc	r23, r1
    1320:	61 05       	cpc	r22, r1
    1322:	08 94       	sec
    1324:	08 95       	ret

00001326 <__fp_zero>:
    1326:	e8 94       	clt

00001328 <__fp_szero>:
    1328:	bb 27       	eor	r27, r27
    132a:	66 27       	eor	r22, r22
    132c:	77 27       	eor	r23, r23
    132e:	cb 01       	movw	r24, r22
    1330:	97 f9       	bld	r25, 7
    1332:	08 95       	ret

00001334 <__mulsf3>:
    1334:	0b d0       	rcall	.+22     	; 0x134c <__mulsf3x>
    1336:	c4 cf       	rjmp	.-120    	; 0x12c0 <__fp_round>
    1338:	b5 df       	rcall	.-150    	; 0x12a4 <__fp_pscA>
    133a:	28 f0       	brcs	.+10     	; 0x1346 <__mulsf3+0x12>
    133c:	ba df       	rcall	.-140    	; 0x12b2 <__fp_pscB>
    133e:	18 f0       	brcs	.+6      	; 0x1346 <__mulsf3+0x12>
    1340:	95 23       	and	r25, r21
    1342:	09 f0       	breq	.+2      	; 0x1346 <__mulsf3+0x12>
    1344:	a6 cf       	rjmp	.-180    	; 0x1292 <__fp_inf>
    1346:	ab cf       	rjmp	.-170    	; 0x129e <__fp_nan>
    1348:	11 24       	eor	r1, r1
    134a:	ee cf       	rjmp	.-36     	; 0x1328 <__fp_szero>

0000134c <__mulsf3x>:
    134c:	ca df       	rcall	.-108    	; 0x12e2 <__fp_split3>
    134e:	a0 f3       	brcs	.-24     	; 0x1338 <__mulsf3+0x4>

00001350 <__mulsf3_pse>:
    1350:	95 9f       	mul	r25, r21
    1352:	d1 f3       	breq	.-12     	; 0x1348 <__mulsf3+0x14>
    1354:	95 0f       	add	r25, r21
    1356:	50 e0       	ldi	r21, 0x00	; 0
    1358:	55 1f       	adc	r21, r21
    135a:	62 9f       	mul	r22, r18
    135c:	f0 01       	movw	r30, r0
    135e:	72 9f       	mul	r23, r18
    1360:	bb 27       	eor	r27, r27
    1362:	f0 0d       	add	r31, r0
    1364:	b1 1d       	adc	r27, r1
    1366:	63 9f       	mul	r22, r19
    1368:	aa 27       	eor	r26, r26
    136a:	f0 0d       	add	r31, r0
    136c:	b1 1d       	adc	r27, r1
    136e:	aa 1f       	adc	r26, r26
    1370:	64 9f       	mul	r22, r20
    1372:	66 27       	eor	r22, r22
    1374:	b0 0d       	add	r27, r0
    1376:	a1 1d       	adc	r26, r1
    1378:	66 1f       	adc	r22, r22
    137a:	82 9f       	mul	r24, r18
    137c:	22 27       	eor	r18, r18
    137e:	b0 0d       	add	r27, r0
    1380:	a1 1d       	adc	r26, r1
    1382:	62 1f       	adc	r22, r18
    1384:	73 9f       	mul	r23, r19
    1386:	b0 0d       	add	r27, r0
    1388:	a1 1d       	adc	r26, r1
    138a:	62 1f       	adc	r22, r18
    138c:	83 9f       	mul	r24, r19
    138e:	a0 0d       	add	r26, r0
    1390:	61 1d       	adc	r22, r1
    1392:	22 1f       	adc	r18, r18
    1394:	74 9f       	mul	r23, r20
    1396:	33 27       	eor	r19, r19
    1398:	a0 0d       	add	r26, r0
    139a:	61 1d       	adc	r22, r1
    139c:	23 1f       	adc	r18, r19
    139e:	84 9f       	mul	r24, r20
    13a0:	60 0d       	add	r22, r0
    13a2:	21 1d       	adc	r18, r1
    13a4:	82 2f       	mov	r24, r18
    13a6:	76 2f       	mov	r23, r22
    13a8:	6a 2f       	mov	r22, r26
    13aa:	11 24       	eor	r1, r1
    13ac:	9f 57       	subi	r25, 0x7F	; 127
    13ae:	50 40       	sbci	r21, 0x00	; 0
    13b0:	8a f0       	brmi	.+34     	; 0x13d4 <__mulsf3_pse+0x84>
    13b2:	e1 f0       	breq	.+56     	; 0x13ec <__mulsf3_pse+0x9c>
    13b4:	88 23       	and	r24, r24
    13b6:	4a f0       	brmi	.+18     	; 0x13ca <__mulsf3_pse+0x7a>
    13b8:	ee 0f       	add	r30, r30
    13ba:	ff 1f       	adc	r31, r31
    13bc:	bb 1f       	adc	r27, r27
    13be:	66 1f       	adc	r22, r22
    13c0:	77 1f       	adc	r23, r23
    13c2:	88 1f       	adc	r24, r24
    13c4:	91 50       	subi	r25, 0x01	; 1
    13c6:	50 40       	sbci	r21, 0x00	; 0
    13c8:	a9 f7       	brne	.-22     	; 0x13b4 <__mulsf3_pse+0x64>
    13ca:	9e 3f       	cpi	r25, 0xFE	; 254
    13cc:	51 05       	cpc	r21, r1
    13ce:	70 f0       	brcs	.+28     	; 0x13ec <__mulsf3_pse+0x9c>
    13d0:	60 cf       	rjmp	.-320    	; 0x1292 <__fp_inf>
    13d2:	aa cf       	rjmp	.-172    	; 0x1328 <__fp_szero>
    13d4:	5f 3f       	cpi	r21, 0xFF	; 255
    13d6:	ec f3       	brlt	.-6      	; 0x13d2 <__mulsf3_pse+0x82>
    13d8:	98 3e       	cpi	r25, 0xE8	; 232
    13da:	dc f3       	brlt	.-10     	; 0x13d2 <__mulsf3_pse+0x82>
    13dc:	86 95       	lsr	r24
    13de:	77 95       	ror	r23
    13e0:	67 95       	ror	r22
    13e2:	b7 95       	ror	r27
    13e4:	f7 95       	ror	r31
    13e6:	e7 95       	ror	r30
    13e8:	9f 5f       	subi	r25, 0xFF	; 255
    13ea:	c1 f7       	brne	.-16     	; 0x13dc <__mulsf3_pse+0x8c>
    13ec:	fe 2b       	or	r31, r30
    13ee:	88 0f       	add	r24, r24
    13f0:	91 1d       	adc	r25, r1
    13f2:	96 95       	lsr	r25
    13f4:	87 95       	ror	r24
    13f6:	97 f9       	bld	r25, 7
    13f8:	08 95       	ret

000013fa <__udivmodhi4>:
    13fa:	aa 1b       	sub	r26, r26
    13fc:	bb 1b       	sub	r27, r27
    13fe:	51 e1       	ldi	r21, 0x11	; 17
    1400:	07 c0       	rjmp	.+14     	; 0x1410 <__udivmodhi4_ep>

00001402 <__udivmodhi4_loop>:
    1402:	aa 1f       	adc	r26, r26
    1404:	bb 1f       	adc	r27, r27
    1406:	a6 17       	cp	r26, r22
    1408:	b7 07       	cpc	r27, r23
    140a:	10 f0       	brcs	.+4      	; 0x1410 <__udivmodhi4_ep>
    140c:	a6 1b       	sub	r26, r22
    140e:	b7 0b       	sbc	r27, r23

00001410 <__udivmodhi4_ep>:
    1410:	88 1f       	adc	r24, r24
    1412:	99 1f       	adc	r25, r25
    1414:	5a 95       	dec	r21
    1416:	a9 f7       	brne	.-22     	; 0x1402 <__udivmodhi4_loop>
    1418:	80 95       	com	r24
    141a:	90 95       	com	r25
    141c:	bc 01       	movw	r22, r24
    141e:	cd 01       	movw	r24, r26
    1420:	08 95       	ret

00001422 <__divmodhi4>:
    1422:	97 fb       	bst	r25, 7
    1424:	07 2e       	mov	r0, r23
    1426:	16 f4       	brtc	.+4      	; 0x142c <__divmodhi4+0xa>
    1428:	00 94       	com	r0
    142a:	06 d0       	rcall	.+12     	; 0x1438 <__divmodhi4_neg1>
    142c:	77 fd       	sbrc	r23, 7
    142e:	08 d0       	rcall	.+16     	; 0x1440 <__divmodhi4_neg2>
    1430:	e4 df       	rcall	.-56     	; 0x13fa <__udivmodhi4>
    1432:	07 fc       	sbrc	r0, 7
    1434:	05 d0       	rcall	.+10     	; 0x1440 <__divmodhi4_neg2>
    1436:	3e f4       	brtc	.+14     	; 0x1446 <__divmodhi4_exit>

00001438 <__divmodhi4_neg1>:
    1438:	90 95       	com	r25
    143a:	81 95       	neg	r24
    143c:	9f 4f       	sbci	r25, 0xFF	; 255
    143e:	08 95       	ret

00001440 <__divmodhi4_neg2>:
    1440:	70 95       	com	r23
    1442:	61 95       	neg	r22
    1444:	7f 4f       	sbci	r23, 0xFF	; 255

00001446 <__divmodhi4_exit>:
    1446:	08 95       	ret

00001448 <__divmodsi4>:
    1448:	05 2e       	mov	r0, r21
    144a:	97 fb       	bst	r25, 7
    144c:	16 f4       	brtc	.+4      	; 0x1452 <__divmodsi4+0xa>
    144e:	00 94       	com	r0
    1450:	0f d0       	rcall	.+30     	; 0x1470 <__negsi2>
    1452:	57 fd       	sbrc	r21, 7
    1454:	05 d0       	rcall	.+10     	; 0x1460 <__divmodsi4_neg2>
    1456:	24 d0       	rcall	.+72     	; 0x14a0 <__udivmodsi4>
    1458:	07 fc       	sbrc	r0, 7
    145a:	02 d0       	rcall	.+4      	; 0x1460 <__divmodsi4_neg2>
    145c:	46 f4       	brtc	.+16     	; 0x146e <__divmodsi4_exit>
    145e:	08 c0       	rjmp	.+16     	; 0x1470 <__negsi2>

00001460 <__divmodsi4_neg2>:
    1460:	50 95       	com	r21
    1462:	40 95       	com	r20
    1464:	30 95       	com	r19
    1466:	21 95       	neg	r18
    1468:	3f 4f       	sbci	r19, 0xFF	; 255
    146a:	4f 4f       	sbci	r20, 0xFF	; 255
    146c:	5f 4f       	sbci	r21, 0xFF	; 255

0000146e <__divmodsi4_exit>:
    146e:	08 95       	ret

00001470 <__negsi2>:
    1470:	90 95       	com	r25
    1472:	80 95       	com	r24
    1474:	70 95       	com	r23
    1476:	61 95       	neg	r22
    1478:	7f 4f       	sbci	r23, 0xFF	; 255
    147a:	8f 4f       	sbci	r24, 0xFF	; 255
    147c:	9f 4f       	sbci	r25, 0xFF	; 255
    147e:	08 95       	ret

00001480 <__tablejump2__>:
    1480:	ee 0f       	add	r30, r30
    1482:	ff 1f       	adc	r31, r31

00001484 <__tablejump__>:
    1484:	05 90       	lpm	r0, Z+
    1486:	f4 91       	lpm	r31, Z
    1488:	e0 2d       	mov	r30, r0
    148a:	19 94       	eijmp

0000148c <__muluhisi3>:
    148c:	2b d0       	rcall	.+86     	; 0x14e4 <__umulhisi3>
    148e:	a5 9f       	mul	r26, r21
    1490:	90 0d       	add	r25, r0
    1492:	b4 9f       	mul	r27, r20
    1494:	90 0d       	add	r25, r0
    1496:	a4 9f       	mul	r26, r20
    1498:	80 0d       	add	r24, r0
    149a:	91 1d       	adc	r25, r1
    149c:	11 24       	eor	r1, r1
    149e:	08 95       	ret

000014a0 <__udivmodsi4>:
    14a0:	a1 e2       	ldi	r26, 0x21	; 33
    14a2:	1a 2e       	mov	r1, r26
    14a4:	aa 1b       	sub	r26, r26
    14a6:	bb 1b       	sub	r27, r27
    14a8:	fd 01       	movw	r30, r26
    14aa:	0d c0       	rjmp	.+26     	; 0x14c6 <__udivmodsi4_ep>

000014ac <__udivmodsi4_loop>:
    14ac:	aa 1f       	adc	r26, r26
    14ae:	bb 1f       	adc	r27, r27
    14b0:	ee 1f       	adc	r30, r30
    14b2:	ff 1f       	adc	r31, r31
    14b4:	a2 17       	cp	r26, r18
    14b6:	b3 07       	cpc	r27, r19
    14b8:	e4 07       	cpc	r30, r20
    14ba:	f5 07       	cpc	r31, r21
    14bc:	20 f0       	brcs	.+8      	; 0x14c6 <__udivmodsi4_ep>
    14be:	a2 1b       	sub	r26, r18
    14c0:	b3 0b       	sbc	r27, r19
    14c2:	e4 0b       	sbc	r30, r20
    14c4:	f5 0b       	sbc	r31, r21

000014c6 <__udivmodsi4_ep>:
    14c6:	66 1f       	adc	r22, r22
    14c8:	77 1f       	adc	r23, r23
    14ca:	88 1f       	adc	r24, r24
    14cc:	99 1f       	adc	r25, r25
    14ce:	1a 94       	dec	r1
    14d0:	69 f7       	brne	.-38     	; 0x14ac <__udivmodsi4_loop>
    14d2:	60 95       	com	r22
    14d4:	70 95       	com	r23
    14d6:	80 95       	com	r24
    14d8:	90 95       	com	r25
    14da:	9b 01       	movw	r18, r22
    14dc:	ac 01       	movw	r20, r24
    14de:	bd 01       	movw	r22, r26
    14e0:	cf 01       	movw	r24, r30
    14e2:	08 95       	ret

000014e4 <__umulhisi3>:
    14e4:	a2 9f       	mul	r26, r18
    14e6:	b0 01       	movw	r22, r0
    14e8:	b3 9f       	mul	r27, r19
    14ea:	c0 01       	movw	r24, r0
    14ec:	a3 9f       	mul	r26, r19
    14ee:	70 0d       	add	r23, r0
    14f0:	81 1d       	adc	r24, r1
    14f2:	11 24       	eor	r1, r1
    14f4:	91 1d       	adc	r25, r1
    14f6:	b2 9f       	mul	r27, r18
    14f8:	70 0d       	add	r23, r0
    14fa:	81 1d       	adc	r24, r1
    14fc:	11 24       	eor	r1, r1
    14fe:	91 1d       	adc	r25, r1
    1500:	08 95       	ret

00001502 <malloc>:
    1502:	cf 93       	push	r28
    1504:	df 93       	push	r29
    1506:	82 30       	cpi	r24, 0x02	; 2
    1508:	91 05       	cpc	r25, r1
    150a:	10 f4       	brcc	.+4      	; 0x1510 <malloc+0xe>
    150c:	82 e0       	ldi	r24, 0x02	; 2
    150e:	90 e0       	ldi	r25, 0x00	; 0
    1510:	e0 91 1e 04 	lds	r30, 0x041E
    1514:	f0 91 1f 04 	lds	r31, 0x041F
    1518:	20 e0       	ldi	r18, 0x00	; 0
    151a:	30 e0       	ldi	r19, 0x00	; 0
    151c:	a0 e0       	ldi	r26, 0x00	; 0
    151e:	b0 e0       	ldi	r27, 0x00	; 0
    1520:	30 97       	sbiw	r30, 0x00	; 0
    1522:	39 f1       	breq	.+78     	; 0x1572 <malloc+0x70>
    1524:	40 81       	ld	r20, Z
    1526:	51 81       	ldd	r21, Z+1	; 0x01
    1528:	48 17       	cp	r20, r24
    152a:	59 07       	cpc	r21, r25
    152c:	b8 f0       	brcs	.+46     	; 0x155c <malloc+0x5a>
    152e:	48 17       	cp	r20, r24
    1530:	59 07       	cpc	r21, r25
    1532:	71 f4       	brne	.+28     	; 0x1550 <malloc+0x4e>
    1534:	82 81       	ldd	r24, Z+2	; 0x02
    1536:	93 81       	ldd	r25, Z+3	; 0x03
    1538:	10 97       	sbiw	r26, 0x00	; 0
    153a:	29 f0       	breq	.+10     	; 0x1546 <malloc+0x44>
    153c:	13 96       	adiw	r26, 0x03	; 3
    153e:	9c 93       	st	X, r25
    1540:	8e 93       	st	-X, r24
    1542:	12 97       	sbiw	r26, 0x02	; 2
    1544:	2c c0       	rjmp	.+88     	; 0x159e <malloc+0x9c>
    1546:	90 93 1f 04 	sts	0x041F, r25
    154a:	80 93 1e 04 	sts	0x041E, r24
    154e:	27 c0       	rjmp	.+78     	; 0x159e <malloc+0x9c>
    1550:	21 15       	cp	r18, r1
    1552:	31 05       	cpc	r19, r1
    1554:	31 f0       	breq	.+12     	; 0x1562 <malloc+0x60>
    1556:	42 17       	cp	r20, r18
    1558:	53 07       	cpc	r21, r19
    155a:	18 f0       	brcs	.+6      	; 0x1562 <malloc+0x60>
    155c:	a9 01       	movw	r20, r18
    155e:	db 01       	movw	r26, r22
    1560:	01 c0       	rjmp	.+2      	; 0x1564 <malloc+0x62>
    1562:	ef 01       	movw	r28, r30
    1564:	9a 01       	movw	r18, r20
    1566:	bd 01       	movw	r22, r26
    1568:	df 01       	movw	r26, r30
    156a:	02 80       	ldd	r0, Z+2	; 0x02
    156c:	f3 81       	ldd	r31, Z+3	; 0x03
    156e:	e0 2d       	mov	r30, r0
    1570:	d7 cf       	rjmp	.-82     	; 0x1520 <malloc+0x1e>
    1572:	21 15       	cp	r18, r1
    1574:	31 05       	cpc	r19, r1
    1576:	f9 f0       	breq	.+62     	; 0x15b6 <malloc+0xb4>
    1578:	28 1b       	sub	r18, r24
    157a:	39 0b       	sbc	r19, r25
    157c:	24 30       	cpi	r18, 0x04	; 4
    157e:	31 05       	cpc	r19, r1
    1580:	80 f4       	brcc	.+32     	; 0x15a2 <malloc+0xa0>
    1582:	8a 81       	ldd	r24, Y+2	; 0x02
    1584:	9b 81       	ldd	r25, Y+3	; 0x03
    1586:	61 15       	cp	r22, r1
    1588:	71 05       	cpc	r23, r1
    158a:	21 f0       	breq	.+8      	; 0x1594 <malloc+0x92>
    158c:	fb 01       	movw	r30, r22
    158e:	93 83       	std	Z+3, r25	; 0x03
    1590:	82 83       	std	Z+2, r24	; 0x02
    1592:	04 c0       	rjmp	.+8      	; 0x159c <malloc+0x9a>
    1594:	90 93 1f 04 	sts	0x041F, r25
    1598:	80 93 1e 04 	sts	0x041E, r24
    159c:	fe 01       	movw	r30, r28
    159e:	32 96       	adiw	r30, 0x02	; 2
    15a0:	44 c0       	rjmp	.+136    	; 0x162a <malloc+0x128>
    15a2:	fe 01       	movw	r30, r28
    15a4:	e2 0f       	add	r30, r18
    15a6:	f3 1f       	adc	r31, r19
    15a8:	81 93       	st	Z+, r24
    15aa:	91 93       	st	Z+, r25
    15ac:	22 50       	subi	r18, 0x02	; 2
    15ae:	31 09       	sbc	r19, r1
    15b0:	39 83       	std	Y+1, r19	; 0x01
    15b2:	28 83       	st	Y, r18
    15b4:	3a c0       	rjmp	.+116    	; 0x162a <malloc+0x128>
    15b6:	20 91 1c 04 	lds	r18, 0x041C
    15ba:	30 91 1d 04 	lds	r19, 0x041D
    15be:	23 2b       	or	r18, r19
    15c0:	41 f4       	brne	.+16     	; 0x15d2 <malloc+0xd0>
    15c2:	20 91 02 02 	lds	r18, 0x0202
    15c6:	30 91 03 02 	lds	r19, 0x0203
    15ca:	30 93 1d 04 	sts	0x041D, r19
    15ce:	20 93 1c 04 	sts	0x041C, r18
    15d2:	20 91 00 02 	lds	r18, 0x0200
    15d6:	30 91 01 02 	lds	r19, 0x0201
    15da:	21 15       	cp	r18, r1
    15dc:	31 05       	cpc	r19, r1
    15de:	41 f4       	brne	.+16     	; 0x15f0 <malloc+0xee>
    15e0:	2d b7       	in	r18, 0x3d	; 61
    15e2:	3e b7       	in	r19, 0x3e	; 62
    15e4:	40 91 04 02 	lds	r20, 0x0204
    15e8:	50 91 05 02 	lds	r21, 0x0205
    15ec:	24 1b       	sub	r18, r20
    15ee:	35 0b       	sbc	r19, r21
    15f0:	e0 91 1c 04 	lds	r30, 0x041C
    15f4:	f0 91 1d 04 	lds	r31, 0x041D
    15f8:	e2 17       	cp	r30, r18
    15fa:	f3 07       	cpc	r31, r19
    15fc:	a0 f4       	brcc	.+40     	; 0x1626 <malloc+0x124>
    15fe:	2e 1b       	sub	r18, r30
    1600:	3f 0b       	sbc	r19, r31
    1602:	28 17       	cp	r18, r24
    1604:	39 07       	cpc	r19, r25
    1606:	78 f0       	brcs	.+30     	; 0x1626 <malloc+0x124>
    1608:	ac 01       	movw	r20, r24
    160a:	4e 5f       	subi	r20, 0xFE	; 254
    160c:	5f 4f       	sbci	r21, 0xFF	; 255
    160e:	24 17       	cp	r18, r20
    1610:	35 07       	cpc	r19, r21
    1612:	48 f0       	brcs	.+18     	; 0x1626 <malloc+0x124>
    1614:	4e 0f       	add	r20, r30
    1616:	5f 1f       	adc	r21, r31
    1618:	50 93 1d 04 	sts	0x041D, r21
    161c:	40 93 1c 04 	sts	0x041C, r20
    1620:	81 93       	st	Z+, r24
    1622:	91 93       	st	Z+, r25
    1624:	02 c0       	rjmp	.+4      	; 0x162a <malloc+0x128>
    1626:	e0 e0       	ldi	r30, 0x00	; 0
    1628:	f0 e0       	ldi	r31, 0x00	; 0
    162a:	cf 01       	movw	r24, r30
    162c:	df 91       	pop	r29
    162e:	cf 91       	pop	r28
    1630:	08 95       	ret

00001632 <free>:
    1632:	cf 93       	push	r28
    1634:	df 93       	push	r29
    1636:	00 97       	sbiw	r24, 0x00	; 0
    1638:	09 f4       	brne	.+2      	; 0x163c <free+0xa>
    163a:	87 c0       	rjmp	.+270    	; 0x174a <free+0x118>
    163c:	fc 01       	movw	r30, r24
    163e:	32 97       	sbiw	r30, 0x02	; 2
    1640:	13 82       	std	Z+3, r1	; 0x03
    1642:	12 82       	std	Z+2, r1	; 0x02
    1644:	c0 91 1e 04 	lds	r28, 0x041E
    1648:	d0 91 1f 04 	lds	r29, 0x041F
    164c:	20 97       	sbiw	r28, 0x00	; 0
    164e:	81 f4       	brne	.+32     	; 0x1670 <free+0x3e>
    1650:	20 81       	ld	r18, Z
    1652:	31 81       	ldd	r19, Z+1	; 0x01
    1654:	28 0f       	add	r18, r24
    1656:	39 1f       	adc	r19, r25
    1658:	80 91 1c 04 	lds	r24, 0x041C
    165c:	90 91 1d 04 	lds	r25, 0x041D
    1660:	82 17       	cp	r24, r18
    1662:	93 07       	cpc	r25, r19
    1664:	79 f5       	brne	.+94     	; 0x16c4 <free+0x92>
    1666:	f0 93 1d 04 	sts	0x041D, r31
    166a:	e0 93 1c 04 	sts	0x041C, r30
    166e:	6d c0       	rjmp	.+218    	; 0x174a <free+0x118>
    1670:	de 01       	movw	r26, r28
    1672:	20 e0       	ldi	r18, 0x00	; 0
    1674:	30 e0       	ldi	r19, 0x00	; 0
    1676:	ae 17       	cp	r26, r30
    1678:	bf 07       	cpc	r27, r31
    167a:	50 f4       	brcc	.+20     	; 0x1690 <free+0x5e>
    167c:	12 96       	adiw	r26, 0x02	; 2
    167e:	4d 91       	ld	r20, X+
    1680:	5c 91       	ld	r21, X
    1682:	13 97       	sbiw	r26, 0x03	; 3
    1684:	9d 01       	movw	r18, r26
    1686:	41 15       	cp	r20, r1
    1688:	51 05       	cpc	r21, r1
    168a:	09 f1       	breq	.+66     	; 0x16ce <free+0x9c>
    168c:	da 01       	movw	r26, r20
    168e:	f3 cf       	rjmp	.-26     	; 0x1676 <free+0x44>
    1690:	b3 83       	std	Z+3, r27	; 0x03
    1692:	a2 83       	std	Z+2, r26	; 0x02
    1694:	40 81       	ld	r20, Z
    1696:	51 81       	ldd	r21, Z+1	; 0x01
    1698:	84 0f       	add	r24, r20
    169a:	95 1f       	adc	r25, r21
    169c:	8a 17       	cp	r24, r26
    169e:	9b 07       	cpc	r25, r27
    16a0:	71 f4       	brne	.+28     	; 0x16be <free+0x8c>
    16a2:	8d 91       	ld	r24, X+
    16a4:	9c 91       	ld	r25, X
    16a6:	11 97       	sbiw	r26, 0x01	; 1
    16a8:	84 0f       	add	r24, r20
    16aa:	95 1f       	adc	r25, r21
    16ac:	02 96       	adiw	r24, 0x02	; 2
    16ae:	91 83       	std	Z+1, r25	; 0x01
    16b0:	80 83       	st	Z, r24
    16b2:	12 96       	adiw	r26, 0x02	; 2
    16b4:	8d 91       	ld	r24, X+
    16b6:	9c 91       	ld	r25, X
    16b8:	13 97       	sbiw	r26, 0x03	; 3
    16ba:	93 83       	std	Z+3, r25	; 0x03
    16bc:	82 83       	std	Z+2, r24	; 0x02
    16be:	21 15       	cp	r18, r1
    16c0:	31 05       	cpc	r19, r1
    16c2:	29 f4       	brne	.+10     	; 0x16ce <free+0x9c>
    16c4:	f0 93 1f 04 	sts	0x041F, r31
    16c8:	e0 93 1e 04 	sts	0x041E, r30
    16cc:	3e c0       	rjmp	.+124    	; 0x174a <free+0x118>
    16ce:	d9 01       	movw	r26, r18
    16d0:	13 96       	adiw	r26, 0x03	; 3
    16d2:	fc 93       	st	X, r31
    16d4:	ee 93       	st	-X, r30
    16d6:	12 97       	sbiw	r26, 0x02	; 2
    16d8:	4d 91       	ld	r20, X+
    16da:	5d 91       	ld	r21, X+
    16dc:	a4 0f       	add	r26, r20
    16de:	b5 1f       	adc	r27, r21
    16e0:	ea 17       	cp	r30, r26
    16e2:	fb 07       	cpc	r31, r27
    16e4:	79 f4       	brne	.+30     	; 0x1704 <free+0xd2>
    16e6:	80 81       	ld	r24, Z
    16e8:	91 81       	ldd	r25, Z+1	; 0x01
    16ea:	84 0f       	add	r24, r20
    16ec:	95 1f       	adc	r25, r21
    16ee:	02 96       	adiw	r24, 0x02	; 2
    16f0:	d9 01       	movw	r26, r18
    16f2:	11 96       	adiw	r26, 0x01	; 1
    16f4:	9c 93       	st	X, r25
    16f6:	8e 93       	st	-X, r24
    16f8:	82 81       	ldd	r24, Z+2	; 0x02
    16fa:	93 81       	ldd	r25, Z+3	; 0x03
    16fc:	13 96       	adiw	r26, 0x03	; 3
    16fe:	9c 93       	st	X, r25
    1700:	8e 93       	st	-X, r24
    1702:	12 97       	sbiw	r26, 0x02	; 2
    1704:	e0 e0       	ldi	r30, 0x00	; 0
    1706:	f0 e0       	ldi	r31, 0x00	; 0
    1708:	8a 81       	ldd	r24, Y+2	; 0x02
    170a:	9b 81       	ldd	r25, Y+3	; 0x03
    170c:	00 97       	sbiw	r24, 0x00	; 0
    170e:	19 f0       	breq	.+6      	; 0x1716 <free+0xe4>
    1710:	fe 01       	movw	r30, r28
    1712:	ec 01       	movw	r28, r24
    1714:	f9 cf       	rjmp	.-14     	; 0x1708 <free+0xd6>
    1716:	ce 01       	movw	r24, r28
    1718:	02 96       	adiw	r24, 0x02	; 2
    171a:	28 81       	ld	r18, Y
    171c:	39 81       	ldd	r19, Y+1	; 0x01
    171e:	82 0f       	add	r24, r18
    1720:	93 1f       	adc	r25, r19
    1722:	20 91 1c 04 	lds	r18, 0x041C
    1726:	30 91 1d 04 	lds	r19, 0x041D
    172a:	28 17       	cp	r18, r24
    172c:	39 07       	cpc	r19, r25
    172e:	69 f4       	brne	.+26     	; 0x174a <free+0x118>
    1730:	30 97       	sbiw	r30, 0x00	; 0
    1732:	29 f4       	brne	.+10     	; 0x173e <free+0x10c>
    1734:	10 92 1f 04 	sts	0x041F, r1
    1738:	10 92 1e 04 	sts	0x041E, r1
    173c:	02 c0       	rjmp	.+4      	; 0x1742 <free+0x110>
    173e:	13 82       	std	Z+3, r1	; 0x03
    1740:	12 82       	std	Z+2, r1	; 0x02
    1742:	d0 93 1d 04 	sts	0x041D, r29
    1746:	c0 93 1c 04 	sts	0x041C, r28
    174a:	df 91       	pop	r29
    174c:	cf 91       	pop	r28
    174e:	08 95       	ret

00001750 <atof>:
    1750:	66 27       	eor	r22, r22
    1752:	77 27       	eor	r23, r23
    1754:	72 c5       	rjmp	.+2788   	; 0x223a <strtod>

00001756 <strsep>:
    1756:	fc 01       	movw	r30, r24
    1758:	a0 81       	ld	r26, Z
    175a:	b1 81       	ldd	r27, Z+1	; 0x01
    175c:	ad 01       	movw	r20, r26
    175e:	10 96       	adiw	r26, 0x00	; 0
    1760:	81 f0       	breq	.+32     	; 0x1782 <strsep+0x2c>
    1762:	3d 91       	ld	r19, X+
    1764:	fb 01       	movw	r30, r22
    1766:	01 90       	ld	r0, Z+
    1768:	03 16       	cp	r0, r19
    176a:	01 10       	cpse	r0, r1
    176c:	e1 f7       	brne	.-8      	; 0x1766 <strsep+0x10>
    176e:	c9 f7       	brne	.-14     	; 0x1762 <strsep+0xc>
    1770:	00 20       	and	r0, r0
    1772:	11 f4       	brne	.+4      	; 0x1778 <strsep+0x22>
    1774:	d0 01       	movw	r26, r0
    1776:	02 c0       	rjmp	.+4      	; 0x177c <strsep+0x26>
    1778:	1e 92       	st	-X, r1
    177a:	11 96       	adiw	r26, 0x01	; 1
    177c:	fc 01       	movw	r30, r24
    177e:	a0 83       	st	Z, r26
    1780:	b1 83       	std	Z+1, r27	; 0x01
    1782:	ca 01       	movw	r24, r20
    1784:	08 95       	ret

00001786 <fdevopen>:
    1786:	0f 93       	push	r16
    1788:	1f 93       	push	r17
    178a:	cf 93       	push	r28
    178c:	df 93       	push	r29
    178e:	ec 01       	movw	r28, r24
    1790:	8b 01       	movw	r16, r22
    1792:	00 97       	sbiw	r24, 0x00	; 0
    1794:	31 f4       	brne	.+12     	; 0x17a2 <fdevopen+0x1c>
    1796:	61 15       	cp	r22, r1
    1798:	71 05       	cpc	r23, r1
    179a:	19 f4       	brne	.+6      	; 0x17a2 <fdevopen+0x1c>
    179c:	80 e0       	ldi	r24, 0x00	; 0
    179e:	90 e0       	ldi	r25, 0x00	; 0
    17a0:	37 c0       	rjmp	.+110    	; 0x1810 <fdevopen+0x8a>
    17a2:	6e e0       	ldi	r22, 0x0E	; 14
    17a4:	70 e0       	ldi	r23, 0x00	; 0
    17a6:	81 e0       	ldi	r24, 0x01	; 1
    17a8:	90 e0       	ldi	r25, 0x00	; 0
    17aa:	2d d5       	rcall	.+2650   	; 0x2206 <calloc>
    17ac:	fc 01       	movw	r30, r24
    17ae:	00 97       	sbiw	r24, 0x00	; 0
    17b0:	a9 f3       	breq	.-22     	; 0x179c <fdevopen+0x16>
    17b2:	80 e8       	ldi	r24, 0x80	; 128
    17b4:	83 83       	std	Z+3, r24	; 0x03
    17b6:	01 15       	cp	r16, r1
    17b8:	11 05       	cpc	r17, r1
    17ba:	71 f0       	breq	.+28     	; 0x17d8 <fdevopen+0x52>
    17bc:	13 87       	std	Z+11, r17	; 0x0b
    17be:	02 87       	std	Z+10, r16	; 0x0a
    17c0:	81 e8       	ldi	r24, 0x81	; 129
    17c2:	83 83       	std	Z+3, r24	; 0x03
    17c4:	80 91 20 04 	lds	r24, 0x0420
    17c8:	90 91 21 04 	lds	r25, 0x0421
    17cc:	89 2b       	or	r24, r25
    17ce:	21 f4       	brne	.+8      	; 0x17d8 <fdevopen+0x52>
    17d0:	f0 93 21 04 	sts	0x0421, r31
    17d4:	e0 93 20 04 	sts	0x0420, r30
    17d8:	20 97       	sbiw	r28, 0x00	; 0
    17da:	c9 f0       	breq	.+50     	; 0x180e <fdevopen+0x88>
    17dc:	d1 87       	std	Z+9, r29	; 0x09
    17de:	c0 87       	std	Z+8, r28	; 0x08
    17e0:	83 81       	ldd	r24, Z+3	; 0x03
    17e2:	82 60       	ori	r24, 0x02	; 2
    17e4:	83 83       	std	Z+3, r24	; 0x03
    17e6:	80 91 22 04 	lds	r24, 0x0422
    17ea:	90 91 23 04 	lds	r25, 0x0423
    17ee:	89 2b       	or	r24, r25
    17f0:	71 f4       	brne	.+28     	; 0x180e <fdevopen+0x88>
    17f2:	f0 93 23 04 	sts	0x0423, r31
    17f6:	e0 93 22 04 	sts	0x0422, r30
    17fa:	80 91 24 04 	lds	r24, 0x0424
    17fe:	90 91 25 04 	lds	r25, 0x0425
    1802:	89 2b       	or	r24, r25
    1804:	21 f4       	brne	.+8      	; 0x180e <fdevopen+0x88>
    1806:	f0 93 25 04 	sts	0x0425, r31
    180a:	e0 93 24 04 	sts	0x0424, r30
    180e:	cf 01       	movw	r24, r30
    1810:	df 91       	pop	r29
    1812:	cf 91       	pop	r28
    1814:	1f 91       	pop	r17
    1816:	0f 91       	pop	r16
    1818:	08 95       	ret

0000181a <printf>:
    181a:	cf 93       	push	r28
    181c:	df 93       	push	r29
    181e:	cd b7       	in	r28, 0x3d	; 61
    1820:	de b7       	in	r29, 0x3e	; 62
    1822:	fe 01       	movw	r30, r28
    1824:	36 96       	adiw	r30, 0x06	; 6
    1826:	61 91       	ld	r22, Z+
    1828:	71 91       	ld	r23, Z+
    182a:	af 01       	movw	r20, r30
    182c:	80 91 22 04 	lds	r24, 0x0422
    1830:	90 91 23 04 	lds	r25, 0x0423
    1834:	41 d0       	rcall	.+130    	; 0x18b8 <vfprintf>
    1836:	df 91       	pop	r29
    1838:	cf 91       	pop	r28
    183a:	08 95       	ret

0000183c <puts>:
    183c:	0f 93       	push	r16
    183e:	1f 93       	push	r17
    1840:	cf 93       	push	r28
    1842:	df 93       	push	r29
    1844:	e0 91 22 04 	lds	r30, 0x0422
    1848:	f0 91 23 04 	lds	r31, 0x0423
    184c:	23 81       	ldd	r18, Z+3	; 0x03
    184e:	21 ff       	sbrs	r18, 1
    1850:	1b c0       	rjmp	.+54     	; 0x1888 <puts+0x4c>
    1852:	ec 01       	movw	r28, r24
    1854:	00 e0       	ldi	r16, 0x00	; 0
    1856:	10 e0       	ldi	r17, 0x00	; 0
    1858:	89 91       	ld	r24, Y+
    185a:	60 91 22 04 	lds	r22, 0x0422
    185e:	70 91 23 04 	lds	r23, 0x0423
    1862:	db 01       	movw	r26, r22
    1864:	18 96       	adiw	r26, 0x08	; 8
    1866:	ed 91       	ld	r30, X+
    1868:	fc 91       	ld	r31, X
    186a:	19 97       	sbiw	r26, 0x09	; 9
    186c:	88 23       	and	r24, r24
    186e:	31 f0       	breq	.+12     	; 0x187c <puts+0x40>
    1870:	19 95       	eicall
    1872:	89 2b       	or	r24, r25
    1874:	89 f3       	breq	.-30     	; 0x1858 <puts+0x1c>
    1876:	0f ef       	ldi	r16, 0xFF	; 255
    1878:	1f ef       	ldi	r17, 0xFF	; 255
    187a:	ee cf       	rjmp	.-36     	; 0x1858 <puts+0x1c>
    187c:	8a e0       	ldi	r24, 0x0A	; 10
    187e:	19 95       	eicall
    1880:	89 2b       	or	r24, r25
    1882:	11 f4       	brne	.+4      	; 0x1888 <puts+0x4c>
    1884:	c8 01       	movw	r24, r16
    1886:	02 c0       	rjmp	.+4      	; 0x188c <puts+0x50>
    1888:	8f ef       	ldi	r24, 0xFF	; 255
    188a:	9f ef       	ldi	r25, 0xFF	; 255
    188c:	df 91       	pop	r29
    188e:	cf 91       	pop	r28
    1890:	1f 91       	pop	r17
    1892:	0f 91       	pop	r16
    1894:	08 95       	ret

00001896 <scanf>:
    1896:	cf 93       	push	r28
    1898:	df 93       	push	r29
    189a:	cd b7       	in	r28, 0x3d	; 61
    189c:	de b7       	in	r29, 0x3e	; 62
    189e:	fe 01       	movw	r30, r28
    18a0:	36 96       	adiw	r30, 0x06	; 6
    18a2:	61 91       	ld	r22, Z+
    18a4:	71 91       	ld	r23, Z+
    18a6:	af 01       	movw	r20, r30
    18a8:	80 91 20 04 	lds	r24, 0x0420
    18ac:	90 91 21 04 	lds	r25, 0x0421
    18b0:	81 d3       	rcall	.+1794   	; 0x1fb4 <vfscanf>
    18b2:	df 91       	pop	r29
    18b4:	cf 91       	pop	r28
    18b6:	08 95       	ret

000018b8 <vfprintf>:
    18b8:	2f 92       	push	r2
    18ba:	3f 92       	push	r3
    18bc:	4f 92       	push	r4
    18be:	5f 92       	push	r5
    18c0:	6f 92       	push	r6
    18c2:	7f 92       	push	r7
    18c4:	8f 92       	push	r8
    18c6:	9f 92       	push	r9
    18c8:	af 92       	push	r10
    18ca:	bf 92       	push	r11
    18cc:	cf 92       	push	r12
    18ce:	df 92       	push	r13
    18d0:	ef 92       	push	r14
    18d2:	ff 92       	push	r15
    18d4:	0f 93       	push	r16
    18d6:	1f 93       	push	r17
    18d8:	cf 93       	push	r28
    18da:	df 93       	push	r29
    18dc:	cd b7       	in	r28, 0x3d	; 61
    18de:	de b7       	in	r29, 0x3e	; 62
    18e0:	2c 97       	sbiw	r28, 0x0c	; 12
    18e2:	0f b6       	in	r0, 0x3f	; 63
    18e4:	f8 94       	cli
    18e6:	de bf       	out	0x3e, r29	; 62
    18e8:	0f be       	out	0x3f, r0	; 63
    18ea:	cd bf       	out	0x3d, r28	; 61
    18ec:	7c 01       	movw	r14, r24
    18ee:	6b 01       	movw	r12, r22
    18f0:	8a 01       	movw	r16, r20
    18f2:	fc 01       	movw	r30, r24
    18f4:	17 82       	std	Z+7, r1	; 0x07
    18f6:	16 82       	std	Z+6, r1	; 0x06
    18f8:	83 81       	ldd	r24, Z+3	; 0x03
    18fa:	81 ff       	sbrs	r24, 1
    18fc:	b0 c1       	rjmp	.+864    	; 0x1c5e <vfprintf+0x3a6>
    18fe:	ce 01       	movw	r24, r28
    1900:	01 96       	adiw	r24, 0x01	; 1
    1902:	4c 01       	movw	r8, r24
    1904:	f7 01       	movw	r30, r14
    1906:	93 81       	ldd	r25, Z+3	; 0x03
    1908:	f6 01       	movw	r30, r12
    190a:	93 fd       	sbrc	r25, 3
    190c:	85 91       	lpm	r24, Z+
    190e:	93 ff       	sbrs	r25, 3
    1910:	81 91       	ld	r24, Z+
    1912:	6f 01       	movw	r12, r30
    1914:	88 23       	and	r24, r24
    1916:	09 f4       	brne	.+2      	; 0x191a <vfprintf+0x62>
    1918:	9e c1       	rjmp	.+828    	; 0x1c56 <vfprintf+0x39e>
    191a:	85 32       	cpi	r24, 0x25	; 37
    191c:	39 f4       	brne	.+14     	; 0x192c <vfprintf+0x74>
    191e:	93 fd       	sbrc	r25, 3
    1920:	85 91       	lpm	r24, Z+
    1922:	93 ff       	sbrs	r25, 3
    1924:	81 91       	ld	r24, Z+
    1926:	6f 01       	movw	r12, r30
    1928:	85 32       	cpi	r24, 0x25	; 37
    192a:	21 f4       	brne	.+8      	; 0x1934 <vfprintf+0x7c>
    192c:	b7 01       	movw	r22, r14
    192e:	90 e0       	ldi	r25, 0x00	; 0
    1930:	74 d6       	rcall	.+3304   	; 0x261a <fputc>
    1932:	e8 cf       	rjmp	.-48     	; 0x1904 <vfprintf+0x4c>
    1934:	51 2c       	mov	r5, r1
    1936:	31 2c       	mov	r3, r1
    1938:	20 e0       	ldi	r18, 0x00	; 0
    193a:	20 32       	cpi	r18, 0x20	; 32
    193c:	a0 f4       	brcc	.+40     	; 0x1966 <vfprintf+0xae>
    193e:	8b 32       	cpi	r24, 0x2B	; 43
    1940:	69 f0       	breq	.+26     	; 0x195c <vfprintf+0xa4>
    1942:	30 f4       	brcc	.+12     	; 0x1950 <vfprintf+0x98>
    1944:	80 32       	cpi	r24, 0x20	; 32
    1946:	59 f0       	breq	.+22     	; 0x195e <vfprintf+0xa6>
    1948:	83 32       	cpi	r24, 0x23	; 35
    194a:	69 f4       	brne	.+26     	; 0x1966 <vfprintf+0xae>
    194c:	20 61       	ori	r18, 0x10	; 16
    194e:	2c c0       	rjmp	.+88     	; 0x19a8 <vfprintf+0xf0>
    1950:	8d 32       	cpi	r24, 0x2D	; 45
    1952:	39 f0       	breq	.+14     	; 0x1962 <vfprintf+0xaa>
    1954:	80 33       	cpi	r24, 0x30	; 48
    1956:	39 f4       	brne	.+14     	; 0x1966 <vfprintf+0xae>
    1958:	21 60       	ori	r18, 0x01	; 1
    195a:	26 c0       	rjmp	.+76     	; 0x19a8 <vfprintf+0xf0>
    195c:	22 60       	ori	r18, 0x02	; 2
    195e:	24 60       	ori	r18, 0x04	; 4
    1960:	23 c0       	rjmp	.+70     	; 0x19a8 <vfprintf+0xf0>
    1962:	28 60       	ori	r18, 0x08	; 8
    1964:	21 c0       	rjmp	.+66     	; 0x19a8 <vfprintf+0xf0>
    1966:	27 fd       	sbrc	r18, 7
    1968:	27 c0       	rjmp	.+78     	; 0x19b8 <vfprintf+0x100>
    196a:	30 ed       	ldi	r19, 0xD0	; 208
    196c:	38 0f       	add	r19, r24
    196e:	3a 30       	cpi	r19, 0x0A	; 10
    1970:	78 f4       	brcc	.+30     	; 0x1990 <vfprintf+0xd8>
    1972:	26 ff       	sbrs	r18, 6
    1974:	06 c0       	rjmp	.+12     	; 0x1982 <vfprintf+0xca>
    1976:	fa e0       	ldi	r31, 0x0A	; 10
    1978:	5f 9e       	mul	r5, r31
    197a:	30 0d       	add	r19, r0
    197c:	11 24       	eor	r1, r1
    197e:	53 2e       	mov	r5, r19
    1980:	13 c0       	rjmp	.+38     	; 0x19a8 <vfprintf+0xf0>
    1982:	8a e0       	ldi	r24, 0x0A	; 10
    1984:	38 9e       	mul	r3, r24
    1986:	30 0d       	add	r19, r0
    1988:	11 24       	eor	r1, r1
    198a:	33 2e       	mov	r3, r19
    198c:	20 62       	ori	r18, 0x20	; 32
    198e:	0c c0       	rjmp	.+24     	; 0x19a8 <vfprintf+0xf0>
    1990:	8e 32       	cpi	r24, 0x2E	; 46
    1992:	21 f4       	brne	.+8      	; 0x199c <vfprintf+0xe4>
    1994:	26 fd       	sbrc	r18, 6
    1996:	5f c1       	rjmp	.+702    	; 0x1c56 <vfprintf+0x39e>
    1998:	20 64       	ori	r18, 0x40	; 64
    199a:	06 c0       	rjmp	.+12     	; 0x19a8 <vfprintf+0xf0>
    199c:	8c 36       	cpi	r24, 0x6C	; 108
    199e:	11 f4       	brne	.+4      	; 0x19a4 <vfprintf+0xec>
    19a0:	20 68       	ori	r18, 0x80	; 128
    19a2:	02 c0       	rjmp	.+4      	; 0x19a8 <vfprintf+0xf0>
    19a4:	88 36       	cpi	r24, 0x68	; 104
    19a6:	41 f4       	brne	.+16     	; 0x19b8 <vfprintf+0x100>
    19a8:	f6 01       	movw	r30, r12
    19aa:	93 fd       	sbrc	r25, 3
    19ac:	85 91       	lpm	r24, Z+
    19ae:	93 ff       	sbrs	r25, 3
    19b0:	81 91       	ld	r24, Z+
    19b2:	6f 01       	movw	r12, r30
    19b4:	81 11       	cpse	r24, r1
    19b6:	c1 cf       	rjmp	.-126    	; 0x193a <vfprintf+0x82>
    19b8:	98 2f       	mov	r25, r24
    19ba:	9f 7d       	andi	r25, 0xDF	; 223
    19bc:	95 54       	subi	r25, 0x45	; 69
    19be:	93 30       	cpi	r25, 0x03	; 3
    19c0:	28 f4       	brcc	.+10     	; 0x19cc <vfprintf+0x114>
    19c2:	0c 5f       	subi	r16, 0xFC	; 252
    19c4:	1f 4f       	sbci	r17, 0xFF	; 255
    19c6:	ff e3       	ldi	r31, 0x3F	; 63
    19c8:	f9 83       	std	Y+1, r31	; 0x01
    19ca:	0d c0       	rjmp	.+26     	; 0x19e6 <vfprintf+0x12e>
    19cc:	83 36       	cpi	r24, 0x63	; 99
    19ce:	31 f0       	breq	.+12     	; 0x19dc <vfprintf+0x124>
    19d0:	83 37       	cpi	r24, 0x73	; 115
    19d2:	71 f0       	breq	.+28     	; 0x19f0 <vfprintf+0x138>
    19d4:	83 35       	cpi	r24, 0x53	; 83
    19d6:	09 f0       	breq	.+2      	; 0x19da <vfprintf+0x122>
    19d8:	57 c0       	rjmp	.+174    	; 0x1a88 <vfprintf+0x1d0>
    19da:	21 c0       	rjmp	.+66     	; 0x1a1e <vfprintf+0x166>
    19dc:	f8 01       	movw	r30, r16
    19de:	80 81       	ld	r24, Z
    19e0:	89 83       	std	Y+1, r24	; 0x01
    19e2:	0e 5f       	subi	r16, 0xFE	; 254
    19e4:	1f 4f       	sbci	r17, 0xFF	; 255
    19e6:	44 24       	eor	r4, r4
    19e8:	43 94       	inc	r4
    19ea:	51 2c       	mov	r5, r1
    19ec:	54 01       	movw	r10, r8
    19ee:	14 c0       	rjmp	.+40     	; 0x1a18 <vfprintf+0x160>
    19f0:	38 01       	movw	r6, r16
    19f2:	f2 e0       	ldi	r31, 0x02	; 2
    19f4:	6f 0e       	add	r6, r31
    19f6:	71 1c       	adc	r7, r1
    19f8:	f8 01       	movw	r30, r16
    19fa:	a0 80       	ld	r10, Z
    19fc:	b1 80       	ldd	r11, Z+1	; 0x01
    19fe:	26 ff       	sbrs	r18, 6
    1a00:	03 c0       	rjmp	.+6      	; 0x1a08 <vfprintf+0x150>
    1a02:	65 2d       	mov	r22, r5
    1a04:	70 e0       	ldi	r23, 0x00	; 0
    1a06:	02 c0       	rjmp	.+4      	; 0x1a0c <vfprintf+0x154>
    1a08:	6f ef       	ldi	r22, 0xFF	; 255
    1a0a:	7f ef       	ldi	r23, 0xFF	; 255
    1a0c:	c5 01       	movw	r24, r10
    1a0e:	2c 87       	std	Y+12, r18	; 0x0c
    1a10:	bb d5       	rcall	.+2934   	; 0x2588 <strnlen>
    1a12:	2c 01       	movw	r4, r24
    1a14:	83 01       	movw	r16, r6
    1a16:	2c 85       	ldd	r18, Y+12	; 0x0c
    1a18:	2f 77       	andi	r18, 0x7F	; 127
    1a1a:	22 2e       	mov	r2, r18
    1a1c:	16 c0       	rjmp	.+44     	; 0x1a4a <vfprintf+0x192>
    1a1e:	38 01       	movw	r6, r16
    1a20:	f2 e0       	ldi	r31, 0x02	; 2
    1a22:	6f 0e       	add	r6, r31
    1a24:	71 1c       	adc	r7, r1
    1a26:	f8 01       	movw	r30, r16
    1a28:	a0 80       	ld	r10, Z
    1a2a:	b1 80       	ldd	r11, Z+1	; 0x01
    1a2c:	26 ff       	sbrs	r18, 6
    1a2e:	03 c0       	rjmp	.+6      	; 0x1a36 <vfprintf+0x17e>
    1a30:	65 2d       	mov	r22, r5
    1a32:	70 e0       	ldi	r23, 0x00	; 0
    1a34:	02 c0       	rjmp	.+4      	; 0x1a3a <vfprintf+0x182>
    1a36:	6f ef       	ldi	r22, 0xFF	; 255
    1a38:	7f ef       	ldi	r23, 0xFF	; 255
    1a3a:	c5 01       	movw	r24, r10
    1a3c:	2c 87       	std	Y+12, r18	; 0x0c
    1a3e:	92 d5       	rcall	.+2852   	; 0x2564 <strnlen_P>
    1a40:	2c 01       	movw	r4, r24
    1a42:	2c 85       	ldd	r18, Y+12	; 0x0c
    1a44:	20 68       	ori	r18, 0x80	; 128
    1a46:	22 2e       	mov	r2, r18
    1a48:	83 01       	movw	r16, r6
    1a4a:	23 fc       	sbrc	r2, 3
    1a4c:	19 c0       	rjmp	.+50     	; 0x1a80 <vfprintf+0x1c8>
    1a4e:	83 2d       	mov	r24, r3
    1a50:	90 e0       	ldi	r25, 0x00	; 0
    1a52:	48 16       	cp	r4, r24
    1a54:	59 06       	cpc	r5, r25
    1a56:	a0 f4       	brcc	.+40     	; 0x1a80 <vfprintf+0x1c8>
    1a58:	b7 01       	movw	r22, r14
    1a5a:	80 e2       	ldi	r24, 0x20	; 32
    1a5c:	90 e0       	ldi	r25, 0x00	; 0
    1a5e:	dd d5       	rcall	.+3002   	; 0x261a <fputc>
    1a60:	3a 94       	dec	r3
    1a62:	f5 cf       	rjmp	.-22     	; 0x1a4e <vfprintf+0x196>
    1a64:	f5 01       	movw	r30, r10
    1a66:	27 fc       	sbrc	r2, 7
    1a68:	85 91       	lpm	r24, Z+
    1a6a:	27 fe       	sbrs	r2, 7
    1a6c:	81 91       	ld	r24, Z+
    1a6e:	5f 01       	movw	r10, r30
    1a70:	b7 01       	movw	r22, r14
    1a72:	90 e0       	ldi	r25, 0x00	; 0
    1a74:	d2 d5       	rcall	.+2980   	; 0x261a <fputc>
    1a76:	31 10       	cpse	r3, r1
    1a78:	3a 94       	dec	r3
    1a7a:	f1 e0       	ldi	r31, 0x01	; 1
    1a7c:	4f 1a       	sub	r4, r31
    1a7e:	51 08       	sbc	r5, r1
    1a80:	41 14       	cp	r4, r1
    1a82:	51 04       	cpc	r5, r1
    1a84:	79 f7       	brne	.-34     	; 0x1a64 <vfprintf+0x1ac>
    1a86:	de c0       	rjmp	.+444    	; 0x1c44 <vfprintf+0x38c>
    1a88:	84 36       	cpi	r24, 0x64	; 100
    1a8a:	11 f0       	breq	.+4      	; 0x1a90 <vfprintf+0x1d8>
    1a8c:	89 36       	cpi	r24, 0x69	; 105
    1a8e:	31 f5       	brne	.+76     	; 0x1adc <vfprintf+0x224>
    1a90:	f8 01       	movw	r30, r16
    1a92:	27 ff       	sbrs	r18, 7
    1a94:	07 c0       	rjmp	.+14     	; 0x1aa4 <vfprintf+0x1ec>
    1a96:	60 81       	ld	r22, Z
    1a98:	71 81       	ldd	r23, Z+1	; 0x01
    1a9a:	82 81       	ldd	r24, Z+2	; 0x02
    1a9c:	93 81       	ldd	r25, Z+3	; 0x03
    1a9e:	0c 5f       	subi	r16, 0xFC	; 252
    1aa0:	1f 4f       	sbci	r17, 0xFF	; 255
    1aa2:	08 c0       	rjmp	.+16     	; 0x1ab4 <vfprintf+0x1fc>
    1aa4:	60 81       	ld	r22, Z
    1aa6:	71 81       	ldd	r23, Z+1	; 0x01
    1aa8:	88 27       	eor	r24, r24
    1aaa:	77 fd       	sbrc	r23, 7
    1aac:	80 95       	com	r24
    1aae:	98 2f       	mov	r25, r24
    1ab0:	0e 5f       	subi	r16, 0xFE	; 254
    1ab2:	1f 4f       	sbci	r17, 0xFF	; 255
    1ab4:	2f 76       	andi	r18, 0x6F	; 111
    1ab6:	b2 2e       	mov	r11, r18
    1ab8:	97 ff       	sbrs	r25, 7
    1aba:	09 c0       	rjmp	.+18     	; 0x1ace <vfprintf+0x216>
    1abc:	90 95       	com	r25
    1abe:	80 95       	com	r24
    1ac0:	70 95       	com	r23
    1ac2:	61 95       	neg	r22
    1ac4:	7f 4f       	sbci	r23, 0xFF	; 255
    1ac6:	8f 4f       	sbci	r24, 0xFF	; 255
    1ac8:	9f 4f       	sbci	r25, 0xFF	; 255
    1aca:	20 68       	ori	r18, 0x80	; 128
    1acc:	b2 2e       	mov	r11, r18
    1ace:	2a e0       	ldi	r18, 0x0A	; 10
    1ad0:	30 e0       	ldi	r19, 0x00	; 0
    1ad2:	a4 01       	movw	r20, r8
    1ad4:	ed d5       	rcall	.+3034   	; 0x26b0 <__ultoa_invert>
    1ad6:	a8 2e       	mov	r10, r24
    1ad8:	a8 18       	sub	r10, r8
    1ada:	43 c0       	rjmp	.+134    	; 0x1b62 <vfprintf+0x2aa>
    1adc:	85 37       	cpi	r24, 0x75	; 117
    1ade:	29 f4       	brne	.+10     	; 0x1aea <vfprintf+0x232>
    1ae0:	2f 7e       	andi	r18, 0xEF	; 239
    1ae2:	b2 2e       	mov	r11, r18
    1ae4:	2a e0       	ldi	r18, 0x0A	; 10
    1ae6:	30 e0       	ldi	r19, 0x00	; 0
    1ae8:	25 c0       	rjmp	.+74     	; 0x1b34 <vfprintf+0x27c>
    1aea:	f2 2f       	mov	r31, r18
    1aec:	f9 7f       	andi	r31, 0xF9	; 249
    1aee:	bf 2e       	mov	r11, r31
    1af0:	8f 36       	cpi	r24, 0x6F	; 111
    1af2:	c1 f0       	breq	.+48     	; 0x1b24 <vfprintf+0x26c>
    1af4:	18 f4       	brcc	.+6      	; 0x1afc <vfprintf+0x244>
    1af6:	88 35       	cpi	r24, 0x58	; 88
    1af8:	79 f0       	breq	.+30     	; 0x1b18 <vfprintf+0x260>
    1afa:	ad c0       	rjmp	.+346    	; 0x1c56 <vfprintf+0x39e>
    1afc:	80 37       	cpi	r24, 0x70	; 112
    1afe:	19 f0       	breq	.+6      	; 0x1b06 <vfprintf+0x24e>
    1b00:	88 37       	cpi	r24, 0x78	; 120
    1b02:	21 f0       	breq	.+8      	; 0x1b0c <vfprintf+0x254>
    1b04:	a8 c0       	rjmp	.+336    	; 0x1c56 <vfprintf+0x39e>
    1b06:	2f 2f       	mov	r18, r31
    1b08:	20 61       	ori	r18, 0x10	; 16
    1b0a:	b2 2e       	mov	r11, r18
    1b0c:	b4 fe       	sbrs	r11, 4
    1b0e:	0d c0       	rjmp	.+26     	; 0x1b2a <vfprintf+0x272>
    1b10:	8b 2d       	mov	r24, r11
    1b12:	84 60       	ori	r24, 0x04	; 4
    1b14:	b8 2e       	mov	r11, r24
    1b16:	09 c0       	rjmp	.+18     	; 0x1b2a <vfprintf+0x272>
    1b18:	24 ff       	sbrs	r18, 4
    1b1a:	0a c0       	rjmp	.+20     	; 0x1b30 <vfprintf+0x278>
    1b1c:	9f 2f       	mov	r25, r31
    1b1e:	96 60       	ori	r25, 0x06	; 6
    1b20:	b9 2e       	mov	r11, r25
    1b22:	06 c0       	rjmp	.+12     	; 0x1b30 <vfprintf+0x278>
    1b24:	28 e0       	ldi	r18, 0x08	; 8
    1b26:	30 e0       	ldi	r19, 0x00	; 0
    1b28:	05 c0       	rjmp	.+10     	; 0x1b34 <vfprintf+0x27c>
    1b2a:	20 e1       	ldi	r18, 0x10	; 16
    1b2c:	30 e0       	ldi	r19, 0x00	; 0
    1b2e:	02 c0       	rjmp	.+4      	; 0x1b34 <vfprintf+0x27c>
    1b30:	20 e1       	ldi	r18, 0x10	; 16
    1b32:	32 e0       	ldi	r19, 0x02	; 2
    1b34:	f8 01       	movw	r30, r16
    1b36:	b7 fe       	sbrs	r11, 7
    1b38:	07 c0       	rjmp	.+14     	; 0x1b48 <vfprintf+0x290>
    1b3a:	60 81       	ld	r22, Z
    1b3c:	71 81       	ldd	r23, Z+1	; 0x01
    1b3e:	82 81       	ldd	r24, Z+2	; 0x02
    1b40:	93 81       	ldd	r25, Z+3	; 0x03
    1b42:	0c 5f       	subi	r16, 0xFC	; 252
    1b44:	1f 4f       	sbci	r17, 0xFF	; 255
    1b46:	06 c0       	rjmp	.+12     	; 0x1b54 <vfprintf+0x29c>
    1b48:	60 81       	ld	r22, Z
    1b4a:	71 81       	ldd	r23, Z+1	; 0x01
    1b4c:	80 e0       	ldi	r24, 0x00	; 0
    1b4e:	90 e0       	ldi	r25, 0x00	; 0
    1b50:	0e 5f       	subi	r16, 0xFE	; 254
    1b52:	1f 4f       	sbci	r17, 0xFF	; 255
    1b54:	a4 01       	movw	r20, r8
    1b56:	ac d5       	rcall	.+2904   	; 0x26b0 <__ultoa_invert>
    1b58:	a8 2e       	mov	r10, r24
    1b5a:	a8 18       	sub	r10, r8
    1b5c:	fb 2d       	mov	r31, r11
    1b5e:	ff 77       	andi	r31, 0x7F	; 127
    1b60:	bf 2e       	mov	r11, r31
    1b62:	b6 fe       	sbrs	r11, 6
    1b64:	0b c0       	rjmp	.+22     	; 0x1b7c <vfprintf+0x2c4>
    1b66:	2b 2d       	mov	r18, r11
    1b68:	2e 7f       	andi	r18, 0xFE	; 254
    1b6a:	a5 14       	cp	r10, r5
    1b6c:	50 f4       	brcc	.+20     	; 0x1b82 <vfprintf+0x2ca>
    1b6e:	b4 fe       	sbrs	r11, 4
    1b70:	0a c0       	rjmp	.+20     	; 0x1b86 <vfprintf+0x2ce>
    1b72:	b2 fc       	sbrc	r11, 2
    1b74:	08 c0       	rjmp	.+16     	; 0x1b86 <vfprintf+0x2ce>
    1b76:	2b 2d       	mov	r18, r11
    1b78:	2e 7e       	andi	r18, 0xEE	; 238
    1b7a:	05 c0       	rjmp	.+10     	; 0x1b86 <vfprintf+0x2ce>
    1b7c:	7a 2c       	mov	r7, r10
    1b7e:	2b 2d       	mov	r18, r11
    1b80:	03 c0       	rjmp	.+6      	; 0x1b88 <vfprintf+0x2d0>
    1b82:	7a 2c       	mov	r7, r10
    1b84:	01 c0       	rjmp	.+2      	; 0x1b88 <vfprintf+0x2d0>
    1b86:	75 2c       	mov	r7, r5
    1b88:	24 ff       	sbrs	r18, 4
    1b8a:	0d c0       	rjmp	.+26     	; 0x1ba6 <vfprintf+0x2ee>
    1b8c:	fe 01       	movw	r30, r28
    1b8e:	ea 0d       	add	r30, r10
    1b90:	f1 1d       	adc	r31, r1
    1b92:	80 81       	ld	r24, Z
    1b94:	80 33       	cpi	r24, 0x30	; 48
    1b96:	11 f4       	brne	.+4      	; 0x1b9c <vfprintf+0x2e4>
    1b98:	29 7e       	andi	r18, 0xE9	; 233
    1b9a:	09 c0       	rjmp	.+18     	; 0x1bae <vfprintf+0x2f6>
    1b9c:	22 ff       	sbrs	r18, 2
    1b9e:	06 c0       	rjmp	.+12     	; 0x1bac <vfprintf+0x2f4>
    1ba0:	73 94       	inc	r7
    1ba2:	73 94       	inc	r7
    1ba4:	04 c0       	rjmp	.+8      	; 0x1bae <vfprintf+0x2f6>
    1ba6:	82 2f       	mov	r24, r18
    1ba8:	86 78       	andi	r24, 0x86	; 134
    1baa:	09 f0       	breq	.+2      	; 0x1bae <vfprintf+0x2f6>
    1bac:	73 94       	inc	r7
    1bae:	23 fd       	sbrc	r18, 3
    1bb0:	12 c0       	rjmp	.+36     	; 0x1bd6 <vfprintf+0x31e>
    1bb2:	20 ff       	sbrs	r18, 0
    1bb4:	06 c0       	rjmp	.+12     	; 0x1bc2 <vfprintf+0x30a>
    1bb6:	5a 2c       	mov	r5, r10
    1bb8:	73 14       	cp	r7, r3
    1bba:	18 f4       	brcc	.+6      	; 0x1bc2 <vfprintf+0x30a>
    1bbc:	53 0c       	add	r5, r3
    1bbe:	57 18       	sub	r5, r7
    1bc0:	73 2c       	mov	r7, r3
    1bc2:	73 14       	cp	r7, r3
    1bc4:	60 f4       	brcc	.+24     	; 0x1bde <vfprintf+0x326>
    1bc6:	b7 01       	movw	r22, r14
    1bc8:	80 e2       	ldi	r24, 0x20	; 32
    1bca:	90 e0       	ldi	r25, 0x00	; 0
    1bcc:	2c 87       	std	Y+12, r18	; 0x0c
    1bce:	25 d5       	rcall	.+2634   	; 0x261a <fputc>
    1bd0:	73 94       	inc	r7
    1bd2:	2c 85       	ldd	r18, Y+12	; 0x0c
    1bd4:	f6 cf       	rjmp	.-20     	; 0x1bc2 <vfprintf+0x30a>
    1bd6:	73 14       	cp	r7, r3
    1bd8:	10 f4       	brcc	.+4      	; 0x1bde <vfprintf+0x326>
    1bda:	37 18       	sub	r3, r7
    1bdc:	01 c0       	rjmp	.+2      	; 0x1be0 <vfprintf+0x328>
    1bde:	31 2c       	mov	r3, r1
    1be0:	24 ff       	sbrs	r18, 4
    1be2:	11 c0       	rjmp	.+34     	; 0x1c06 <vfprintf+0x34e>
    1be4:	b7 01       	movw	r22, r14
    1be6:	80 e3       	ldi	r24, 0x30	; 48
    1be8:	90 e0       	ldi	r25, 0x00	; 0
    1bea:	2c 87       	std	Y+12, r18	; 0x0c
    1bec:	16 d5       	rcall	.+2604   	; 0x261a <fputc>
    1bee:	2c 85       	ldd	r18, Y+12	; 0x0c
    1bf0:	22 ff       	sbrs	r18, 2
    1bf2:	16 c0       	rjmp	.+44     	; 0x1c20 <vfprintf+0x368>
    1bf4:	21 ff       	sbrs	r18, 1
    1bf6:	03 c0       	rjmp	.+6      	; 0x1bfe <vfprintf+0x346>
    1bf8:	88 e5       	ldi	r24, 0x58	; 88
    1bfa:	90 e0       	ldi	r25, 0x00	; 0
    1bfc:	02 c0       	rjmp	.+4      	; 0x1c02 <vfprintf+0x34a>
    1bfe:	88 e7       	ldi	r24, 0x78	; 120
    1c00:	90 e0       	ldi	r25, 0x00	; 0
    1c02:	b7 01       	movw	r22, r14
    1c04:	0c c0       	rjmp	.+24     	; 0x1c1e <vfprintf+0x366>
    1c06:	82 2f       	mov	r24, r18
    1c08:	86 78       	andi	r24, 0x86	; 134
    1c0a:	51 f0       	breq	.+20     	; 0x1c20 <vfprintf+0x368>
    1c0c:	21 fd       	sbrc	r18, 1
    1c0e:	02 c0       	rjmp	.+4      	; 0x1c14 <vfprintf+0x35c>
    1c10:	80 e2       	ldi	r24, 0x20	; 32
    1c12:	01 c0       	rjmp	.+2      	; 0x1c16 <vfprintf+0x35e>
    1c14:	8b e2       	ldi	r24, 0x2B	; 43
    1c16:	27 fd       	sbrc	r18, 7
    1c18:	8d e2       	ldi	r24, 0x2D	; 45
    1c1a:	b7 01       	movw	r22, r14
    1c1c:	90 e0       	ldi	r25, 0x00	; 0
    1c1e:	fd d4       	rcall	.+2554   	; 0x261a <fputc>
    1c20:	a5 14       	cp	r10, r5
    1c22:	30 f4       	brcc	.+12     	; 0x1c30 <vfprintf+0x378>
    1c24:	b7 01       	movw	r22, r14
    1c26:	80 e3       	ldi	r24, 0x30	; 48
    1c28:	90 e0       	ldi	r25, 0x00	; 0
    1c2a:	f7 d4       	rcall	.+2542   	; 0x261a <fputc>
    1c2c:	5a 94       	dec	r5
    1c2e:	f8 cf       	rjmp	.-16     	; 0x1c20 <vfprintf+0x368>
    1c30:	aa 94       	dec	r10
    1c32:	f4 01       	movw	r30, r8
    1c34:	ea 0d       	add	r30, r10
    1c36:	f1 1d       	adc	r31, r1
    1c38:	80 81       	ld	r24, Z
    1c3a:	b7 01       	movw	r22, r14
    1c3c:	90 e0       	ldi	r25, 0x00	; 0
    1c3e:	ed d4       	rcall	.+2522   	; 0x261a <fputc>
    1c40:	a1 10       	cpse	r10, r1
    1c42:	f6 cf       	rjmp	.-20     	; 0x1c30 <vfprintf+0x378>
    1c44:	33 20       	and	r3, r3
    1c46:	09 f4       	brne	.+2      	; 0x1c4a <vfprintf+0x392>
    1c48:	5d ce       	rjmp	.-838    	; 0x1904 <vfprintf+0x4c>
    1c4a:	b7 01       	movw	r22, r14
    1c4c:	80 e2       	ldi	r24, 0x20	; 32
    1c4e:	90 e0       	ldi	r25, 0x00	; 0
    1c50:	e4 d4       	rcall	.+2504   	; 0x261a <fputc>
    1c52:	3a 94       	dec	r3
    1c54:	f7 cf       	rjmp	.-18     	; 0x1c44 <vfprintf+0x38c>
    1c56:	f7 01       	movw	r30, r14
    1c58:	86 81       	ldd	r24, Z+6	; 0x06
    1c5a:	97 81       	ldd	r25, Z+7	; 0x07
    1c5c:	02 c0       	rjmp	.+4      	; 0x1c62 <vfprintf+0x3aa>
    1c5e:	8f ef       	ldi	r24, 0xFF	; 255
    1c60:	9f ef       	ldi	r25, 0xFF	; 255
    1c62:	2c 96       	adiw	r28, 0x0c	; 12
    1c64:	0f b6       	in	r0, 0x3f	; 63
    1c66:	f8 94       	cli
    1c68:	de bf       	out	0x3e, r29	; 62
    1c6a:	0f be       	out	0x3f, r0	; 63
    1c6c:	cd bf       	out	0x3d, r28	; 61
    1c6e:	df 91       	pop	r29
    1c70:	cf 91       	pop	r28
    1c72:	1f 91       	pop	r17
    1c74:	0f 91       	pop	r16
    1c76:	ff 90       	pop	r15
    1c78:	ef 90       	pop	r14
    1c7a:	df 90       	pop	r13
    1c7c:	cf 90       	pop	r12
    1c7e:	bf 90       	pop	r11
    1c80:	af 90       	pop	r10
    1c82:	9f 90       	pop	r9
    1c84:	8f 90       	pop	r8
    1c86:	7f 90       	pop	r7
    1c88:	6f 90       	pop	r6
    1c8a:	5f 90       	pop	r5
    1c8c:	4f 90       	pop	r4
    1c8e:	3f 90       	pop	r3
    1c90:	2f 90       	pop	r2
    1c92:	08 95       	ret

00001c94 <putval>:
    1c94:	20 fd       	sbrc	r18, 0
    1c96:	09 c0       	rjmp	.+18     	; 0x1caa <putval+0x16>
    1c98:	fc 01       	movw	r30, r24
    1c9a:	23 fd       	sbrc	r18, 3
    1c9c:	05 c0       	rjmp	.+10     	; 0x1ca8 <putval+0x14>
    1c9e:	22 ff       	sbrs	r18, 2
    1ca0:	02 c0       	rjmp	.+4      	; 0x1ca6 <putval+0x12>
    1ca2:	73 83       	std	Z+3, r23	; 0x03
    1ca4:	62 83       	std	Z+2, r22	; 0x02
    1ca6:	51 83       	std	Z+1, r21	; 0x01
    1ca8:	40 83       	st	Z, r20
    1caa:	08 95       	ret

00001cac <mulacc>:
    1cac:	44 fd       	sbrc	r20, 4
    1cae:	10 c0       	rjmp	.+32     	; 0x1cd0 <mulacc+0x24>
    1cb0:	46 fd       	sbrc	r20, 6
    1cb2:	10 c0       	rjmp	.+32     	; 0x1cd4 <mulacc+0x28>
    1cb4:	db 01       	movw	r26, r22
    1cb6:	fc 01       	movw	r30, r24
    1cb8:	aa 0f       	add	r26, r26
    1cba:	bb 1f       	adc	r27, r27
    1cbc:	ee 1f       	adc	r30, r30
    1cbe:	ff 1f       	adc	r31, r31
    1cc0:	10 94       	com	r1
    1cc2:	d1 f7       	brne	.-12     	; 0x1cb8 <mulacc+0xc>
    1cc4:	6a 0f       	add	r22, r26
    1cc6:	7b 1f       	adc	r23, r27
    1cc8:	8e 1f       	adc	r24, r30
    1cca:	9f 1f       	adc	r25, r31
    1ccc:	31 e0       	ldi	r19, 0x01	; 1
    1cce:	03 c0       	rjmp	.+6      	; 0x1cd6 <mulacc+0x2a>
    1cd0:	33 e0       	ldi	r19, 0x03	; 3
    1cd2:	01 c0       	rjmp	.+2      	; 0x1cd6 <mulacc+0x2a>
    1cd4:	34 e0       	ldi	r19, 0x04	; 4
    1cd6:	66 0f       	add	r22, r22
    1cd8:	77 1f       	adc	r23, r23
    1cda:	88 1f       	adc	r24, r24
    1cdc:	99 1f       	adc	r25, r25
    1cde:	31 50       	subi	r19, 0x01	; 1
    1ce0:	d1 f7       	brne	.-12     	; 0x1cd6 <mulacc+0x2a>
    1ce2:	62 0f       	add	r22, r18
    1ce4:	71 1d       	adc	r23, r1
    1ce6:	81 1d       	adc	r24, r1
    1ce8:	91 1d       	adc	r25, r1
    1cea:	08 95       	ret

00001cec <skip_spaces>:
    1cec:	0f 93       	push	r16
    1cee:	1f 93       	push	r17
    1cf0:	cf 93       	push	r28
    1cf2:	df 93       	push	r29
    1cf4:	8c 01       	movw	r16, r24
    1cf6:	c8 01       	movw	r24, r16
    1cf8:	52 d4       	rcall	.+2212   	; 0x259e <fgetc>
    1cfa:	ec 01       	movw	r28, r24
    1cfc:	97 fd       	sbrc	r25, 7
    1cfe:	06 c0       	rjmp	.+12     	; 0x1d0c <skip_spaces+0x20>
    1d00:	06 d4       	rcall	.+2060   	; 0x250e <isspace>
    1d02:	89 2b       	or	r24, r25
    1d04:	c1 f7       	brne	.-16     	; 0x1cf6 <skip_spaces+0xa>
    1d06:	b8 01       	movw	r22, r16
    1d08:	ce 01       	movw	r24, r28
    1d0a:	b9 d4       	rcall	.+2418   	; 0x267e <ungetc>
    1d0c:	ce 01       	movw	r24, r28
    1d0e:	df 91       	pop	r29
    1d10:	cf 91       	pop	r28
    1d12:	1f 91       	pop	r17
    1d14:	0f 91       	pop	r16
    1d16:	08 95       	ret

00001d18 <conv_int>:
    1d18:	8f 92       	push	r8
    1d1a:	9f 92       	push	r9
    1d1c:	af 92       	push	r10
    1d1e:	cf 92       	push	r12
    1d20:	df 92       	push	r13
    1d22:	ef 92       	push	r14
    1d24:	ff 92       	push	r15
    1d26:	0f 93       	push	r16
    1d28:	1f 93       	push	r17
    1d2a:	cf 93       	push	r28
    1d2c:	df 93       	push	r29
    1d2e:	ec 01       	movw	r28, r24
    1d30:	a6 2e       	mov	r10, r22
    1d32:	4a 01       	movw	r8, r20
    1d34:	02 2f       	mov	r16, r18
    1d36:	33 d4       	rcall	.+2150   	; 0x259e <fgetc>
    1d38:	ac 01       	movw	r20, r24
    1d3a:	55 27       	eor	r21, r21
    1d3c:	4b 32       	cpi	r20, 0x2B	; 43
    1d3e:	51 05       	cpc	r21, r1
    1d40:	21 f0       	breq	.+8      	; 0x1d4a <conv_int+0x32>
    1d42:	4d 32       	cpi	r20, 0x2D	; 45
    1d44:	51 05       	cpc	r21, r1
    1d46:	49 f4       	brne	.+18     	; 0x1d5a <conv_int+0x42>
    1d48:	00 68       	ori	r16, 0x80	; 128
    1d4a:	aa 94       	dec	r10
    1d4c:	11 f4       	brne	.+4      	; 0x1d52 <conv_int+0x3a>
    1d4e:	80 e0       	ldi	r24, 0x00	; 0
    1d50:	60 c0       	rjmp	.+192    	; 0x1e12 <conv_int+0xfa>
    1d52:	ce 01       	movw	r24, r28
    1d54:	24 d4       	rcall	.+2120   	; 0x259e <fgetc>
    1d56:	97 fd       	sbrc	r25, 7
    1d58:	fa cf       	rjmp	.-12     	; 0x1d4e <conv_int+0x36>
    1d5a:	10 2f       	mov	r17, r16
    1d5c:	1d 7f       	andi	r17, 0xFD	; 253
    1d5e:	30 2f       	mov	r19, r16
    1d60:	30 73       	andi	r19, 0x30	; 48
    1d62:	f1 f4       	brne	.+60     	; 0x1da0 <conv_int+0x88>
    1d64:	80 33       	cpi	r24, 0x30	; 48
    1d66:	e1 f4       	brne	.+56     	; 0x1da0 <conv_int+0x88>
    1d68:	ff 24       	eor	r15, r15
    1d6a:	fa 94       	dec	r15
    1d6c:	fa 0c       	add	r15, r10
    1d6e:	09 f4       	brne	.+2      	; 0x1d72 <conv_int+0x5a>
    1d70:	3d c0       	rjmp	.+122    	; 0x1dec <conv_int+0xd4>
    1d72:	ce 01       	movw	r24, r28
    1d74:	14 d4       	rcall	.+2088   	; 0x259e <fgetc>
    1d76:	97 fd       	sbrc	r25, 7
    1d78:	39 c0       	rjmp	.+114    	; 0x1dec <conv_int+0xd4>
    1d7a:	38 2f       	mov	r19, r24
    1d7c:	3f 7d       	andi	r19, 0xDF	; 223
    1d7e:	38 35       	cpi	r19, 0x58	; 88
    1d80:	49 f4       	brne	.+18     	; 0x1d94 <conv_int+0x7c>
    1d82:	12 64       	ori	r17, 0x42	; 66
    1d84:	aa 94       	dec	r10
    1d86:	aa 94       	dec	r10
    1d88:	89 f1       	breq	.+98     	; 0x1dec <conv_int+0xd4>
    1d8a:	ce 01       	movw	r24, r28
    1d8c:	08 d4       	rcall	.+2064   	; 0x259e <fgetc>
    1d8e:	97 ff       	sbrs	r25, 7
    1d90:	07 c0       	rjmp	.+14     	; 0x1da0 <conv_int+0x88>
    1d92:	2c c0       	rjmp	.+88     	; 0x1dec <conv_int+0xd4>
    1d94:	06 ff       	sbrs	r16, 6
    1d96:	02 c0       	rjmp	.+4      	; 0x1d9c <conv_int+0x84>
    1d98:	12 60       	ori	r17, 0x02	; 2
    1d9a:	01 c0       	rjmp	.+2      	; 0x1d9e <conv_int+0x86>
    1d9c:	12 61       	ori	r17, 0x12	; 18
    1d9e:	af 2c       	mov	r10, r15
    1da0:	c1 2c       	mov	r12, r1
    1da2:	d1 2c       	mov	r13, r1
    1da4:	76 01       	movw	r14, r12
    1da6:	20 ed       	ldi	r18, 0xD0	; 208
    1da8:	28 0f       	add	r18, r24
    1daa:	28 30       	cpi	r18, 0x08	; 8
    1dac:	78 f0       	brcs	.+30     	; 0x1dcc <conv_int+0xb4>
    1dae:	14 ff       	sbrs	r17, 4
    1db0:	03 c0       	rjmp	.+6      	; 0x1db8 <conv_int+0xa0>
    1db2:	be 01       	movw	r22, r28
    1db4:	64 d4       	rcall	.+2248   	; 0x267e <ungetc>
    1db6:	17 c0       	rjmp	.+46     	; 0x1de6 <conv_int+0xce>
    1db8:	2a 30       	cpi	r18, 0x0A	; 10
    1dba:	40 f0       	brcs	.+16     	; 0x1dcc <conv_int+0xb4>
    1dbc:	16 ff       	sbrs	r17, 6
    1dbe:	f9 cf       	rjmp	.-14     	; 0x1db2 <conv_int+0x9a>
    1dc0:	2f 7d       	andi	r18, 0xDF	; 223
    1dc2:	3f ee       	ldi	r19, 0xEF	; 239
    1dc4:	32 0f       	add	r19, r18
    1dc6:	36 30       	cpi	r19, 0x06	; 6
    1dc8:	a0 f7       	brcc	.-24     	; 0x1db2 <conv_int+0x9a>
    1dca:	27 50       	subi	r18, 0x07	; 7
    1dcc:	41 2f       	mov	r20, r17
    1dce:	c7 01       	movw	r24, r14
    1dd0:	b6 01       	movw	r22, r12
    1dd2:	6c df       	rcall	.-296    	; 0x1cac <mulacc>
    1dd4:	6b 01       	movw	r12, r22
    1dd6:	7c 01       	movw	r14, r24
    1dd8:	12 60       	ori	r17, 0x02	; 2
    1dda:	aa 94       	dec	r10
    1ddc:	51 f0       	breq	.+20     	; 0x1df2 <conv_int+0xda>
    1dde:	ce 01       	movw	r24, r28
    1de0:	de d3       	rcall	.+1980   	; 0x259e <fgetc>
    1de2:	97 ff       	sbrs	r25, 7
    1de4:	e0 cf       	rjmp	.-64     	; 0x1da6 <conv_int+0x8e>
    1de6:	11 fd       	sbrc	r17, 1
    1de8:	04 c0       	rjmp	.+8      	; 0x1df2 <conv_int+0xda>
    1dea:	b1 cf       	rjmp	.-158    	; 0x1d4e <conv_int+0x36>
    1dec:	c1 2c       	mov	r12, r1
    1dee:	d1 2c       	mov	r13, r1
    1df0:	76 01       	movw	r14, r12
    1df2:	17 ff       	sbrs	r17, 7
    1df4:	08 c0       	rjmp	.+16     	; 0x1e06 <conv_int+0xee>
    1df6:	f0 94       	com	r15
    1df8:	e0 94       	com	r14
    1dfa:	d0 94       	com	r13
    1dfc:	c0 94       	com	r12
    1dfe:	c1 1c       	adc	r12, r1
    1e00:	d1 1c       	adc	r13, r1
    1e02:	e1 1c       	adc	r14, r1
    1e04:	f1 1c       	adc	r15, r1
    1e06:	21 2f       	mov	r18, r17
    1e08:	b7 01       	movw	r22, r14
    1e0a:	a6 01       	movw	r20, r12
    1e0c:	c4 01       	movw	r24, r8
    1e0e:	42 df       	rcall	.-380    	; 0x1c94 <putval>
    1e10:	81 e0       	ldi	r24, 0x01	; 1
    1e12:	df 91       	pop	r29
    1e14:	cf 91       	pop	r28
    1e16:	1f 91       	pop	r17
    1e18:	0f 91       	pop	r16
    1e1a:	ff 90       	pop	r15
    1e1c:	ef 90       	pop	r14
    1e1e:	df 90       	pop	r13
    1e20:	cf 90       	pop	r12
    1e22:	af 90       	pop	r10
    1e24:	9f 90       	pop	r9
    1e26:	8f 90       	pop	r8
    1e28:	08 95       	ret

00001e2a <conv_brk>:
    1e2a:	7f 92       	push	r7
    1e2c:	8f 92       	push	r8
    1e2e:	9f 92       	push	r9
    1e30:	af 92       	push	r10
    1e32:	bf 92       	push	r11
    1e34:	cf 92       	push	r12
    1e36:	df 92       	push	r13
    1e38:	ef 92       	push	r14
    1e3a:	ff 92       	push	r15
    1e3c:	0f 93       	push	r16
    1e3e:	1f 93       	push	r17
    1e40:	cf 93       	push	r28
    1e42:	df 93       	push	r29
    1e44:	cd b7       	in	r28, 0x3d	; 61
    1e46:	de b7       	in	r29, 0x3e	; 62
    1e48:	a1 97       	sbiw	r28, 0x21	; 33
    1e4a:	0f b6       	in	r0, 0x3f	; 63
    1e4c:	f8 94       	cli
    1e4e:	de bf       	out	0x3e, r29	; 62
    1e50:	0f be       	out	0x3f, r0	; 63
    1e52:	cd bf       	out	0x3d, r28	; 61
    1e54:	5c 01       	movw	r10, r24
    1e56:	7a 01       	movw	r14, r20
    1e58:	8e 01       	movw	r16, r28
    1e5a:	0f 5f       	subi	r16, 0xFF	; 255
    1e5c:	1f 4f       	sbci	r17, 0xFF	; 255
    1e5e:	68 01       	movw	r12, r16
    1e60:	80 e2       	ldi	r24, 0x20	; 32
    1e62:	d8 01       	movw	r26, r16
    1e64:	1d 92       	st	X+, r1
    1e66:	8a 95       	dec	r24
    1e68:	e9 f7       	brne	.-6      	; 0x1e64 <conv_brk+0x3a>
    1e6a:	f5 01       	movw	r30, r10
    1e6c:	73 80       	ldd	r7, Z+3	; 0x03
    1e6e:	40 e0       	ldi	r20, 0x00	; 0
    1e70:	50 e0       	ldi	r21, 0x00	; 0
    1e72:	81 2c       	mov	r8, r1
    1e74:	b0 e0       	ldi	r27, 0x00	; 0
    1e76:	91 2c       	mov	r9, r1
    1e78:	81 e0       	ldi	r24, 0x01	; 1
    1e7a:	90 e0       	ldi	r25, 0x00	; 0
    1e7c:	f9 01       	movw	r30, r18
    1e7e:	73 fc       	sbrc	r7, 3
    1e80:	a5 91       	lpm	r26, Z+
    1e82:	73 fe       	sbrs	r7, 3
    1e84:	a1 91       	ld	r26, Z+
    1e86:	8f 01       	movw	r16, r30
    1e88:	7a 2f       	mov	r23, r26
    1e8a:	9f 01       	movw	r18, r30
    1e8c:	a1 11       	cpse	r26, r1
    1e8e:	03 c0       	rjmp	.+6      	; 0x1e96 <conv_brk+0x6c>
    1e90:	80 e0       	ldi	r24, 0x00	; 0
    1e92:	90 e0       	ldi	r25, 0x00	; 0
    1e94:	7b c0       	rjmp	.+246    	; 0x1f8c <conv_brk+0x162>
    1e96:	ae 35       	cpi	r26, 0x5E	; 94
    1e98:	19 f4       	brne	.+6      	; 0x1ea0 <conv_brk+0x76>
    1e9a:	41 15       	cp	r20, r1
    1e9c:	51 05       	cpc	r21, r1
    1e9e:	59 f1       	breq	.+86     	; 0x1ef6 <conv_brk+0xcc>
    1ea0:	e9 2d       	mov	r30, r9
    1ea2:	f0 e0       	ldi	r31, 0x00	; 0
    1ea4:	e4 17       	cp	r30, r20
    1ea6:	f5 07       	cpc	r31, r21
    1ea8:	3c f4       	brge	.+14     	; 0x1eb8 <conv_brk+0x8e>
    1eaa:	ad 35       	cpi	r26, 0x5D	; 93
    1eac:	69 f1       	breq	.+90     	; 0x1f08 <conv_brk+0xde>
    1eae:	ad 32       	cpi	r26, 0x2D	; 45
    1eb0:	19 f4       	brne	.+6      	; 0x1eb8 <conv_brk+0x8e>
    1eb2:	bb 23       	and	r27, r27
    1eb4:	19 f1       	breq	.+70     	; 0x1efc <conv_brk+0xd2>
    1eb6:	03 c0       	rjmp	.+6      	; 0x1ebe <conv_brk+0x94>
    1eb8:	b1 11       	cpse	r27, r1
    1eba:	01 c0       	rjmp	.+2      	; 0x1ebe <conv_brk+0x94>
    1ebc:	8a 2e       	mov	r8, r26
    1ebe:	e7 2f       	mov	r30, r23
    1ec0:	e6 95       	lsr	r30
    1ec2:	e6 95       	lsr	r30
    1ec4:	e6 95       	lsr	r30
    1ec6:	86 01       	movw	r16, r12
    1ec8:	0e 0f       	add	r16, r30
    1eca:	11 1d       	adc	r17, r1
    1ecc:	f8 01       	movw	r30, r16
    1ece:	a7 2f       	mov	r26, r23
    1ed0:	a7 70       	andi	r26, 0x07	; 7
    1ed2:	8c 01       	movw	r16, r24
    1ed4:	02 c0       	rjmp	.+4      	; 0x1eda <conv_brk+0xb0>
    1ed6:	00 0f       	add	r16, r16
    1ed8:	11 1f       	adc	r17, r17
    1eda:	aa 95       	dec	r26
    1edc:	e2 f7       	brpl	.-8      	; 0x1ed6 <conv_brk+0xac>
    1ede:	d8 01       	movw	r26, r16
    1ee0:	b0 81       	ld	r27, Z
    1ee2:	ba 2b       	or	r27, r26
    1ee4:	b0 83       	st	Z, r27
    1ee6:	78 15       	cp	r23, r8
    1ee8:	59 f0       	breq	.+22     	; 0x1f00 <conv_brk+0xd6>
    1eea:	78 15       	cp	r23, r8
    1eec:	10 f4       	brcc	.+4      	; 0x1ef2 <conv_brk+0xc8>
    1eee:	7f 5f       	subi	r23, 0xFF	; 255
    1ef0:	e6 cf       	rjmp	.-52     	; 0x1ebe <conv_brk+0x94>
    1ef2:	71 50       	subi	r23, 0x01	; 1
    1ef4:	e4 cf       	rjmp	.-56     	; 0x1ebe <conv_brk+0x94>
    1ef6:	99 24       	eor	r9, r9
    1ef8:	93 94       	inc	r9
    1efa:	03 c0       	rjmp	.+6      	; 0x1f02 <conv_brk+0xd8>
    1efc:	b1 e0       	ldi	r27, 0x01	; 1
    1efe:	01 c0       	rjmp	.+2      	; 0x1f02 <conv_brk+0xd8>
    1f00:	b0 e0       	ldi	r27, 0x00	; 0
    1f02:	4f 5f       	subi	r20, 0xFF	; 255
    1f04:	5f 4f       	sbci	r21, 0xFF	; 255
    1f06:	ba cf       	rjmp	.-140    	; 0x1e7c <conv_brk+0x52>
    1f08:	bb 23       	and	r27, r27
    1f0a:	19 f0       	breq	.+6      	; 0x1f12 <conv_brk+0xe8>
    1f0c:	8e 81       	ldd	r24, Y+6	; 0x06
    1f0e:	80 62       	ori	r24, 0x20	; 32
    1f10:	8e 83       	std	Y+6, r24	; 0x06
    1f12:	91 10       	cpse	r9, r1
    1f14:	03 c0       	rjmp	.+6      	; 0x1f1c <conv_brk+0xf2>
    1f16:	99 24       	eor	r9, r9
    1f18:	93 94       	inc	r9
    1f1a:	15 c0       	rjmp	.+42     	; 0x1f46 <conv_brk+0x11c>
    1f1c:	f6 01       	movw	r30, r12
    1f1e:	ce 01       	movw	r24, r28
    1f20:	81 96       	adiw	r24, 0x21	; 33
    1f22:	20 81       	ld	r18, Z
    1f24:	20 95       	com	r18
    1f26:	21 93       	st	Z+, r18
    1f28:	e8 17       	cp	r30, r24
    1f2a:	f9 07       	cpc	r31, r25
    1f2c:	d1 f7       	brne	.-12     	; 0x1f22 <conv_brk+0xf8>
    1f2e:	f3 cf       	rjmp	.-26     	; 0x1f16 <conv_brk+0xec>
    1f30:	e1 14       	cp	r14, r1
    1f32:	f1 04       	cpc	r15, r1
    1f34:	29 f0       	breq	.+10     	; 0x1f40 <conv_brk+0x116>
    1f36:	d7 01       	movw	r26, r14
    1f38:	8c 93       	st	X, r24
    1f3a:	f7 01       	movw	r30, r14
    1f3c:	31 96       	adiw	r30, 0x01	; 1
    1f3e:	7f 01       	movw	r14, r30
    1f40:	61 50       	subi	r22, 0x01	; 1
    1f42:	f1 f0       	breq	.+60     	; 0x1f80 <conv_brk+0x156>
    1f44:	91 2c       	mov	r9, r1
    1f46:	c5 01       	movw	r24, r10
    1f48:	69 a3       	std	Y+33, r22	; 0x21
    1f4a:	29 d3       	rcall	.+1618   	; 0x259e <fgetc>
    1f4c:	69 a1       	ldd	r22, Y+33	; 0x21
    1f4e:	97 fd       	sbrc	r25, 7
    1f50:	15 c0       	rjmp	.+42     	; 0x1f7c <conv_brk+0x152>
    1f52:	28 2f       	mov	r18, r24
    1f54:	26 95       	lsr	r18
    1f56:	26 95       	lsr	r18
    1f58:	26 95       	lsr	r18
    1f5a:	f6 01       	movw	r30, r12
    1f5c:	e2 0f       	add	r30, r18
    1f5e:	f1 1d       	adc	r31, r1
    1f60:	20 81       	ld	r18, Z
    1f62:	30 e0       	ldi	r19, 0x00	; 0
    1f64:	ac 01       	movw	r20, r24
    1f66:	47 70       	andi	r20, 0x07	; 7
    1f68:	55 27       	eor	r21, r21
    1f6a:	02 c0       	rjmp	.+4      	; 0x1f70 <conv_brk+0x146>
    1f6c:	35 95       	asr	r19
    1f6e:	27 95       	ror	r18
    1f70:	4a 95       	dec	r20
    1f72:	e2 f7       	brpl	.-8      	; 0x1f6c <conv_brk+0x142>
    1f74:	20 fd       	sbrc	r18, 0
    1f76:	dc cf       	rjmp	.-72     	; 0x1f30 <conv_brk+0x106>
    1f78:	b5 01       	movw	r22, r10
    1f7a:	81 d3       	rcall	.+1794   	; 0x267e <ungetc>
    1f7c:	91 10       	cpse	r9, r1
    1f7e:	88 cf       	rjmp	.-240    	; 0x1e90 <conv_brk+0x66>
    1f80:	e1 14       	cp	r14, r1
    1f82:	f1 04       	cpc	r15, r1
    1f84:	11 f0       	breq	.+4      	; 0x1f8a <conv_brk+0x160>
    1f86:	d7 01       	movw	r26, r14
    1f88:	1c 92       	st	X, r1
    1f8a:	c8 01       	movw	r24, r16
    1f8c:	a1 96       	adiw	r28, 0x21	; 33
    1f8e:	0f b6       	in	r0, 0x3f	; 63
    1f90:	f8 94       	cli
    1f92:	de bf       	out	0x3e, r29	; 62
    1f94:	0f be       	out	0x3f, r0	; 63
    1f96:	cd bf       	out	0x3d, r28	; 61
    1f98:	df 91       	pop	r29
    1f9a:	cf 91       	pop	r28
    1f9c:	1f 91       	pop	r17
    1f9e:	0f 91       	pop	r16
    1fa0:	ff 90       	pop	r15
    1fa2:	ef 90       	pop	r14
    1fa4:	df 90       	pop	r13
    1fa6:	cf 90       	pop	r12
    1fa8:	bf 90       	pop	r11
    1faa:	af 90       	pop	r10
    1fac:	9f 90       	pop	r9
    1fae:	8f 90       	pop	r8
    1fb0:	7f 90       	pop	r7
    1fb2:	08 95       	ret

00001fb4 <vfscanf>:
    1fb4:	4f 92       	push	r4
    1fb6:	5f 92       	push	r5
    1fb8:	7f 92       	push	r7
    1fba:	8f 92       	push	r8
    1fbc:	9f 92       	push	r9
    1fbe:	af 92       	push	r10
    1fc0:	bf 92       	push	r11
    1fc2:	cf 92       	push	r12
    1fc4:	df 92       	push	r13
    1fc6:	ef 92       	push	r14
    1fc8:	ff 92       	push	r15
    1fca:	0f 93       	push	r16
    1fcc:	1f 93       	push	r17
    1fce:	cf 93       	push	r28
    1fd0:	df 93       	push	r29
    1fd2:	1f 92       	push	r1
    1fd4:	cd b7       	in	r28, 0x3d	; 61
    1fd6:	de b7       	in	r29, 0x3e	; 62
    1fd8:	8c 01       	movw	r16, r24
    1fda:	2b 01       	movw	r4, r22
    1fdc:	7a 01       	movw	r14, r20
    1fde:	fc 01       	movw	r30, r24
    1fe0:	17 82       	std	Z+7, r1	; 0x07
    1fe2:	16 82       	std	Z+6, r1	; 0x06
    1fe4:	a1 2c       	mov	r10, r1
    1fe6:	f8 01       	movw	r30, r16
    1fe8:	d3 80       	ldd	r13, Z+3	; 0x03
    1fea:	f2 01       	movw	r30, r4
    1fec:	d3 fc       	sbrc	r13, 3
    1fee:	85 91       	lpm	r24, Z+
    1ff0:	d3 fe       	sbrs	r13, 3
    1ff2:	81 91       	ld	r24, Z+
    1ff4:	38 2f       	mov	r19, r24
    1ff6:	2f 01       	movw	r4, r30
    1ff8:	88 23       	and	r24, r24
    1ffa:	09 f4       	brne	.+2      	; 0x1ffe <vfscanf+0x4a>
    1ffc:	ee c0       	rjmp	.+476    	; 0x21da <vfscanf+0x226>
    1ffe:	90 e0       	ldi	r25, 0x00	; 0
    2000:	39 83       	std	Y+1, r19	; 0x01
    2002:	85 d2       	rcall	.+1290   	; 0x250e <isspace>
    2004:	39 81       	ldd	r19, Y+1	; 0x01
    2006:	89 2b       	or	r24, r25
    2008:	19 f0       	breq	.+6      	; 0x2010 <vfscanf+0x5c>
    200a:	c8 01       	movw	r24, r16
    200c:	6f de       	rcall	.-802    	; 0x1cec <skip_spaces>
    200e:	eb cf       	rjmp	.-42     	; 0x1fe6 <vfscanf+0x32>
    2010:	35 32       	cpi	r19, 0x25	; 37
    2012:	41 f4       	brne	.+16     	; 0x2024 <vfscanf+0x70>
    2014:	f2 01       	movw	r30, r4
    2016:	d3 fc       	sbrc	r13, 3
    2018:	35 91       	lpm	r19, Z+
    201a:	d3 fe       	sbrs	r13, 3
    201c:	31 91       	ld	r19, Z+
    201e:	2f 01       	movw	r4, r30
    2020:	35 32       	cpi	r19, 0x25	; 37
    2022:	59 f4       	brne	.+22     	; 0x203a <vfscanf+0x86>
    2024:	c8 01       	movw	r24, r16
    2026:	39 83       	std	Y+1, r19	; 0x01
    2028:	ba d2       	rcall	.+1396   	; 0x259e <fgetc>
    202a:	39 81       	ldd	r19, Y+1	; 0x01
    202c:	97 fd       	sbrc	r25, 7
    202e:	d3 c0       	rjmp	.+422    	; 0x21d6 <vfscanf+0x222>
    2030:	38 17       	cp	r19, r24
    2032:	c9 f2       	breq	.-78     	; 0x1fe6 <vfscanf+0x32>
    2034:	b8 01       	movw	r22, r16
    2036:	23 d3       	rcall	.+1606   	; 0x267e <ungetc>
    2038:	d0 c0       	rjmp	.+416    	; 0x21da <vfscanf+0x226>
    203a:	3a 32       	cpi	r19, 0x2A	; 42
    203c:	41 f4       	brne	.+16     	; 0x204e <vfscanf+0x9a>
    203e:	d3 fc       	sbrc	r13, 3
    2040:	35 91       	lpm	r19, Z+
    2042:	d3 fe       	sbrs	r13, 3
    2044:	31 91       	ld	r19, Z+
    2046:	2f 01       	movw	r4, r30
    2048:	bb 24       	eor	r11, r11
    204a:	b3 94       	inc	r11
    204c:	01 c0       	rjmp	.+2      	; 0x2050 <vfscanf+0x9c>
    204e:	b1 2c       	mov	r11, r1
    2050:	71 2c       	mov	r7, r1
    2052:	20 ed       	ldi	r18, 0xD0	; 208
    2054:	23 0f       	add	r18, r19
    2056:	2a 30       	cpi	r18, 0x0A	; 10
    2058:	88 f4       	brcc	.+34     	; 0x207c <vfscanf+0xc8>
    205a:	fb 2d       	mov	r31, r11
    205c:	f2 60       	ori	r31, 0x02	; 2
    205e:	bf 2e       	mov	r11, r31
    2060:	67 2d       	mov	r22, r7
    2062:	70 e0       	ldi	r23, 0x00	; 0
    2064:	80 e0       	ldi	r24, 0x00	; 0
    2066:	90 e0       	ldi	r25, 0x00	; 0
    2068:	40 e2       	ldi	r20, 0x20	; 32
    206a:	20 de       	rcall	.-960    	; 0x1cac <mulacc>
    206c:	76 2e       	mov	r7, r22
    206e:	f2 01       	movw	r30, r4
    2070:	d3 fc       	sbrc	r13, 3
    2072:	35 91       	lpm	r19, Z+
    2074:	d3 fe       	sbrs	r13, 3
    2076:	31 91       	ld	r19, Z+
    2078:	2f 01       	movw	r4, r30
    207a:	eb cf       	rjmp	.-42     	; 0x2052 <vfscanf+0x9e>
    207c:	b1 fe       	sbrs	r11, 1
    207e:	03 c0       	rjmp	.+6      	; 0x2086 <vfscanf+0xd2>
    2080:	71 10       	cpse	r7, r1
    2082:	03 c0       	rjmp	.+6      	; 0x208a <vfscanf+0xd6>
    2084:	aa c0       	rjmp	.+340    	; 0x21da <vfscanf+0x226>
    2086:	77 24       	eor	r7, r7
    2088:	7a 94       	dec	r7
    208a:	38 36       	cpi	r19, 0x68	; 104
    208c:	19 f0       	breq	.+6      	; 0x2094 <vfscanf+0xe0>
    208e:	3c 36       	cpi	r19, 0x6C	; 108
    2090:	61 f0       	breq	.+24     	; 0x20aa <vfscanf+0xf6>
    2092:	14 c0       	rjmp	.+40     	; 0x20bc <vfscanf+0x108>
    2094:	f2 01       	movw	r30, r4
    2096:	d3 fc       	sbrc	r13, 3
    2098:	35 91       	lpm	r19, Z+
    209a:	d3 fe       	sbrs	r13, 3
    209c:	31 91       	ld	r19, Z+
    209e:	2f 01       	movw	r4, r30
    20a0:	38 36       	cpi	r19, 0x68	; 104
    20a2:	61 f4       	brne	.+24     	; 0x20bc <vfscanf+0x108>
    20a4:	fb 2d       	mov	r31, r11
    20a6:	f8 60       	ori	r31, 0x08	; 8
    20a8:	bf 2e       	mov	r11, r31
    20aa:	8b 2d       	mov	r24, r11
    20ac:	84 60       	ori	r24, 0x04	; 4
    20ae:	b8 2e       	mov	r11, r24
    20b0:	f2 01       	movw	r30, r4
    20b2:	d3 fc       	sbrc	r13, 3
    20b4:	35 91       	lpm	r19, Z+
    20b6:	d3 fe       	sbrs	r13, 3
    20b8:	31 91       	ld	r19, Z+
    20ba:	2f 01       	movw	r4, r30
    20bc:	33 23       	and	r19, r19
    20be:	09 f4       	brne	.+2      	; 0x20c2 <vfscanf+0x10e>
    20c0:	8c c0       	rjmp	.+280    	; 0x21da <vfscanf+0x226>
    20c2:	63 2f       	mov	r22, r19
    20c4:	70 e0       	ldi	r23, 0x00	; 0
    20c6:	86 e8       	ldi	r24, 0x86	; 134
    20c8:	91 e0       	ldi	r25, 0x01	; 1
    20ca:	39 83       	std	Y+1, r19	; 0x01
    20cc:	28 d2       	rcall	.+1104   	; 0x251e <strchr_P>
    20ce:	39 81       	ldd	r19, Y+1	; 0x01
    20d0:	89 2b       	or	r24, r25
    20d2:	09 f4       	brne	.+2      	; 0x20d6 <vfscanf+0x122>
    20d4:	82 c0       	rjmp	.+260    	; 0x21da <vfscanf+0x226>
    20d6:	b0 fc       	sbrc	r11, 0
    20d8:	07 c0       	rjmp	.+14     	; 0x20e8 <vfscanf+0x134>
    20da:	f7 01       	movw	r30, r14
    20dc:	c0 80       	ld	r12, Z
    20de:	d1 80       	ldd	r13, Z+1	; 0x01
    20e0:	c7 01       	movw	r24, r14
    20e2:	02 96       	adiw	r24, 0x02	; 2
    20e4:	7c 01       	movw	r14, r24
    20e6:	02 c0       	rjmp	.+4      	; 0x20ec <vfscanf+0x138>
    20e8:	c1 2c       	mov	r12, r1
    20ea:	d1 2c       	mov	r13, r1
    20ec:	3e 36       	cpi	r19, 0x6E	; 110
    20ee:	49 f4       	brne	.+18     	; 0x2102 <vfscanf+0x14e>
    20f0:	f8 01       	movw	r30, r16
    20f2:	46 81       	ldd	r20, Z+6	; 0x06
    20f4:	57 81       	ldd	r21, Z+7	; 0x07
    20f6:	60 e0       	ldi	r22, 0x00	; 0
    20f8:	70 e0       	ldi	r23, 0x00	; 0
    20fa:	2b 2d       	mov	r18, r11
    20fc:	c6 01       	movw	r24, r12
    20fe:	ca dd       	rcall	.-1132   	; 0x1c94 <putval>
    2100:	72 cf       	rjmp	.-284    	; 0x1fe6 <vfscanf+0x32>
    2102:	33 36       	cpi	r19, 0x63	; 99
    2104:	99 f4       	brne	.+38     	; 0x212c <vfscanf+0x178>
    2106:	b1 fc       	sbrc	r11, 1
    2108:	02 c0       	rjmp	.+4      	; 0x210e <vfscanf+0x15a>
    210a:	77 24       	eor	r7, r7
    210c:	73 94       	inc	r7
    210e:	c8 01       	movw	r24, r16
    2110:	46 d2       	rcall	.+1164   	; 0x259e <fgetc>
    2112:	97 fd       	sbrc	r25, 7
    2114:	60 c0       	rjmp	.+192    	; 0x21d6 <vfscanf+0x222>
    2116:	c1 14       	cp	r12, r1
    2118:	d1 04       	cpc	r13, r1
    211a:	29 f0       	breq	.+10     	; 0x2126 <vfscanf+0x172>
    211c:	f6 01       	movw	r30, r12
    211e:	80 83       	st	Z, r24
    2120:	c6 01       	movw	r24, r12
    2122:	01 96       	adiw	r24, 0x01	; 1
    2124:	6c 01       	movw	r12, r24
    2126:	7a 94       	dec	r7
    2128:	91 f7       	brne	.-28     	; 0x210e <vfscanf+0x15a>
    212a:	51 c0       	rjmp	.+162    	; 0x21ce <vfscanf+0x21a>
    212c:	3b 35       	cpi	r19, 0x5B	; 91
    212e:	51 f4       	brne	.+20     	; 0x2144 <vfscanf+0x190>
    2130:	92 01       	movw	r18, r4
    2132:	a6 01       	movw	r20, r12
    2134:	67 2d       	mov	r22, r7
    2136:	c8 01       	movw	r24, r16
    2138:	78 de       	rcall	.-784    	; 0x1e2a <conv_brk>
    213a:	2c 01       	movw	r4, r24
    213c:	00 97       	sbiw	r24, 0x00	; 0
    213e:	09 f0       	breq	.+2      	; 0x2142 <vfscanf+0x18e>
    2140:	46 c0       	rjmp	.+140    	; 0x21ce <vfscanf+0x21a>
    2142:	40 c0       	rjmp	.+128    	; 0x21c4 <vfscanf+0x210>
    2144:	c8 01       	movw	r24, r16
    2146:	39 83       	std	Y+1, r19	; 0x01
    2148:	d1 dd       	rcall	.-1118   	; 0x1cec <skip_spaces>
    214a:	39 81       	ldd	r19, Y+1	; 0x01
    214c:	97 fd       	sbrc	r25, 7
    214e:	43 c0       	rjmp	.+134    	; 0x21d6 <vfscanf+0x222>
    2150:	3f 36       	cpi	r19, 0x6F	; 111
    2152:	51 f1       	breq	.+84     	; 0x21a8 <vfscanf+0x1f4>
    2154:	28 f4       	brcc	.+10     	; 0x2160 <vfscanf+0x1ac>
    2156:	34 36       	cpi	r19, 0x64	; 100
    2158:	19 f1       	breq	.+70     	; 0x21a0 <vfscanf+0x1ec>
    215a:	39 36       	cpi	r19, 0x69	; 105
    215c:	61 f1       	breq	.+88     	; 0x21b6 <vfscanf+0x202>
    215e:	28 c0       	rjmp	.+80     	; 0x21b0 <vfscanf+0x1fc>
    2160:	33 37       	cpi	r19, 0x73	; 115
    2162:	69 f0       	breq	.+26     	; 0x217e <vfscanf+0x1ca>
    2164:	35 37       	cpi	r19, 0x75	; 117
    2166:	e1 f0       	breq	.+56     	; 0x21a0 <vfscanf+0x1ec>
    2168:	23 c0       	rjmp	.+70     	; 0x21b0 <vfscanf+0x1fc>
    216a:	c1 14       	cp	r12, r1
    216c:	d1 04       	cpc	r13, r1
    216e:	29 f0       	breq	.+10     	; 0x217a <vfscanf+0x1c6>
    2170:	f6 01       	movw	r30, r12
    2172:	80 82       	st	Z, r8
    2174:	c6 01       	movw	r24, r12
    2176:	01 96       	adiw	r24, 0x01	; 1
    2178:	6c 01       	movw	r12, r24
    217a:	7a 94       	dec	r7
    217c:	59 f0       	breq	.+22     	; 0x2194 <vfscanf+0x1e0>
    217e:	c8 01       	movw	r24, r16
    2180:	0e d2       	rcall	.+1052   	; 0x259e <fgetc>
    2182:	4c 01       	movw	r8, r24
    2184:	97 fd       	sbrc	r25, 7
    2186:	06 c0       	rjmp	.+12     	; 0x2194 <vfscanf+0x1e0>
    2188:	c2 d1       	rcall	.+900    	; 0x250e <isspace>
    218a:	89 2b       	or	r24, r25
    218c:	71 f3       	breq	.-36     	; 0x216a <vfscanf+0x1b6>
    218e:	b8 01       	movw	r22, r16
    2190:	c4 01       	movw	r24, r8
    2192:	75 d2       	rcall	.+1258   	; 0x267e <ungetc>
    2194:	c1 14       	cp	r12, r1
    2196:	d1 04       	cpc	r13, r1
    2198:	d1 f0       	breq	.+52     	; 0x21ce <vfscanf+0x21a>
    219a:	f6 01       	movw	r30, r12
    219c:	10 82       	st	Z, r1
    219e:	17 c0       	rjmp	.+46     	; 0x21ce <vfscanf+0x21a>
    21a0:	fb 2d       	mov	r31, r11
    21a2:	f0 62       	ori	r31, 0x20	; 32
    21a4:	bf 2e       	mov	r11, r31
    21a6:	07 c0       	rjmp	.+14     	; 0x21b6 <vfscanf+0x202>
    21a8:	8b 2d       	mov	r24, r11
    21aa:	80 61       	ori	r24, 0x10	; 16
    21ac:	b8 2e       	mov	r11, r24
    21ae:	03 c0       	rjmp	.+6      	; 0x21b6 <vfscanf+0x202>
    21b0:	9b 2d       	mov	r25, r11
    21b2:	90 64       	ori	r25, 0x40	; 64
    21b4:	b9 2e       	mov	r11, r25
    21b6:	2b 2d       	mov	r18, r11
    21b8:	a6 01       	movw	r20, r12
    21ba:	67 2d       	mov	r22, r7
    21bc:	c8 01       	movw	r24, r16
    21be:	ac dd       	rcall	.-1192   	; 0x1d18 <conv_int>
    21c0:	81 11       	cpse	r24, r1
    21c2:	05 c0       	rjmp	.+10     	; 0x21ce <vfscanf+0x21a>
    21c4:	f8 01       	movw	r30, r16
    21c6:	83 81       	ldd	r24, Z+3	; 0x03
    21c8:	80 73       	andi	r24, 0x30	; 48
    21ca:	29 f4       	brne	.+10     	; 0x21d6 <vfscanf+0x222>
    21cc:	06 c0       	rjmp	.+12     	; 0x21da <vfscanf+0x226>
    21ce:	b0 fc       	sbrc	r11, 0
    21d0:	0a cf       	rjmp	.-492    	; 0x1fe6 <vfscanf+0x32>
    21d2:	a3 94       	inc	r10
    21d4:	08 cf       	rjmp	.-496    	; 0x1fe6 <vfscanf+0x32>
    21d6:	aa 20       	and	r10, r10
    21d8:	19 f0       	breq	.+6      	; 0x21e0 <vfscanf+0x22c>
    21da:	8a 2d       	mov	r24, r10
    21dc:	90 e0       	ldi	r25, 0x00	; 0
    21de:	02 c0       	rjmp	.+4      	; 0x21e4 <vfscanf+0x230>
    21e0:	8f ef       	ldi	r24, 0xFF	; 255
    21e2:	9f ef       	ldi	r25, 0xFF	; 255
    21e4:	0f 90       	pop	r0
    21e6:	df 91       	pop	r29
    21e8:	cf 91       	pop	r28
    21ea:	1f 91       	pop	r17
    21ec:	0f 91       	pop	r16
    21ee:	ff 90       	pop	r15
    21f0:	ef 90       	pop	r14
    21f2:	df 90       	pop	r13
    21f4:	cf 90       	pop	r12
    21f6:	bf 90       	pop	r11
    21f8:	af 90       	pop	r10
    21fa:	9f 90       	pop	r9
    21fc:	8f 90       	pop	r8
    21fe:	7f 90       	pop	r7
    2200:	5f 90       	pop	r5
    2202:	4f 90       	pop	r4
    2204:	08 95       	ret

00002206 <calloc>:
    2206:	0f 93       	push	r16
    2208:	1f 93       	push	r17
    220a:	cf 93       	push	r28
    220c:	df 93       	push	r29
    220e:	86 9f       	mul	r24, r22
    2210:	80 01       	movw	r16, r0
    2212:	87 9f       	mul	r24, r23
    2214:	10 0d       	add	r17, r0
    2216:	96 9f       	mul	r25, r22
    2218:	10 0d       	add	r17, r0
    221a:	11 24       	eor	r1, r1
    221c:	c8 01       	movw	r24, r16
    221e:	71 d9       	rcall	.-3358   	; 0x1502 <malloc>
    2220:	ec 01       	movw	r28, r24
    2222:	00 97       	sbiw	r24, 0x00	; 0
    2224:	21 f0       	breq	.+8      	; 0x222e <calloc+0x28>
    2226:	a8 01       	movw	r20, r16
    2228:	60 e0       	ldi	r22, 0x00	; 0
    222a:	70 e0       	ldi	r23, 0x00	; 0
    222c:	a6 d1       	rcall	.+844    	; 0x257a <memset>
    222e:	ce 01       	movw	r24, r28
    2230:	df 91       	pop	r29
    2232:	cf 91       	pop	r28
    2234:	1f 91       	pop	r17
    2236:	0f 91       	pop	r16
    2238:	08 95       	ret

0000223a <strtod>:
    223a:	8f 92       	push	r8
    223c:	9f 92       	push	r9
    223e:	af 92       	push	r10
    2240:	bf 92       	push	r11
    2242:	cf 92       	push	r12
    2244:	df 92       	push	r13
    2246:	ef 92       	push	r14
    2248:	ff 92       	push	r15
    224a:	0f 93       	push	r16
    224c:	1f 93       	push	r17
    224e:	cf 93       	push	r28
    2250:	df 93       	push	r29
    2252:	8b 01       	movw	r16, r22
    2254:	61 15       	cp	r22, r1
    2256:	71 05       	cpc	r23, r1
    2258:	21 f0       	breq	.+8      	; 0x2262 <strtod+0x28>
    225a:	db 01       	movw	r26, r22
    225c:	8c 93       	st	X, r24
    225e:	11 96       	adiw	r26, 0x01	; 1
    2260:	9c 93       	st	X, r25
    2262:	ec 01       	movw	r28, r24
    2264:	5e 01       	movw	r10, r28
    2266:	bf ef       	ldi	r27, 0xFF	; 255
    2268:	ab 1a       	sub	r10, r27
    226a:	bb 0a       	sbc	r11, r27
    226c:	75 01       	movw	r14, r10
    226e:	c8 80       	ld	r12, Y
    2270:	8c 2d       	mov	r24, r12
    2272:	90 e0       	ldi	r25, 0x00	; 0
    2274:	4c d1       	rcall	.+664    	; 0x250e <isspace>
    2276:	89 2b       	or	r24, r25
    2278:	11 f0       	breq	.+4      	; 0x227e <strtod+0x44>
    227a:	e5 01       	movw	r28, r10
    227c:	f3 cf       	rjmp	.-26     	; 0x2264 <strtod+0x2a>
    227e:	ed e2       	ldi	r30, 0x2D	; 45
    2280:	ce 12       	cpse	r12, r30
    2282:	08 c0       	rjmp	.+16     	; 0x2294 <strtod+0x5a>
    2284:	7e 01       	movw	r14, r28
    2286:	f2 e0       	ldi	r31, 0x02	; 2
    2288:	ef 0e       	add	r14, r31
    228a:	f1 1c       	adc	r15, r1
    228c:	c9 80       	ldd	r12, Y+1	; 0x01
    228e:	dd 24       	eor	r13, r13
    2290:	d3 94       	inc	r13
    2292:	09 c0       	rjmp	.+18     	; 0x22a6 <strtod+0x6c>
    2294:	2b e2       	ldi	r18, 0x2B	; 43
    2296:	c2 12       	cpse	r12, r18
    2298:	05 c0       	rjmp	.+10     	; 0x22a4 <strtod+0x6a>
    229a:	7e 01       	movw	r14, r28
    229c:	42 e0       	ldi	r20, 0x02	; 2
    229e:	e4 0e       	add	r14, r20
    22a0:	f1 1c       	adc	r15, r1
    22a2:	c9 80       	ldd	r12, Y+1	; 0x01
    22a4:	d1 2c       	mov	r13, r1
    22a6:	e7 01       	movw	r28, r14
    22a8:	21 97       	sbiw	r28, 0x01	; 1
    22aa:	43 e0       	ldi	r20, 0x03	; 3
    22ac:	50 e0       	ldi	r21, 0x00	; 0
    22ae:	6a e9       	ldi	r22, 0x9A	; 154
    22b0:	71 e0       	ldi	r23, 0x01	; 1
    22b2:	ce 01       	movw	r24, r28
    22b4:	3f d1       	rcall	.+638    	; 0x2534 <strncasecmp_P>
    22b6:	89 2b       	or	r24, r25
    22b8:	b9 f4       	brne	.+46     	; 0x22e8 <strtod+0xae>
    22ba:	23 96       	adiw	r28, 0x03	; 3
    22bc:	45 e0       	ldi	r20, 0x05	; 5
    22be:	50 e0       	ldi	r21, 0x00	; 0
    22c0:	65 e9       	ldi	r22, 0x95	; 149
    22c2:	71 e0       	ldi	r23, 0x01	; 1
    22c4:	ce 01       	movw	r24, r28
    22c6:	36 d1       	rcall	.+620    	; 0x2534 <strncasecmp_P>
    22c8:	89 2b       	or	r24, r25
    22ca:	09 f4       	brne	.+2      	; 0x22ce <strtod+0x94>
    22cc:	25 96       	adiw	r28, 0x05	; 5
    22ce:	01 15       	cp	r16, r1
    22d0:	11 05       	cpc	r17, r1
    22d2:	19 f0       	breq	.+6      	; 0x22da <strtod+0xa0>
    22d4:	d8 01       	movw	r26, r16
    22d6:	cd 93       	st	X+, r28
    22d8:	dc 93       	st	X, r29
    22da:	d1 10       	cpse	r13, r1
    22dc:	02 c1       	rjmp	.+516    	; 0x24e2 <strtod+0x2a8>
    22de:	60 e0       	ldi	r22, 0x00	; 0
    22e0:	70 e0       	ldi	r23, 0x00	; 0
    22e2:	80 e8       	ldi	r24, 0x80	; 128
    22e4:	9f e7       	ldi	r25, 0x7F	; 127
    22e6:	06 c1       	rjmp	.+524    	; 0x24f4 <strtod+0x2ba>
    22e8:	43 e0       	ldi	r20, 0x03	; 3
    22ea:	50 e0       	ldi	r21, 0x00	; 0
    22ec:	62 e9       	ldi	r22, 0x92	; 146
    22ee:	71 e0       	ldi	r23, 0x01	; 1
    22f0:	ce 01       	movw	r24, r28
    22f2:	20 d1       	rcall	.+576    	; 0x2534 <strncasecmp_P>
    22f4:	89 2b       	or	r24, r25
    22f6:	59 f4       	brne	.+22     	; 0x230e <strtod+0xd4>
    22f8:	01 15       	cp	r16, r1
    22fa:	11 05       	cpc	r17, r1
    22fc:	09 f4       	brne	.+2      	; 0x2300 <strtod+0xc6>
    22fe:	f6 c0       	rjmp	.+492    	; 0x24ec <strtod+0x2b2>
    2300:	b2 e0       	ldi	r27, 0x02	; 2
    2302:	eb 0e       	add	r14, r27
    2304:	f1 1c       	adc	r15, r1
    2306:	f8 01       	movw	r30, r16
    2308:	f1 82       	std	Z+1, r15	; 0x01
    230a:	e0 82       	st	Z, r14
    230c:	ef c0       	rjmp	.+478    	; 0x24ec <strtod+0x2b2>
    230e:	f7 01       	movw	r30, r14
    2310:	60 e0       	ldi	r22, 0x00	; 0
    2312:	70 e0       	ldi	r23, 0x00	; 0
    2314:	cb 01       	movw	r24, r22
    2316:	c0 e0       	ldi	r28, 0x00	; 0
    2318:	d0 e0       	ldi	r29, 0x00	; 0
    231a:	7f 01       	movw	r14, r30
    231c:	a0 ed       	ldi	r26, 0xD0	; 208
    231e:	aa 2e       	mov	r10, r26
    2320:	ac 0c       	add	r10, r12
    2322:	29 e0       	ldi	r18, 0x09	; 9
    2324:	2a 15       	cp	r18, r10
    2326:	28 f1       	brcs	.+74     	; 0x2372 <strtod+0x138>
    2328:	4d 2d       	mov	r20, r13
    232a:	42 60       	ori	r20, 0x02	; 2
    232c:	b4 2e       	mov	r11, r20
    232e:	2d 2d       	mov	r18, r13
    2330:	28 70       	andi	r18, 0x08	; 8
    2332:	d2 fe       	sbrs	r13, 2
    2334:	04 c0       	rjmp	.+8      	; 0x233e <strtod+0x104>
    2336:	21 11       	cpse	r18, r1
    2338:	24 c0       	rjmp	.+72     	; 0x2382 <strtod+0x148>
    233a:	21 96       	adiw	r28, 0x01	; 1
    233c:	22 c0       	rjmp	.+68     	; 0x2382 <strtod+0x148>
    233e:	21 11       	cpse	r18, r1
    2340:	21 97       	sbiw	r28, 0x01	; 1
    2342:	a5 e0       	ldi	r26, 0x05	; 5
    2344:	b0 e0       	ldi	r27, 0x00	; 0
    2346:	9b 01       	movw	r18, r22
    2348:	ac 01       	movw	r20, r24
    234a:	a0 d8       	rcall	.-3776   	; 0x148c <__muluhisi3>
    234c:	66 0f       	add	r22, r22
    234e:	77 1f       	adc	r23, r23
    2350:	88 1f       	adc	r24, r24
    2352:	99 1f       	adc	r25, r25
    2354:	6a 0d       	add	r22, r10
    2356:	71 1d       	adc	r23, r1
    2358:	81 1d       	adc	r24, r1
    235a:	91 1d       	adc	r25, r1
    235c:	68 39       	cpi	r22, 0x98	; 152
    235e:	a9 e9       	ldi	r26, 0x99	; 153
    2360:	7a 07       	cpc	r23, r26
    2362:	8a 07       	cpc	r24, r26
    2364:	a9 e1       	ldi	r26, 0x19	; 25
    2366:	9a 07       	cpc	r25, r26
    2368:	60 f0       	brcs	.+24     	; 0x2382 <strtod+0x148>
    236a:	bd 2d       	mov	r27, r13
    236c:	b6 60       	ori	r27, 0x06	; 6
    236e:	bb 2e       	mov	r11, r27
    2370:	08 c0       	rjmp	.+16     	; 0x2382 <strtod+0x148>
    2372:	2e ef       	ldi	r18, 0xFE	; 254
    2374:	a2 12       	cpse	r10, r18
    2376:	0a c0       	rjmp	.+20     	; 0x238c <strtod+0x152>
    2378:	d3 fc       	sbrc	r13, 3
    237a:	50 c0       	rjmp	.+160    	; 0x241c <strtod+0x1e2>
    237c:	4d 2d       	mov	r20, r13
    237e:	48 60       	ori	r20, 0x08	; 8
    2380:	b4 2e       	mov	r11, r20
    2382:	31 96       	adiw	r30, 0x01	; 1
    2384:	d7 01       	movw	r26, r14
    2386:	cc 90       	ld	r12, X
    2388:	db 2c       	mov	r13, r11
    238a:	c7 cf       	rjmp	.-114    	; 0x231a <strtod+0xe0>
    238c:	2c 2d       	mov	r18, r12
    238e:	2f 7d       	andi	r18, 0xDF	; 223
    2390:	25 34       	cpi	r18, 0x45	; 69
    2392:	09 f0       	breq	.+2      	; 0x2396 <strtod+0x15c>
    2394:	43 c0       	rjmp	.+134    	; 0x241c <strtod+0x1e2>
    2396:	a0 81       	ld	r26, Z
    2398:	ad 32       	cpi	r26, 0x2D	; 45
    239a:	41 f4       	brne	.+16     	; 0x23ac <strtod+0x172>
    239c:	bd 2d       	mov	r27, r13
    239e:	b0 61       	ori	r27, 0x10	; 16
    23a0:	db 2e       	mov	r13, r27
    23a2:	7f 01       	movw	r14, r30
    23a4:	22 e0       	ldi	r18, 0x02	; 2
    23a6:	e2 0e       	add	r14, r18
    23a8:	f1 1c       	adc	r15, r1
    23aa:	0c c0       	rjmp	.+24     	; 0x23c4 <strtod+0x18a>
    23ac:	7f 01       	movw	r14, r30
    23ae:	ab 32       	cpi	r26, 0x2B	; 43
    23b0:	31 f0       	breq	.+12     	; 0x23be <strtod+0x184>
    23b2:	4f ef       	ldi	r20, 0xFF	; 255
    23b4:	e4 1a       	sub	r14, r20
    23b6:	f4 0a       	sbc	r15, r20
    23b8:	21 e0       	ldi	r18, 0x01	; 1
    23ba:	30 e0       	ldi	r19, 0x00	; 0
    23bc:	06 c0       	rjmp	.+12     	; 0x23ca <strtod+0x190>
    23be:	a2 e0       	ldi	r26, 0x02	; 2
    23c0:	ea 0e       	add	r14, r26
    23c2:	f1 1c       	adc	r15, r1
    23c4:	a1 81       	ldd	r26, Z+1	; 0x01
    23c6:	22 e0       	ldi	r18, 0x02	; 2
    23c8:	30 e0       	ldi	r19, 0x00	; 0
    23ca:	a0 53       	subi	r26, 0x30	; 48
    23cc:	aa 30       	cpi	r26, 0x0A	; 10
    23ce:	18 f0       	brcs	.+6      	; 0x23d6 <strtod+0x19c>
    23d0:	e2 1a       	sub	r14, r18
    23d2:	f3 0a       	sbc	r15, r19
    23d4:	23 c0       	rjmp	.+70     	; 0x241c <strtod+0x1e2>
    23d6:	f7 01       	movw	r30, r14
    23d8:	20 e0       	ldi	r18, 0x00	; 0
    23da:	30 e0       	ldi	r19, 0x00	; 0
    23dc:	20 38       	cpi	r18, 0x80	; 128
    23de:	bc e0       	ldi	r27, 0x0C	; 12
    23e0:	3b 07       	cpc	r19, r27
    23e2:	5c f4       	brge	.+22     	; 0x23fa <strtod+0x1c0>
    23e4:	a9 01       	movw	r20, r18
    23e6:	44 0f       	add	r20, r20
    23e8:	55 1f       	adc	r21, r21
    23ea:	44 0f       	add	r20, r20
    23ec:	55 1f       	adc	r21, r21
    23ee:	24 0f       	add	r18, r20
    23f0:	35 1f       	adc	r19, r21
    23f2:	22 0f       	add	r18, r18
    23f4:	33 1f       	adc	r19, r19
    23f6:	2a 0f       	add	r18, r26
    23f8:	31 1d       	adc	r19, r1
    23fa:	af 01       	movw	r20, r30
    23fc:	4f 5f       	subi	r20, 0xFF	; 255
    23fe:	5f 4f       	sbci	r21, 0xFF	; 255
    2400:	7a 01       	movw	r14, r20
    2402:	a0 81       	ld	r26, Z
    2404:	a0 53       	subi	r26, 0x30	; 48
    2406:	aa 30       	cpi	r26, 0x0A	; 10
    2408:	10 f4       	brcc	.+4      	; 0x240e <strtod+0x1d4>
    240a:	fa 01       	movw	r30, r20
    240c:	e7 cf       	rjmp	.-50     	; 0x23dc <strtod+0x1a2>
    240e:	d4 fe       	sbrs	r13, 4
    2410:	03 c0       	rjmp	.+6      	; 0x2418 <strtod+0x1de>
    2412:	31 95       	neg	r19
    2414:	21 95       	neg	r18
    2416:	31 09       	sbc	r19, r1
    2418:	c2 0f       	add	r28, r18
    241a:	d3 1f       	adc	r29, r19
    241c:	d1 fe       	sbrs	r13, 1
    241e:	09 c0       	rjmp	.+18     	; 0x2432 <strtod+0x1f8>
    2420:	01 15       	cp	r16, r1
    2422:	11 05       	cpc	r17, r1
    2424:	31 f0       	breq	.+12     	; 0x2432 <strtod+0x1f8>
    2426:	e1 e0       	ldi	r30, 0x01	; 1
    2428:	ee 1a       	sub	r14, r30
    242a:	f1 08       	sbc	r15, r1
    242c:	d8 01       	movw	r26, r16
    242e:	ed 92       	st	X+, r14
    2430:	fc 92       	st	X, r15
    2432:	0e 94 0c 09 	call	0x1218	; 0x1218 <__floatunsisf>
    2436:	2d 2d       	mov	r18, r13
    2438:	23 70       	andi	r18, 0x03	; 3
    243a:	23 30       	cpi	r18, 0x03	; 3
    243c:	19 f0       	breq	.+6      	; 0x2444 <strtod+0x20a>
    243e:	4b 01       	movw	r8, r22
    2440:	5c 01       	movw	r10, r24
    2442:	06 c0       	rjmp	.+12     	; 0x2450 <strtod+0x216>
    2444:	4b 01       	movw	r8, r22
    2446:	5c 01       	movw	r10, r24
    2448:	b7 fa       	bst	r11, 7
    244a:	b0 94       	com	r11
    244c:	b7 f8       	bld	r11, 7
    244e:	b0 94       	com	r11
    2450:	20 e0       	ldi	r18, 0x00	; 0
    2452:	30 e0       	ldi	r19, 0x00	; 0
    2454:	a9 01       	movw	r20, r18
    2456:	c5 01       	movw	r24, r10
    2458:	b4 01       	movw	r22, r8
    245a:	88 d1       	rcall	.+784    	; 0x276c <__cmpsf2>
    245c:	88 23       	and	r24, r24
    245e:	09 f4       	brne	.+2      	; 0x2462 <strtod+0x228>
    2460:	3d c0       	rjmp	.+122    	; 0x24dc <strtod+0x2a2>
    2462:	d7 ff       	sbrs	r29, 7
    2464:	06 c0       	rjmp	.+12     	; 0x2472 <strtod+0x238>
    2466:	d1 95       	neg	r29
    2468:	c1 95       	neg	r28
    246a:	d1 09       	sbc	r29, r1
    246c:	01 eb       	ldi	r16, 0xB1	; 177
    246e:	11 e0       	ldi	r17, 0x01	; 1
    2470:	02 c0       	rjmp	.+4      	; 0x2476 <strtod+0x23c>
    2472:	09 ec       	ldi	r16, 0xC9	; 201
    2474:	11 e0       	ldi	r17, 0x01	; 1
    2476:	68 01       	movw	r12, r16
    2478:	b8 e1       	ldi	r27, 0x18	; 24
    247a:	cb 1a       	sub	r12, r27
    247c:	d1 08       	sbc	r13, r1
    247e:	90 e2       	ldi	r25, 0x20	; 32
    2480:	e9 2e       	mov	r14, r25
    2482:	f1 2c       	mov	r15, r1
    2484:	ce 15       	cp	r28, r14
    2486:	df 05       	cpc	r29, r15
    2488:	74 f0       	brlt	.+28     	; 0x24a6 <strtod+0x26c>
    248a:	f8 01       	movw	r30, r16
    248c:	25 91       	lpm	r18, Z+
    248e:	35 91       	lpm	r19, Z+
    2490:	45 91       	lpm	r20, Z+
    2492:	54 91       	lpm	r21, Z
    2494:	c5 01       	movw	r24, r10
    2496:	b4 01       	movw	r22, r8
    2498:	0e 94 9a 09 	call	0x1334	; 0x1334 <__mulsf3>
    249c:	4b 01       	movw	r8, r22
    249e:	5c 01       	movw	r10, r24
    24a0:	ce 19       	sub	r28, r14
    24a2:	df 09       	sbc	r29, r15
    24a4:	ef cf       	rjmp	.-34     	; 0x2484 <strtod+0x24a>
    24a6:	04 50       	subi	r16, 0x04	; 4
    24a8:	11 09       	sbc	r17, r1
    24aa:	f5 94       	asr	r15
    24ac:	e7 94       	ror	r14
    24ae:	0c 15       	cp	r16, r12
    24b0:	1d 05       	cpc	r17, r13
    24b2:	41 f7       	brne	.-48     	; 0x2484 <strtod+0x24a>
    24b4:	8a 2d       	mov	r24, r10
    24b6:	88 0f       	add	r24, r24
    24b8:	8b 2d       	mov	r24, r11
    24ba:	88 1f       	adc	r24, r24
    24bc:	8f 3f       	cpi	r24, 0xFF	; 255
    24be:	41 f0       	breq	.+16     	; 0x24d0 <strtod+0x296>
    24c0:	20 e0       	ldi	r18, 0x00	; 0
    24c2:	30 e0       	ldi	r19, 0x00	; 0
    24c4:	a9 01       	movw	r20, r18
    24c6:	c5 01       	movw	r24, r10
    24c8:	b4 01       	movw	r22, r8
    24ca:	50 d1       	rcall	.+672    	; 0x276c <__cmpsf2>
    24cc:	81 11       	cpse	r24, r1
    24ce:	06 c0       	rjmp	.+12     	; 0x24dc <strtod+0x2a2>
    24d0:	82 e2       	ldi	r24, 0x22	; 34
    24d2:	90 e0       	ldi	r25, 0x00	; 0
    24d4:	90 93 27 04 	sts	0x0427, r25
    24d8:	80 93 26 04 	sts	0x0426, r24
    24dc:	c5 01       	movw	r24, r10
    24de:	b4 01       	movw	r22, r8
    24e0:	09 c0       	rjmp	.+18     	; 0x24f4 <strtod+0x2ba>
    24e2:	60 e0       	ldi	r22, 0x00	; 0
    24e4:	70 e0       	ldi	r23, 0x00	; 0
    24e6:	80 e8       	ldi	r24, 0x80	; 128
    24e8:	9f ef       	ldi	r25, 0xFF	; 255
    24ea:	04 c0       	rjmp	.+8      	; 0x24f4 <strtod+0x2ba>
    24ec:	60 e0       	ldi	r22, 0x00	; 0
    24ee:	70 e0       	ldi	r23, 0x00	; 0
    24f0:	80 ec       	ldi	r24, 0xC0	; 192
    24f2:	9f e7       	ldi	r25, 0x7F	; 127
    24f4:	df 91       	pop	r29
    24f6:	cf 91       	pop	r28
    24f8:	1f 91       	pop	r17
    24fa:	0f 91       	pop	r16
    24fc:	ff 90       	pop	r15
    24fe:	ef 90       	pop	r14
    2500:	df 90       	pop	r13
    2502:	cf 90       	pop	r12
    2504:	bf 90       	pop	r11
    2506:	af 90       	pop	r10
    2508:	9f 90       	pop	r9
    250a:	8f 90       	pop	r8
    250c:	08 95       	ret

0000250e <isspace>:
    250e:	91 11       	cpse	r25, r1
    2510:	55 c1       	rjmp	.+682    	; 0x27bc <__ctype_isfalse>
    2512:	80 32       	cpi	r24, 0x20	; 32
    2514:	19 f0       	breq	.+6      	; 0x251c <isspace+0xe>
    2516:	89 50       	subi	r24, 0x09	; 9
    2518:	85 50       	subi	r24, 0x05	; 5
    251a:	d0 f7       	brcc	.-12     	; 0x2510 <isspace+0x2>
    251c:	08 95       	ret

0000251e <strchr_P>:
    251e:	fc 01       	movw	r30, r24
    2520:	05 90       	lpm	r0, Z+
    2522:	06 16       	cp	r0, r22
    2524:	21 f0       	breq	.+8      	; 0x252e <strchr_P+0x10>
    2526:	00 20       	and	r0, r0
    2528:	d9 f7       	brne	.-10     	; 0x2520 <strchr_P+0x2>
    252a:	c0 01       	movw	r24, r0
    252c:	08 95       	ret
    252e:	31 97       	sbiw	r30, 0x01	; 1
    2530:	cf 01       	movw	r24, r30
    2532:	08 95       	ret

00002534 <strncasecmp_P>:
    2534:	fb 01       	movw	r30, r22
    2536:	dc 01       	movw	r26, r24
    2538:	41 50       	subi	r20, 0x01	; 1
    253a:	50 40       	sbci	r21, 0x00	; 0
    253c:	88 f0       	brcs	.+34     	; 0x2560 <strncasecmp_P+0x2c>
    253e:	8d 91       	ld	r24, X+
    2540:	81 34       	cpi	r24, 0x41	; 65
    2542:	1c f0       	brlt	.+6      	; 0x254a <strncasecmp_P+0x16>
    2544:	8b 35       	cpi	r24, 0x5B	; 91
    2546:	0c f4       	brge	.+2      	; 0x254a <strncasecmp_P+0x16>
    2548:	80 5e       	subi	r24, 0xE0	; 224
    254a:	65 91       	lpm	r22, Z+
    254c:	61 34       	cpi	r22, 0x41	; 65
    254e:	1c f0       	brlt	.+6      	; 0x2556 <strncasecmp_P+0x22>
    2550:	6b 35       	cpi	r22, 0x5B	; 91
    2552:	0c f4       	brge	.+2      	; 0x2556 <strncasecmp_P+0x22>
    2554:	60 5e       	subi	r22, 0xE0	; 224
    2556:	86 1b       	sub	r24, r22
    2558:	61 11       	cpse	r22, r1
    255a:	71 f3       	breq	.-36     	; 0x2538 <strncasecmp_P+0x4>
    255c:	99 0b       	sbc	r25, r25
    255e:	08 95       	ret
    2560:	88 1b       	sub	r24, r24
    2562:	fc cf       	rjmp	.-8      	; 0x255c <strncasecmp_P+0x28>

00002564 <strnlen_P>:
    2564:	fc 01       	movw	r30, r24
    2566:	05 90       	lpm	r0, Z+
    2568:	61 50       	subi	r22, 0x01	; 1
    256a:	70 40       	sbci	r23, 0x00	; 0
    256c:	01 10       	cpse	r0, r1
    256e:	d8 f7       	brcc	.-10     	; 0x2566 <strnlen_P+0x2>
    2570:	80 95       	com	r24
    2572:	90 95       	com	r25
    2574:	8e 0f       	add	r24, r30
    2576:	9f 1f       	adc	r25, r31
    2578:	08 95       	ret

0000257a <memset>:
    257a:	dc 01       	movw	r26, r24
    257c:	01 c0       	rjmp	.+2      	; 0x2580 <memset+0x6>
    257e:	6d 93       	st	X+, r22
    2580:	41 50       	subi	r20, 0x01	; 1
    2582:	50 40       	sbci	r21, 0x00	; 0
    2584:	e0 f7       	brcc	.-8      	; 0x257e <memset+0x4>
    2586:	08 95       	ret

00002588 <strnlen>:
    2588:	fc 01       	movw	r30, r24
    258a:	61 50       	subi	r22, 0x01	; 1
    258c:	70 40       	sbci	r23, 0x00	; 0
    258e:	01 90       	ld	r0, Z+
    2590:	01 10       	cpse	r0, r1
    2592:	d8 f7       	brcc	.-10     	; 0x258a <strnlen+0x2>
    2594:	80 95       	com	r24
    2596:	90 95       	com	r25
    2598:	8e 0f       	add	r24, r30
    259a:	9f 1f       	adc	r25, r31
    259c:	08 95       	ret

0000259e <fgetc>:
    259e:	cf 93       	push	r28
    25a0:	df 93       	push	r29
    25a2:	ec 01       	movw	r28, r24
    25a4:	2b 81       	ldd	r18, Y+3	; 0x03
    25a6:	20 ff       	sbrs	r18, 0
    25a8:	33 c0       	rjmp	.+102    	; 0x2610 <fgetc+0x72>
    25aa:	26 ff       	sbrs	r18, 6
    25ac:	0a c0       	rjmp	.+20     	; 0x25c2 <fgetc+0x24>
    25ae:	2f 7b       	andi	r18, 0xBF	; 191
    25b0:	2b 83       	std	Y+3, r18	; 0x03
    25b2:	8e 81       	ldd	r24, Y+6	; 0x06
    25b4:	9f 81       	ldd	r25, Y+7	; 0x07
    25b6:	01 96       	adiw	r24, 0x01	; 1
    25b8:	9f 83       	std	Y+7, r25	; 0x07
    25ba:	8e 83       	std	Y+6, r24	; 0x06
    25bc:	8a 81       	ldd	r24, Y+2	; 0x02
    25be:	90 e0       	ldi	r25, 0x00	; 0
    25c0:	29 c0       	rjmp	.+82     	; 0x2614 <fgetc+0x76>
    25c2:	22 ff       	sbrs	r18, 2
    25c4:	0f c0       	rjmp	.+30     	; 0x25e4 <fgetc+0x46>
    25c6:	e8 81       	ld	r30, Y
    25c8:	f9 81       	ldd	r31, Y+1	; 0x01
    25ca:	80 81       	ld	r24, Z
    25cc:	99 27       	eor	r25, r25
    25ce:	87 fd       	sbrc	r24, 7
    25d0:	90 95       	com	r25
    25d2:	00 97       	sbiw	r24, 0x00	; 0
    25d4:	19 f4       	brne	.+6      	; 0x25dc <fgetc+0x3e>
    25d6:	20 62       	ori	r18, 0x20	; 32
    25d8:	2b 83       	std	Y+3, r18	; 0x03
    25da:	1a c0       	rjmp	.+52     	; 0x2610 <fgetc+0x72>
    25dc:	31 96       	adiw	r30, 0x01	; 1
    25de:	f9 83       	std	Y+1, r31	; 0x01
    25e0:	e8 83       	st	Y, r30
    25e2:	0e c0       	rjmp	.+28     	; 0x2600 <fgetc+0x62>
    25e4:	ea 85       	ldd	r30, Y+10	; 0x0a
    25e6:	fb 85       	ldd	r31, Y+11	; 0x0b
    25e8:	19 95       	eicall
    25ea:	97 ff       	sbrs	r25, 7
    25ec:	09 c0       	rjmp	.+18     	; 0x2600 <fgetc+0x62>
    25ee:	2b 81       	ldd	r18, Y+3	; 0x03
    25f0:	01 96       	adiw	r24, 0x01	; 1
    25f2:	11 f4       	brne	.+4      	; 0x25f8 <fgetc+0x5a>
    25f4:	80 e1       	ldi	r24, 0x10	; 16
    25f6:	01 c0       	rjmp	.+2      	; 0x25fa <fgetc+0x5c>
    25f8:	80 e2       	ldi	r24, 0x20	; 32
    25fa:	82 2b       	or	r24, r18
    25fc:	8b 83       	std	Y+3, r24	; 0x03
    25fe:	08 c0       	rjmp	.+16     	; 0x2610 <fgetc+0x72>
    2600:	2e 81       	ldd	r18, Y+6	; 0x06
    2602:	3f 81       	ldd	r19, Y+7	; 0x07
    2604:	2f 5f       	subi	r18, 0xFF	; 255
    2606:	3f 4f       	sbci	r19, 0xFF	; 255
    2608:	3f 83       	std	Y+7, r19	; 0x07
    260a:	2e 83       	std	Y+6, r18	; 0x06
    260c:	99 27       	eor	r25, r25
    260e:	02 c0       	rjmp	.+4      	; 0x2614 <fgetc+0x76>
    2610:	8f ef       	ldi	r24, 0xFF	; 255
    2612:	9f ef       	ldi	r25, 0xFF	; 255
    2614:	df 91       	pop	r29
    2616:	cf 91       	pop	r28
    2618:	08 95       	ret

0000261a <fputc>:
    261a:	0f 93       	push	r16
    261c:	1f 93       	push	r17
    261e:	cf 93       	push	r28
    2620:	df 93       	push	r29
    2622:	18 2f       	mov	r17, r24
    2624:	09 2f       	mov	r16, r25
    2626:	eb 01       	movw	r28, r22
    2628:	8b 81       	ldd	r24, Y+3	; 0x03
    262a:	81 fd       	sbrc	r24, 1
    262c:	03 c0       	rjmp	.+6      	; 0x2634 <fputc+0x1a>
    262e:	8f ef       	ldi	r24, 0xFF	; 255
    2630:	9f ef       	ldi	r25, 0xFF	; 255
    2632:	20 c0       	rjmp	.+64     	; 0x2674 <fputc+0x5a>
    2634:	82 ff       	sbrs	r24, 2
    2636:	10 c0       	rjmp	.+32     	; 0x2658 <fputc+0x3e>
    2638:	4e 81       	ldd	r20, Y+6	; 0x06
    263a:	5f 81       	ldd	r21, Y+7	; 0x07
    263c:	2c 81       	ldd	r18, Y+4	; 0x04
    263e:	3d 81       	ldd	r19, Y+5	; 0x05
    2640:	42 17       	cp	r20, r18
    2642:	53 07       	cpc	r21, r19
    2644:	7c f4       	brge	.+30     	; 0x2664 <fputc+0x4a>
    2646:	e8 81       	ld	r30, Y
    2648:	f9 81       	ldd	r31, Y+1	; 0x01
    264a:	9f 01       	movw	r18, r30
    264c:	2f 5f       	subi	r18, 0xFF	; 255
    264e:	3f 4f       	sbci	r19, 0xFF	; 255
    2650:	39 83       	std	Y+1, r19	; 0x01
    2652:	28 83       	st	Y, r18
    2654:	10 83       	st	Z, r17
    2656:	06 c0       	rjmp	.+12     	; 0x2664 <fputc+0x4a>
    2658:	e8 85       	ldd	r30, Y+8	; 0x08
    265a:	f9 85       	ldd	r31, Y+9	; 0x09
    265c:	81 2f       	mov	r24, r17
    265e:	19 95       	eicall
    2660:	89 2b       	or	r24, r25
    2662:	29 f7       	brne	.-54     	; 0x262e <fputc+0x14>
    2664:	2e 81       	ldd	r18, Y+6	; 0x06
    2666:	3f 81       	ldd	r19, Y+7	; 0x07
    2668:	2f 5f       	subi	r18, 0xFF	; 255
    266a:	3f 4f       	sbci	r19, 0xFF	; 255
    266c:	3f 83       	std	Y+7, r19	; 0x07
    266e:	2e 83       	std	Y+6, r18	; 0x06
    2670:	81 2f       	mov	r24, r17
    2672:	90 2f       	mov	r25, r16
    2674:	df 91       	pop	r29
    2676:	cf 91       	pop	r28
    2678:	1f 91       	pop	r17
    267a:	0f 91       	pop	r16
    267c:	08 95       	ret

0000267e <ungetc>:
    267e:	fb 01       	movw	r30, r22
    2680:	23 81       	ldd	r18, Z+3	; 0x03
    2682:	20 ff       	sbrs	r18, 0
    2684:	12 c0       	rjmp	.+36     	; 0x26aa <ungetc+0x2c>
    2686:	26 fd       	sbrc	r18, 6
    2688:	10 c0       	rjmp	.+32     	; 0x26aa <ungetc+0x2c>
    268a:	8f 3f       	cpi	r24, 0xFF	; 255
    268c:	3f ef       	ldi	r19, 0xFF	; 255
    268e:	93 07       	cpc	r25, r19
    2690:	61 f0       	breq	.+24     	; 0x26aa <ungetc+0x2c>
    2692:	82 83       	std	Z+2, r24	; 0x02
    2694:	2f 7d       	andi	r18, 0xDF	; 223
    2696:	20 64       	ori	r18, 0x40	; 64
    2698:	23 83       	std	Z+3, r18	; 0x03
    269a:	26 81       	ldd	r18, Z+6	; 0x06
    269c:	37 81       	ldd	r19, Z+7	; 0x07
    269e:	21 50       	subi	r18, 0x01	; 1
    26a0:	31 09       	sbc	r19, r1
    26a2:	37 83       	std	Z+7, r19	; 0x07
    26a4:	26 83       	std	Z+6, r18	; 0x06
    26a6:	99 27       	eor	r25, r25
    26a8:	08 95       	ret
    26aa:	8f ef       	ldi	r24, 0xFF	; 255
    26ac:	9f ef       	ldi	r25, 0xFF	; 255
    26ae:	08 95       	ret

000026b0 <__ultoa_invert>:
    26b0:	fa 01       	movw	r30, r20
    26b2:	aa 27       	eor	r26, r26
    26b4:	28 30       	cpi	r18, 0x08	; 8
    26b6:	51 f1       	breq	.+84     	; 0x270c <__ultoa_invert+0x5c>
    26b8:	20 31       	cpi	r18, 0x10	; 16
    26ba:	81 f1       	breq	.+96     	; 0x271c <__ultoa_invert+0x6c>
    26bc:	e8 94       	clt
    26be:	6f 93       	push	r22
    26c0:	6e 7f       	andi	r22, 0xFE	; 254
    26c2:	6e 5f       	subi	r22, 0xFE	; 254
    26c4:	7f 4f       	sbci	r23, 0xFF	; 255
    26c6:	8f 4f       	sbci	r24, 0xFF	; 255
    26c8:	9f 4f       	sbci	r25, 0xFF	; 255
    26ca:	af 4f       	sbci	r26, 0xFF	; 255
    26cc:	b1 e0       	ldi	r27, 0x01	; 1
    26ce:	3e d0       	rcall	.+124    	; 0x274c <__ultoa_invert+0x9c>
    26d0:	b4 e0       	ldi	r27, 0x04	; 4
    26d2:	3c d0       	rcall	.+120    	; 0x274c <__ultoa_invert+0x9c>
    26d4:	67 0f       	add	r22, r23
    26d6:	78 1f       	adc	r23, r24
    26d8:	89 1f       	adc	r24, r25
    26da:	9a 1f       	adc	r25, r26
    26dc:	a1 1d       	adc	r26, r1
    26de:	68 0f       	add	r22, r24
    26e0:	79 1f       	adc	r23, r25
    26e2:	8a 1f       	adc	r24, r26
    26e4:	91 1d       	adc	r25, r1
    26e6:	a1 1d       	adc	r26, r1
    26e8:	6a 0f       	add	r22, r26
    26ea:	71 1d       	adc	r23, r1
    26ec:	81 1d       	adc	r24, r1
    26ee:	91 1d       	adc	r25, r1
    26f0:	a1 1d       	adc	r26, r1
    26f2:	20 d0       	rcall	.+64     	; 0x2734 <__ultoa_invert+0x84>
    26f4:	09 f4       	brne	.+2      	; 0x26f8 <__ultoa_invert+0x48>
    26f6:	68 94       	set
    26f8:	3f 91       	pop	r19
    26fa:	2a e0       	ldi	r18, 0x0A	; 10
    26fc:	26 9f       	mul	r18, r22
    26fe:	11 24       	eor	r1, r1
    2700:	30 19       	sub	r19, r0
    2702:	30 5d       	subi	r19, 0xD0	; 208
    2704:	31 93       	st	Z+, r19
    2706:	de f6       	brtc	.-74     	; 0x26be <__ultoa_invert+0xe>
    2708:	cf 01       	movw	r24, r30
    270a:	08 95       	ret
    270c:	46 2f       	mov	r20, r22
    270e:	47 70       	andi	r20, 0x07	; 7
    2710:	40 5d       	subi	r20, 0xD0	; 208
    2712:	41 93       	st	Z+, r20
    2714:	b3 e0       	ldi	r27, 0x03	; 3
    2716:	0f d0       	rcall	.+30     	; 0x2736 <__ultoa_invert+0x86>
    2718:	c9 f7       	brne	.-14     	; 0x270c <__ultoa_invert+0x5c>
    271a:	f6 cf       	rjmp	.-20     	; 0x2708 <__ultoa_invert+0x58>
    271c:	46 2f       	mov	r20, r22
    271e:	4f 70       	andi	r20, 0x0F	; 15
    2720:	40 5d       	subi	r20, 0xD0	; 208
    2722:	4a 33       	cpi	r20, 0x3A	; 58
    2724:	18 f0       	brcs	.+6      	; 0x272c <__ultoa_invert+0x7c>
    2726:	49 5d       	subi	r20, 0xD9	; 217
    2728:	31 fd       	sbrc	r19, 1
    272a:	40 52       	subi	r20, 0x20	; 32
    272c:	41 93       	st	Z+, r20
    272e:	02 d0       	rcall	.+4      	; 0x2734 <__ultoa_invert+0x84>
    2730:	a9 f7       	brne	.-22     	; 0x271c <__ultoa_invert+0x6c>
    2732:	ea cf       	rjmp	.-44     	; 0x2708 <__ultoa_invert+0x58>
    2734:	b4 e0       	ldi	r27, 0x04	; 4
    2736:	a6 95       	lsr	r26
    2738:	97 95       	ror	r25
    273a:	87 95       	ror	r24
    273c:	77 95       	ror	r23
    273e:	67 95       	ror	r22
    2740:	ba 95       	dec	r27
    2742:	c9 f7       	brne	.-14     	; 0x2736 <__ultoa_invert+0x86>
    2744:	00 97       	sbiw	r24, 0x00	; 0
    2746:	61 05       	cpc	r22, r1
    2748:	71 05       	cpc	r23, r1
    274a:	08 95       	ret
    274c:	9b 01       	movw	r18, r22
    274e:	ac 01       	movw	r20, r24
    2750:	0a 2e       	mov	r0, r26
    2752:	06 94       	lsr	r0
    2754:	57 95       	ror	r21
    2756:	47 95       	ror	r20
    2758:	37 95       	ror	r19
    275a:	27 95       	ror	r18
    275c:	ba 95       	dec	r27
    275e:	c9 f7       	brne	.-14     	; 0x2752 <__ultoa_invert+0xa2>
    2760:	62 0f       	add	r22, r18
    2762:	73 1f       	adc	r23, r19
    2764:	84 1f       	adc	r24, r20
    2766:	95 1f       	adc	r25, r21
    2768:	a0 1d       	adc	r26, r0
    276a:	08 95       	ret

0000276c <__cmpsf2>:
    276c:	03 d0       	rcall	.+6      	; 0x2774 <__fp_cmp>
    276e:	08 f4       	brcc	.+2      	; 0x2772 <__cmpsf2+0x6>
    2770:	81 e0       	ldi	r24, 0x01	; 1
    2772:	08 95       	ret

00002774 <__fp_cmp>:
    2774:	99 0f       	add	r25, r25
    2776:	00 08       	sbc	r0, r0
    2778:	55 0f       	add	r21, r21
    277a:	aa 0b       	sbc	r26, r26
    277c:	e0 e8       	ldi	r30, 0x80	; 128
    277e:	fe ef       	ldi	r31, 0xFE	; 254
    2780:	16 16       	cp	r1, r22
    2782:	17 06       	cpc	r1, r23
    2784:	e8 07       	cpc	r30, r24
    2786:	f9 07       	cpc	r31, r25
    2788:	c0 f0       	brcs	.+48     	; 0x27ba <__fp_cmp+0x46>
    278a:	12 16       	cp	r1, r18
    278c:	13 06       	cpc	r1, r19
    278e:	e4 07       	cpc	r30, r20
    2790:	f5 07       	cpc	r31, r21
    2792:	98 f0       	brcs	.+38     	; 0x27ba <__fp_cmp+0x46>
    2794:	62 1b       	sub	r22, r18
    2796:	73 0b       	sbc	r23, r19
    2798:	84 0b       	sbc	r24, r20
    279a:	95 0b       	sbc	r25, r21
    279c:	39 f4       	brne	.+14     	; 0x27ac <__fp_cmp+0x38>
    279e:	0a 26       	eor	r0, r26
    27a0:	61 f0       	breq	.+24     	; 0x27ba <__fp_cmp+0x46>
    27a2:	23 2b       	or	r18, r19
    27a4:	24 2b       	or	r18, r20
    27a6:	25 2b       	or	r18, r21
    27a8:	21 f4       	brne	.+8      	; 0x27b2 <__fp_cmp+0x3e>
    27aa:	08 95       	ret
    27ac:	0a 26       	eor	r0, r26
    27ae:	09 f4       	brne	.+2      	; 0x27b2 <__fp_cmp+0x3e>
    27b0:	a1 40       	sbci	r26, 0x01	; 1
    27b2:	a6 95       	lsr	r26
    27b4:	8f ef       	ldi	r24, 0xFF	; 255
    27b6:	81 1d       	adc	r24, r1
    27b8:	81 1d       	adc	r24, r1
    27ba:	08 95       	ret

000027bc <__ctype_isfalse>:
    27bc:	99 27       	eor	r25, r25
    27be:	88 27       	eor	r24, r24

000027c0 <__ctype_istrue>:
    27c0:	08 95       	ret

000027c2 <_exit>:
    27c2:	f8 94       	cli

000027c4 <__stop_program>:
    27c4:	ff cf       	rjmp	.-2      	; 0x27c4 <__stop_program>
